   1              		.syntax unified
   2              		.cpu cortex-m3
   3              		.fpu softvfp
   4              		.eabi_attribute 20, 1
   5              		.eabi_attribute 21, 1
   6              		.eabi_attribute 23, 3
   7              		.eabi_attribute 24, 1
   8              		.eabi_attribute 25, 1
   9              		.eabi_attribute 26, 1
  10              		.eabi_attribute 30, 6
  11              		.eabi_attribute 34, 1
  12              		.eabi_attribute 18, 4
  13              		.thumb
  14              		.syntax unified
  15              		.file	"tcp.c"
  16              		.text
  17              	.Ltext0:
  18              		.cfi_sections	.debug_frame
  19              		.global	tcp_state_str
  20              		.section	.rodata
  21              		.align	2
  22              	.LC0:
  23 0000 434C4F53 		.ascii	"CLOSED\000"
  23      454400
  24 0007 00       		.align	2
  25              	.LC1:
  26 0008 4C495354 		.ascii	"LISTEN\000"
  26      454E00
  27 000f 00       		.align	2
  28              	.LC2:
  29 0010 53594E5F 		.ascii	"SYN_SENT\000"
  29      53454E54 
  29      00
  30 0019 000000   		.align	2
  31              	.LC3:
  32 001c 53594E5F 		.ascii	"SYN_RCVD\000"
  32      52435644 
  32      00
  33 0025 000000   		.align	2
  34              	.LC4:
  35 0028 45535441 		.ascii	"ESTABLISHED\000"
  35      424C4953 
  35      48454400 
  36              		.align	2
  37              	.LC5:
  38 0034 46494E5F 		.ascii	"FIN_WAIT_1\000"
  38      57414954 
  38      5F3100
  39 003f 00       		.align	2
  40              	.LC6:
  41 0040 46494E5F 		.ascii	"FIN_WAIT_2\000"
  41      57414954 
  41      5F3200
  42 004b 00       		.align	2
  43              	.LC7:
  44 004c 434C4F53 		.ascii	"CLOSE_WAIT\000"
  44      455F5741 
  44      495400
  45 0057 00       		.align	2
  46              	.LC8:
  47 0058 434C4F53 		.ascii	"CLOSING\000"
  47      494E4700 
  48              		.align	2
  49              	.LC9:
  50 0060 4C415354 		.ascii	"LAST_ACK\000"
  50      5F41434B 
  50      00
  51 0069 000000   		.align	2
  52              	.LC10:
  53 006c 54494D45 		.ascii	"TIME_WAIT\000"
  53      5F574149 
  53      5400
  54              		.section	.rodata.tcp_state_str,"a",%progbits
  55              		.align	2
  58              	tcp_state_str:
  59 0000 00000000 		.word	.LC0
  60 0004 08000000 		.word	.LC1
  61 0008 10000000 		.word	.LC2
  62 000c 1C000000 		.word	.LC3
  63 0010 28000000 		.word	.LC4
  64 0014 34000000 		.word	.LC5
  65 0018 40000000 		.word	.LC6
  66 001c 4C000000 		.word	.LC7
  67 0020 58000000 		.word	.LC8
  68 0024 60000000 		.word	.LC9
  69 0028 6C000000 		.word	.LC10
  70              		.comm	tcp_ticks,4,4
  71              		.global	tcp_backoff
  72              		.section	.rodata.tcp_backoff,"a",%progbits
  73              		.align	2
  76              	tcp_backoff:
  77 0000 01       		.byte	1
  78 0001 02       		.byte	2
  79 0002 03       		.byte	3
  80 0003 04       		.byte	4
  81 0004 05       		.byte	5
  82 0005 06       		.byte	6
  83 0006 07       		.byte	7
  84 0007 07       		.byte	7
  85 0008 07       		.byte	7
  86 0009 07       		.byte	7
  87 000a 07       		.byte	7
  88 000b 07       		.byte	7
  89 000c 07       		.byte	7
  90              		.global	tcp_persist_backoff
  91              		.section	.rodata.tcp_persist_backoff,"a",%progbits
  92              		.align	2
  95              	tcp_persist_backoff:
  96 0000 03       		.byte	3
  97 0001 06       		.byte	6
  98 0002 0C       		.byte	12
  99 0003 18       		.byte	24
 100 0004 30       		.byte	48
 101 0005 60       		.byte	96
 102 0006 78       		.byte	120
 103              		.comm	tcp_bound_pcbs,4,4
 104              		.comm	tcp_listen_pcbs,4,4
 105              		.comm	tcp_active_pcbs,4,4
 106              		.comm	tcp_tw_pcbs,4,4
 107              		.global	tcp_pcb_lists
 108              		.section	.rodata.tcp_pcb_lists,"a",%progbits
 109              		.align	2
 112              	tcp_pcb_lists:
 113 0000 00000000 		.word	tcp_listen_pcbs
 114 0004 00000000 		.word	tcp_bound_pcbs
 115 0008 00000000 		.word	tcp_active_pcbs
 116 000c 00000000 		.word	tcp_tw_pcbs
 117              		.comm	tcp_tmp_pcb,4,4
 118              		.section	.bss.tcp_timer,"aw",%nobits
 121              	tcp_timer:
 122 0000 00       		.space	1
 123              		.section	.text.tcp_tmr,"ax",%progbits
 124              		.align	2
 125              		.global	tcp_tmr
 126              		.thumb
 127              		.thumb_func
 129              	tcp_tmr:
 130              	.LFB17:
 131              		.file 1 "Libraries/lwip-1.4.0/core/tcp.c"
   1:Libraries/lwip-1.4.0/core/tcp.c **** /**
   2:Libraries/lwip-1.4.0/core/tcp.c ****  * @file
   3:Libraries/lwip-1.4.0/core/tcp.c ****  * Transmission Control Protocol for IP
   4:Libraries/lwip-1.4.0/core/tcp.c ****  *
   5:Libraries/lwip-1.4.0/core/tcp.c ****  * This file contains common functions for the TCP implementation, such as functinos
   6:Libraries/lwip-1.4.0/core/tcp.c ****  * for manipulating the data structures and the TCP timer functions. TCP functions
   7:Libraries/lwip-1.4.0/core/tcp.c ****  * related to input and output is found in tcp_in.c and tcp_out.c respectively.
   8:Libraries/lwip-1.4.0/core/tcp.c ****  *
   9:Libraries/lwip-1.4.0/core/tcp.c ****  */
  10:Libraries/lwip-1.4.0/core/tcp.c **** 
  11:Libraries/lwip-1.4.0/core/tcp.c **** /*
  12:Libraries/lwip-1.4.0/core/tcp.c ****  * Copyright (c) 2001-2004 Swedish Institute of Computer Science.
  13:Libraries/lwip-1.4.0/core/tcp.c ****  * All rights reserved. 
  14:Libraries/lwip-1.4.0/core/tcp.c ****  * 
  15:Libraries/lwip-1.4.0/core/tcp.c ****  * Redistribution and use in source and binary forms, with or without modification, 
  16:Libraries/lwip-1.4.0/core/tcp.c ****  * are permitted provided that the following conditions are met:
  17:Libraries/lwip-1.4.0/core/tcp.c ****  *
  18:Libraries/lwip-1.4.0/core/tcp.c ****  * 1. Redistributions of source code must retain the above copyright notice,
  19:Libraries/lwip-1.4.0/core/tcp.c ****  *    this list of conditions and the following disclaimer.
  20:Libraries/lwip-1.4.0/core/tcp.c ****  * 2. Redistributions in binary form must reproduce the above copyright notice,
  21:Libraries/lwip-1.4.0/core/tcp.c ****  *    this list of conditions and the following disclaimer in the documentation
  22:Libraries/lwip-1.4.0/core/tcp.c ****  *    and/or other materials provided with the distribution.
  23:Libraries/lwip-1.4.0/core/tcp.c ****  * 3. The name of the author may not be used to endorse or promote products
  24:Libraries/lwip-1.4.0/core/tcp.c ****  *    derived from this software without specific prior written permission. 
  25:Libraries/lwip-1.4.0/core/tcp.c ****  *
  26:Libraries/lwip-1.4.0/core/tcp.c ****  * THIS SOFTWARE IS PROVIDED BY THE AUTHOR ``AS IS'' AND ANY EXPRESS OR IMPLIED 
  27:Libraries/lwip-1.4.0/core/tcp.c ****  * WARRANTIES, INCLUDING, BUT NOT LIMITED TO, THE IMPLIED WARRANTIES OF 
  28:Libraries/lwip-1.4.0/core/tcp.c ****  * MERCHANTABILITY AND FITNESS FOR A PARTICULAR PURPOSE ARE DISCLAIMED. IN NO EVENT 
  29:Libraries/lwip-1.4.0/core/tcp.c ****  * SHALL THE AUTHOR BE LIABLE FOR ANY DIRECT, INDIRECT, INCIDENTAL, SPECIAL, 
  30:Libraries/lwip-1.4.0/core/tcp.c ****  * EXEMPLARY, OR CONSEQUENTIAL DAMAGES (INCLUDING, BUT NOT LIMITED TO, PROCUREMENT 
  31:Libraries/lwip-1.4.0/core/tcp.c ****  * OF SUBSTITUTE GOODS OR SERVICES; LOSS OF USE, DATA, OR PROFITS; OR BUSINESS 
  32:Libraries/lwip-1.4.0/core/tcp.c ****  * INTERRUPTION) HOWEVER CAUSED AND ON ANY THEORY OF LIABILITY, WHETHER IN 
  33:Libraries/lwip-1.4.0/core/tcp.c ****  * CONTRACT, STRICT LIABILITY, OR TORT (INCLUDING NEGLIGENCE OR OTHERWISE) ARISING 
  34:Libraries/lwip-1.4.0/core/tcp.c ****  * IN ANY WAY OUT OF THE USE OF THIS SOFTWARE, EVEN IF ADVISED OF THE POSSIBILITY 
  35:Libraries/lwip-1.4.0/core/tcp.c ****  * OF SUCH DAMAGE.
  36:Libraries/lwip-1.4.0/core/tcp.c ****  *
  37:Libraries/lwip-1.4.0/core/tcp.c ****  * This file is part of the lwIP TCP/IP stack.
  38:Libraries/lwip-1.4.0/core/tcp.c ****  * 
  39:Libraries/lwip-1.4.0/core/tcp.c ****  * Author: Adam Dunkels <adam@sics.se>
  40:Libraries/lwip-1.4.0/core/tcp.c ****  *
  41:Libraries/lwip-1.4.0/core/tcp.c ****  */
  42:Libraries/lwip-1.4.0/core/tcp.c **** 
  43:Libraries/lwip-1.4.0/core/tcp.c **** #include "lwip/opt.h"
  44:Libraries/lwip-1.4.0/core/tcp.c **** 
  45:Libraries/lwip-1.4.0/core/tcp.c **** #if LWIP_TCP /* don't build if not configured for use in lwipopts.h */
  46:Libraries/lwip-1.4.0/core/tcp.c **** 
  47:Libraries/lwip-1.4.0/core/tcp.c **** #include "lwip/def.h"
  48:Libraries/lwip-1.4.0/core/tcp.c **** #include "lwip/mem.h"
  49:Libraries/lwip-1.4.0/core/tcp.c **** #include "lwip/memp.h"
  50:Libraries/lwip-1.4.0/core/tcp.c **** #include "lwip/snmp.h"
  51:Libraries/lwip-1.4.0/core/tcp.c **** #include "lwip/tcp.h"
  52:Libraries/lwip-1.4.0/core/tcp.c **** #include "lwip/tcp_impl.h"
  53:Libraries/lwip-1.4.0/core/tcp.c **** #include "lwip/debug.h"
  54:Libraries/lwip-1.4.0/core/tcp.c **** #include "lwip/stats.h"
  55:Libraries/lwip-1.4.0/core/tcp.c **** 
  56:Libraries/lwip-1.4.0/core/tcp.c **** #include <string.h>
  57:Libraries/lwip-1.4.0/core/tcp.c **** 
  58:Libraries/lwip-1.4.0/core/tcp.c **** const char * const tcp_state_str[] = {
  59:Libraries/lwip-1.4.0/core/tcp.c ****   "CLOSED",      
  60:Libraries/lwip-1.4.0/core/tcp.c ****   "LISTEN",      
  61:Libraries/lwip-1.4.0/core/tcp.c ****   "SYN_SENT",    
  62:Libraries/lwip-1.4.0/core/tcp.c ****   "SYN_RCVD",    
  63:Libraries/lwip-1.4.0/core/tcp.c ****   "ESTABLISHED", 
  64:Libraries/lwip-1.4.0/core/tcp.c ****   "FIN_WAIT_1",  
  65:Libraries/lwip-1.4.0/core/tcp.c ****   "FIN_WAIT_2",  
  66:Libraries/lwip-1.4.0/core/tcp.c ****   "CLOSE_WAIT",  
  67:Libraries/lwip-1.4.0/core/tcp.c ****   "CLOSING",     
  68:Libraries/lwip-1.4.0/core/tcp.c ****   "LAST_ACK",    
  69:Libraries/lwip-1.4.0/core/tcp.c ****   "TIME_WAIT"   
  70:Libraries/lwip-1.4.0/core/tcp.c **** };
  71:Libraries/lwip-1.4.0/core/tcp.c **** 
  72:Libraries/lwip-1.4.0/core/tcp.c **** /* Incremented every coarse grained timer shot (typically every 500 ms). */
  73:Libraries/lwip-1.4.0/core/tcp.c **** u32_t tcp_ticks;
  74:Libraries/lwip-1.4.0/core/tcp.c **** const u8_t tcp_backoff[13] =
  75:Libraries/lwip-1.4.0/core/tcp.c ****     { 1, 2, 3, 4, 5, 6, 7, 7, 7, 7, 7, 7, 7};
  76:Libraries/lwip-1.4.0/core/tcp.c ****  /* Times per slowtmr hits */
  77:Libraries/lwip-1.4.0/core/tcp.c **** const u8_t tcp_persist_backoff[7] = { 3, 6, 12, 24, 48, 96, 120 };
  78:Libraries/lwip-1.4.0/core/tcp.c **** 
  79:Libraries/lwip-1.4.0/core/tcp.c **** /* The TCP PCB lists. */
  80:Libraries/lwip-1.4.0/core/tcp.c **** 
  81:Libraries/lwip-1.4.0/core/tcp.c **** /** List of all TCP PCBs bound but not yet (connected || listening) */
  82:Libraries/lwip-1.4.0/core/tcp.c **** struct tcp_pcb *tcp_bound_pcbs;
  83:Libraries/lwip-1.4.0/core/tcp.c **** /** List of all TCP PCBs in LISTEN state */
  84:Libraries/lwip-1.4.0/core/tcp.c **** union tcp_listen_pcbs_t tcp_listen_pcbs;
  85:Libraries/lwip-1.4.0/core/tcp.c **** /** List of all TCP PCBs that are in a state in which
  86:Libraries/lwip-1.4.0/core/tcp.c ****  * they accept or send data. */
  87:Libraries/lwip-1.4.0/core/tcp.c **** struct tcp_pcb *tcp_active_pcbs;
  88:Libraries/lwip-1.4.0/core/tcp.c **** /** List of all TCP PCBs in TIME-WAIT state */
  89:Libraries/lwip-1.4.0/core/tcp.c **** struct tcp_pcb *tcp_tw_pcbs;
  90:Libraries/lwip-1.4.0/core/tcp.c **** 
  91:Libraries/lwip-1.4.0/core/tcp.c **** #define NUM_TCP_PCB_LISTS               4
  92:Libraries/lwip-1.4.0/core/tcp.c **** #define NUM_TCP_PCB_LISTS_NO_TIME_WAIT  3
  93:Libraries/lwip-1.4.0/core/tcp.c **** /** An array with all (non-temporary) PCB lists, mainly used for smaller code size */
  94:Libraries/lwip-1.4.0/core/tcp.c **** struct tcp_pcb ** const tcp_pcb_lists[] = {&tcp_listen_pcbs.pcbs, &tcp_bound_pcbs,
  95:Libraries/lwip-1.4.0/core/tcp.c ****   &tcp_active_pcbs, &tcp_tw_pcbs};
  96:Libraries/lwip-1.4.0/core/tcp.c **** 
  97:Libraries/lwip-1.4.0/core/tcp.c **** /** Only used for temporary storage. */
  98:Libraries/lwip-1.4.0/core/tcp.c **** struct tcp_pcb *tcp_tmp_pcb;
  99:Libraries/lwip-1.4.0/core/tcp.c **** 
 100:Libraries/lwip-1.4.0/core/tcp.c **** /** Timer counter to handle calling slow-timer from tcp_tmr() */ 
 101:Libraries/lwip-1.4.0/core/tcp.c **** static u8_t tcp_timer;
 102:Libraries/lwip-1.4.0/core/tcp.c **** static u16_t tcp_new_port(void);
 103:Libraries/lwip-1.4.0/core/tcp.c **** 
 104:Libraries/lwip-1.4.0/core/tcp.c **** /**
 105:Libraries/lwip-1.4.0/core/tcp.c ****  * Called periodically to dispatch TCP timers.
 106:Libraries/lwip-1.4.0/core/tcp.c ****  *
 107:Libraries/lwip-1.4.0/core/tcp.c ****  */
 108:Libraries/lwip-1.4.0/core/tcp.c **** void
 109:Libraries/lwip-1.4.0/core/tcp.c **** tcp_tmr(void)
 110:Libraries/lwip-1.4.0/core/tcp.c **** {
 132              		.loc 1 110 0
 133              		.cfi_startproc
 134              		@ args = 0, pretend = 0, frame = 0
 135              		@ frame_needed = 1, uses_anonymous_args = 0
 136 0000 80B5     		push	{r7, lr}
 137              		.cfi_def_cfa_offset 8
 138              		.cfi_offset 7, -8
 139              		.cfi_offset 14, -4
 140 0002 00AF     		add	r7, sp, #0
 141              		.cfi_def_cfa_register 7
 111:Libraries/lwip-1.4.0/core/tcp.c ****   /* Call tcp_fasttmr() every 250 ms */
 112:Libraries/lwip-1.4.0/core/tcp.c ****   tcp_fasttmr();
 142              		.loc 1 112 0
 143 0004 FFF7FEFF 		bl	tcp_fasttmr
 113:Libraries/lwip-1.4.0/core/tcp.c **** 
 114:Libraries/lwip-1.4.0/core/tcp.c ****   if (++tcp_timer & 1) {
 144              		.loc 1 114 0
 145 0008 074B     		ldr	r3, .L4
 146 000a 1B78     		ldrb	r3, [r3]	@ zero_extendqisi2
 147 000c 0133     		adds	r3, r3, #1
 148 000e DAB2     		uxtb	r2, r3
 149 0010 054B     		ldr	r3, .L4
 150 0012 1A70     		strb	r2, [r3]
 151 0014 044B     		ldr	r3, .L4
 152 0016 1B78     		ldrb	r3, [r3]	@ zero_extendqisi2
 153 0018 03F00103 		and	r3, r3, #1
 154 001c 002B     		cmp	r3, #0
 155 001e 01D0     		beq	.L3
 115:Libraries/lwip-1.4.0/core/tcp.c ****     /* Call tcp_tmr() every 500 ms, i.e., every other timer
 116:Libraries/lwip-1.4.0/core/tcp.c ****        tcp_tmr() is called. */
 117:Libraries/lwip-1.4.0/core/tcp.c ****     tcp_slowtmr();
 156              		.loc 1 117 0
 157 0020 FFF7FEFF 		bl	tcp_slowtmr
 158              	.L3:
 118:Libraries/lwip-1.4.0/core/tcp.c ****   }
 119:Libraries/lwip-1.4.0/core/tcp.c **** }
 159              		.loc 1 119 0
 160 0024 00BF     		nop
 161 0026 80BD     		pop	{r7, pc}
 162              	.L5:
 163              		.align	2
 164              	.L4:
 165 0028 00000000 		.word	tcp_timer
 166              		.cfi_endproc
 167              	.LFE17:
 169              		.section	.text.tcp_close_shutdown,"ax",%progbits
 170              		.align	2
 171              		.thumb
 172              		.thumb_func
 174              	tcp_close_shutdown:
 175              	.LFB18:
 120:Libraries/lwip-1.4.0/core/tcp.c **** 
 121:Libraries/lwip-1.4.0/core/tcp.c **** /**
 122:Libraries/lwip-1.4.0/core/tcp.c ****  * Closes the TX side of a connection held by the PCB.
 123:Libraries/lwip-1.4.0/core/tcp.c ****  * For tcp_close(), a RST is sent if the application didn't receive all data
 124:Libraries/lwip-1.4.0/core/tcp.c ****  * (tcp_recved() not called for all data passed to recv callback).
 125:Libraries/lwip-1.4.0/core/tcp.c ****  *
 126:Libraries/lwip-1.4.0/core/tcp.c ****  * Listening pcbs are freed and may not be referenced any more.
 127:Libraries/lwip-1.4.0/core/tcp.c ****  * Connection pcbs are freed if not yet connected and may not be referenced
 128:Libraries/lwip-1.4.0/core/tcp.c ****  * any more. If a connection is established (at least SYN received or in
 129:Libraries/lwip-1.4.0/core/tcp.c ****  * a closing state), the connection is closed, and put in a closing state.
 130:Libraries/lwip-1.4.0/core/tcp.c ****  * The pcb is then automatically freed in tcp_slowtmr(). It is therefore
 131:Libraries/lwip-1.4.0/core/tcp.c ****  * unsafe to reference it.
 132:Libraries/lwip-1.4.0/core/tcp.c ****  *
 133:Libraries/lwip-1.4.0/core/tcp.c ****  * @param pcb the tcp_pcb to close
 134:Libraries/lwip-1.4.0/core/tcp.c ****  * @return ERR_OK if connection has been closed
 135:Libraries/lwip-1.4.0/core/tcp.c ****  *         another err_t if closing failed and pcb is not freed
 136:Libraries/lwip-1.4.0/core/tcp.c ****  */
 137:Libraries/lwip-1.4.0/core/tcp.c **** static err_t
 138:Libraries/lwip-1.4.0/core/tcp.c **** tcp_close_shutdown(struct tcp_pcb *pcb, u8_t rst_on_unacked_data)
 139:Libraries/lwip-1.4.0/core/tcp.c **** {
 176              		.loc 1 139 0
 177              		.cfi_startproc
 178              		@ args = 0, pretend = 0, frame = 16
 179              		@ frame_needed = 1, uses_anonymous_args = 0
 180 0000 B0B5     		push	{r4, r5, r7, lr}
 181              		.cfi_def_cfa_offset 16
 182              		.cfi_offset 4, -16
 183              		.cfi_offset 5, -12
 184              		.cfi_offset 7, -8
 185              		.cfi_offset 14, -4
 186 0002 86B0     		sub	sp, sp, #24
 187              		.cfi_def_cfa_offset 40
 188 0004 02AF     		add	r7, sp, #8
 189              		.cfi_def_cfa 7, 32
 190 0006 7860     		str	r0, [r7, #4]
 191 0008 0B46     		mov	r3, r1
 192 000a FB70     		strb	r3, [r7, #3]
 140:Libraries/lwip-1.4.0/core/tcp.c ****   err_t err;
 141:Libraries/lwip-1.4.0/core/tcp.c **** 
 142:Libraries/lwip-1.4.0/core/tcp.c ****   if (rst_on_unacked_data && (pcb->state != LISTEN)) {
 193              		.loc 1 142 0
 194 000c FB78     		ldrb	r3, [r7, #3]	@ zero_extendqisi2
 195 000e 002B     		cmp	r3, #0
 196 0010 57D0     		beq	.L7
 197              		.loc 1 142 0 is_stmt 0 discriminator 1
 198 0012 7B68     		ldr	r3, [r7, #4]
 199 0014 1B7C     		ldrb	r3, [r3, #16]	@ zero_extendqisi2
 200 0016 012B     		cmp	r3, #1
 201 0018 53D0     		beq	.L7
 143:Libraries/lwip-1.4.0/core/tcp.c ****     if ((pcb->refused_data != NULL) || (pcb->rcv_wnd != TCP_WND)) {
 202              		.loc 1 143 0 is_stmt 1
 203 001a 7B68     		ldr	r3, [r7, #4]
 204 001c D3F88030 		ldr	r3, [r3, #128]
 205 0020 002B     		cmp	r3, #0
 206 0022 04D1     		bne	.L8
 207              		.loc 1 143 0 is_stmt 0 discriminator 1
 208 0024 7B68     		ldr	r3, [r7, #4]
 209 0026 1B8D     		ldrh	r3, [r3, #40]
 210 0028 B3F5066F 		cmp	r3, #2144
 211 002c 49D0     		beq	.L7
 212              	.L8:
 144:Libraries/lwip-1.4.0/core/tcp.c ****       /* Not all data received by application, send RST to tell the remote
 145:Libraries/lwip-1.4.0/core/tcp.c ****          side about this. */
 146:Libraries/lwip-1.4.0/core/tcp.c ****       LWIP_ASSERT("pcb->flags & TF_RXCLOSED", pcb->flags & TF_RXCLOSED);
 147:Libraries/lwip-1.4.0/core/tcp.c **** 
 148:Libraries/lwip-1.4.0/core/tcp.c ****       /* don't call tcp_abort here: we must not deallocate the pcb since
 149:Libraries/lwip-1.4.0/core/tcp.c ****          that might not be expected when calling tcp_close */
 150:Libraries/lwip-1.4.0/core/tcp.c ****       tcp_rst(pcb->snd_nxt, pcb->rcv_nxt, &pcb->local_ip, &pcb->remote_ip,
 213              		.loc 1 150 0 is_stmt 1
 214 002e 7B68     		ldr	r3, [r7, #4]
 215 0030 986D     		ldr	r0, [r3, #88]
 216 0032 7B68     		ldr	r3, [r7, #4]
 217 0034 596A     		ldr	r1, [r3, #36]
 218 0036 7C68     		ldr	r4, [r7, #4]
 219 0038 7B68     		ldr	r3, [r7, #4]
 220 003a 1D1D     		adds	r5, r3, #4
 221 003c 7B68     		ldr	r3, [r7, #4]
 222 003e 9B8B     		ldrh	r3, [r3, #28]
 223 0040 7A68     		ldr	r2, [r7, #4]
 224 0042 D28B     		ldrh	r2, [r2, #30]
 225 0044 0192     		str	r2, [sp, #4]
 226 0046 0093     		str	r3, [sp]
 227 0048 2B46     		mov	r3, r5
 228 004a 2246     		mov	r2, r4
 229 004c FFF7FEFF 		bl	tcp_rst
 151:Libraries/lwip-1.4.0/core/tcp.c ****         pcb->local_port, pcb->remote_port);
 152:Libraries/lwip-1.4.0/core/tcp.c **** 
 153:Libraries/lwip-1.4.0/core/tcp.c ****       tcp_pcb_purge(pcb);
 230              		.loc 1 153 0
 231 0050 7868     		ldr	r0, [r7, #4]
 232 0052 FFF7FEFF 		bl	tcp_pcb_purge
 154:Libraries/lwip-1.4.0/core/tcp.c **** 
 155:Libraries/lwip-1.4.0/core/tcp.c ****       /* TODO: to which state do we move now? */
 156:Libraries/lwip-1.4.0/core/tcp.c **** 
 157:Libraries/lwip-1.4.0/core/tcp.c ****       /* move to TIME_WAIT since we close actively */
 158:Libraries/lwip-1.4.0/core/tcp.c ****       TCP_RMV(&tcp_active_pcbs, pcb);
 233              		.loc 1 158 0
 234 0056 6B4B     		ldr	r3, .L37
 235 0058 1A68     		ldr	r2, [r3]
 236 005a 7B68     		ldr	r3, [r7, #4]
 237 005c 9A42     		cmp	r2, r3
 238 005e 05D1     		bne	.L9
 239              		.loc 1 158 0 is_stmt 0 discriminator 1
 240 0060 684B     		ldr	r3, .L37
 241 0062 1B68     		ldr	r3, [r3]
 242 0064 DB68     		ldr	r3, [r3, #12]
 243 0066 674A     		ldr	r2, .L37
 244 0068 1360     		str	r3, [r2]
 245 006a 19E0     		b	.L10
 246              	.L9:
 247              		.loc 1 158 0 discriminator 2
 248 006c 654B     		ldr	r3, .L37
 249 006e 1B68     		ldr	r3, [r3]
 250 0070 654A     		ldr	r2, .L37+4
 251 0072 1360     		str	r3, [r2]
 252 0074 10E0     		b	.L11
 253              	.L13:
 254              		.loc 1 158 0 discriminator 9
 255 0076 644B     		ldr	r3, .L37+4
 256 0078 1B68     		ldr	r3, [r3]
 257 007a DA68     		ldr	r2, [r3, #12]
 258 007c 7B68     		ldr	r3, [r7, #4]
 259 007e 9A42     		cmp	r2, r3
 260 0080 05D1     		bne	.L12
 261              		.loc 1 158 0 discriminator 5
 262 0082 614B     		ldr	r3, .L37+4
 263 0084 1B68     		ldr	r3, [r3]
 264 0086 7A68     		ldr	r2, [r7, #4]
 265 0088 D268     		ldr	r2, [r2, #12]
 266 008a DA60     		str	r2, [r3, #12]
 267 008c 08E0     		b	.L10
 268              	.L12:
 269              		.loc 1 158 0 discriminator 6
 270 008e 5E4B     		ldr	r3, .L37+4
 271 0090 1B68     		ldr	r3, [r3]
 272 0092 DB68     		ldr	r3, [r3, #12]
 273 0094 5C4A     		ldr	r2, .L37+4
 274 0096 1360     		str	r3, [r2]
 275              	.L11:
 276              		.loc 1 158 0 discriminator 8
 277 0098 5B4B     		ldr	r3, .L37+4
 278 009a 1B68     		ldr	r3, [r3]
 279 009c 002B     		cmp	r3, #0
 280 009e EAD1     		bne	.L13
 281              	.L10:
 282              		.loc 1 158 0 discriminator 10
 283 00a0 7B68     		ldr	r3, [r7, #4]
 284 00a2 0022     		movs	r2, #0
 285 00a4 DA60     		str	r2, [r3, #12]
 159:Libraries/lwip-1.4.0/core/tcp.c ****       pcb->state = TIME_WAIT;
 286              		.loc 1 159 0 is_stmt 1 discriminator 10
 287 00a6 7B68     		ldr	r3, [r7, #4]
 288 00a8 0A22     		movs	r2, #10
 289 00aa 1A74     		strb	r2, [r3, #16]
 160:Libraries/lwip-1.4.0/core/tcp.c ****       TCP_REG(&tcp_tw_pcbs, pcb);
 290              		.loc 1 160 0 discriminator 10
 291 00ac 574B     		ldr	r3, .L37+8
 292 00ae 1A68     		ldr	r2, [r3]
 293 00b0 7B68     		ldr	r3, [r7, #4]
 294 00b2 DA60     		str	r2, [r3, #12]
 295 00b4 554A     		ldr	r2, .L37+8
 296 00b6 7B68     		ldr	r3, [r7, #4]
 297 00b8 1360     		str	r3, [r2]
 298 00ba FFF7FEFF 		bl	tcp_timer_needed
 161:Libraries/lwip-1.4.0/core/tcp.c **** 
 162:Libraries/lwip-1.4.0/core/tcp.c ****       return ERR_OK;
 299              		.loc 1 162 0 discriminator 10
 300 00be 0023     		movs	r3, #0
 301 00c0 9CE0     		b	.L14
 302              	.L7:
 163:Libraries/lwip-1.4.0/core/tcp.c ****     }
 164:Libraries/lwip-1.4.0/core/tcp.c ****   }
 165:Libraries/lwip-1.4.0/core/tcp.c **** 
 166:Libraries/lwip-1.4.0/core/tcp.c ****   switch (pcb->state) {
 303              		.loc 1 166 0
 304 00c2 7B68     		ldr	r3, [r7, #4]
 305 00c4 1B7C     		ldrb	r3, [r3, #16]	@ zero_extendqisi2
 306 00c6 072B     		cmp	r3, #7
 307 00c8 00F28480 		bhi	.L15
 308 00cc 01A2     		adr	r2, .L17
 309 00ce 52F823F0 		ldr	pc, [r2, r3, lsl #2]
 310 00d2 00BF     		.p2align 2
 311              	.L17:
 312 00d4 F5000000 		.word	.L16+1
 313 00d8 5F010000 		.word	.L18+1
 314 00dc 79010000 		.word	.L19+1
 315 00e0 93010000 		.word	.L20+1
 316 00e4 A9010000 		.word	.L21+1
 317 00e8 D5010000 		.word	.L15+1
 318 00ec D5010000 		.word	.L15+1
 319 00f0 BF010000 		.word	.L22+1
 320              		.p2align 1
 321              	.L16:
 167:Libraries/lwip-1.4.0/core/tcp.c ****   case CLOSED:
 168:Libraries/lwip-1.4.0/core/tcp.c ****     /* Closing a pcb in the CLOSED state might seem erroneous,
 169:Libraries/lwip-1.4.0/core/tcp.c ****      * however, it is in this state once allocated and as yet unused
 170:Libraries/lwip-1.4.0/core/tcp.c ****      * and the user needs some way to free it should the need arise.
 171:Libraries/lwip-1.4.0/core/tcp.c ****      * Calling tcp_close() with a pcb that has already been closed, (i.e. twice)
 172:Libraries/lwip-1.4.0/core/tcp.c ****      * or for a pcb that has been used and then entered the CLOSED state 
 173:Libraries/lwip-1.4.0/core/tcp.c ****      * is erroneous, but this should never happen as the pcb has in those cases
 174:Libraries/lwip-1.4.0/core/tcp.c ****      * been freed, and so any remaining handles are bogus. */
 175:Libraries/lwip-1.4.0/core/tcp.c ****     err = ERR_OK;
 322              		.loc 1 175 0
 323 00f4 0023     		movs	r3, #0
 324 00f6 FB60     		str	r3, [r7, #12]
 176:Libraries/lwip-1.4.0/core/tcp.c ****     if (pcb->local_port != 0) {
 325              		.loc 1 176 0
 326 00f8 7B68     		ldr	r3, [r7, #4]
 327 00fa 9B8B     		ldrh	r3, [r3, #28]
 328 00fc 002B     		cmp	r3, #0
 329 00fe 27D0     		beq	.L23
 177:Libraries/lwip-1.4.0/core/tcp.c ****       TCP_RMV(&tcp_bound_pcbs, pcb);
 330              		.loc 1 177 0
 331 0100 434B     		ldr	r3, .L37+12
 332 0102 1A68     		ldr	r2, [r3]
 333 0104 7B68     		ldr	r3, [r7, #4]
 334 0106 9A42     		cmp	r2, r3
 335 0108 05D1     		bne	.L24
 336              		.loc 1 177 0 is_stmt 0 discriminator 1
 337 010a 414B     		ldr	r3, .L37+12
 338 010c 1B68     		ldr	r3, [r3]
 339 010e DB68     		ldr	r3, [r3, #12]
 340 0110 3F4A     		ldr	r2, .L37+12
 341 0112 1360     		str	r3, [r2]
 342 0114 19E0     		b	.L25
 343              	.L24:
 344              		.loc 1 177 0 discriminator 2
 345 0116 3E4B     		ldr	r3, .L37+12
 346 0118 1B68     		ldr	r3, [r3]
 347 011a 3B4A     		ldr	r2, .L37+4
 348 011c 1360     		str	r3, [r2]
 349 011e 10E0     		b	.L26
 350              	.L28:
 351              		.loc 1 177 0 discriminator 9
 352 0120 394B     		ldr	r3, .L37+4
 353 0122 1B68     		ldr	r3, [r3]
 354 0124 DA68     		ldr	r2, [r3, #12]
 355 0126 7B68     		ldr	r3, [r7, #4]
 356 0128 9A42     		cmp	r2, r3
 357 012a 05D1     		bne	.L27
 358              		.loc 1 177 0 discriminator 5
 359 012c 364B     		ldr	r3, .L37+4
 360 012e 1B68     		ldr	r3, [r3]
 361 0130 7A68     		ldr	r2, [r7, #4]
 362 0132 D268     		ldr	r2, [r2, #12]
 363 0134 DA60     		str	r2, [r3, #12]
 364 0136 08E0     		b	.L25
 365              	.L27:
 366              		.loc 1 177 0 discriminator 6
 367 0138 334B     		ldr	r3, .L37+4
 368 013a 1B68     		ldr	r3, [r3]
 369 013c DB68     		ldr	r3, [r3, #12]
 370 013e 324A     		ldr	r2, .L37+4
 371 0140 1360     		str	r3, [r2]
 372              	.L26:
 373              		.loc 1 177 0 discriminator 8
 374 0142 314B     		ldr	r3, .L37+4
 375 0144 1B68     		ldr	r3, [r3]
 376 0146 002B     		cmp	r3, #0
 377 0148 EAD1     		bne	.L28
 378              	.L25:
 379              		.loc 1 177 0 discriminator 10
 380 014a 7B68     		ldr	r3, [r7, #4]
 381 014c 0022     		movs	r2, #0
 382 014e DA60     		str	r2, [r3, #12]
 383              	.L23:
 178:Libraries/lwip-1.4.0/core/tcp.c ****     }
 179:Libraries/lwip-1.4.0/core/tcp.c ****     memp_free(MEMP_TCP_PCB, pcb);
 384              		.loc 1 179 0 is_stmt 1
 385 0150 7968     		ldr	r1, [r7, #4]
 386 0152 0220     		movs	r0, #2
 387 0154 FFF7FEFF 		bl	memp_free
 180:Libraries/lwip-1.4.0/core/tcp.c ****     pcb = NULL;
 388              		.loc 1 180 0
 389 0158 0023     		movs	r3, #0
 390 015a 7B60     		str	r3, [r7, #4]
 181:Libraries/lwip-1.4.0/core/tcp.c ****     break;
 391              		.loc 1 181 0
 392 015c 44E0     		b	.L29
 393              	.L18:
 182:Libraries/lwip-1.4.0/core/tcp.c ****   case LISTEN:
 183:Libraries/lwip-1.4.0/core/tcp.c ****     err = ERR_OK;
 394              		.loc 1 183 0
 395 015e 0023     		movs	r3, #0
 396 0160 FB60     		str	r3, [r7, #12]
 184:Libraries/lwip-1.4.0/core/tcp.c ****     tcp_pcb_remove(&tcp_listen_pcbs.pcbs, pcb);
 397              		.loc 1 184 0
 398 0162 7968     		ldr	r1, [r7, #4]
 399 0164 2B48     		ldr	r0, .L37+16
 400 0166 FFF7FEFF 		bl	tcp_pcb_remove
 185:Libraries/lwip-1.4.0/core/tcp.c ****     memp_free(MEMP_TCP_PCB_LISTEN, pcb);
 401              		.loc 1 185 0
 402 016a 7968     		ldr	r1, [r7, #4]
 403 016c 0320     		movs	r0, #3
 404 016e FFF7FEFF 		bl	memp_free
 186:Libraries/lwip-1.4.0/core/tcp.c ****     pcb = NULL;
 405              		.loc 1 186 0
 406 0172 0023     		movs	r3, #0
 407 0174 7B60     		str	r3, [r7, #4]
 187:Libraries/lwip-1.4.0/core/tcp.c ****     break;
 408              		.loc 1 187 0
 409 0176 37E0     		b	.L29
 410              	.L19:
 188:Libraries/lwip-1.4.0/core/tcp.c ****   case SYN_SENT:
 189:Libraries/lwip-1.4.0/core/tcp.c ****     err = ERR_OK;
 411              		.loc 1 189 0
 412 0178 0023     		movs	r3, #0
 413 017a FB60     		str	r3, [r7, #12]
 190:Libraries/lwip-1.4.0/core/tcp.c ****     tcp_pcb_remove(&tcp_active_pcbs, pcb);
 414              		.loc 1 190 0
 415 017c 7968     		ldr	r1, [r7, #4]
 416 017e 2148     		ldr	r0, .L37
 417 0180 FFF7FEFF 		bl	tcp_pcb_remove
 191:Libraries/lwip-1.4.0/core/tcp.c ****     memp_free(MEMP_TCP_PCB, pcb);
 418              		.loc 1 191 0
 419 0184 7968     		ldr	r1, [r7, #4]
 420 0186 0220     		movs	r0, #2
 421 0188 FFF7FEFF 		bl	memp_free
 192:Libraries/lwip-1.4.0/core/tcp.c ****     pcb = NULL;
 422              		.loc 1 192 0
 423 018c 0023     		movs	r3, #0
 424 018e 7B60     		str	r3, [r7, #4]
 193:Libraries/lwip-1.4.0/core/tcp.c ****     snmp_inc_tcpattemptfails();
 194:Libraries/lwip-1.4.0/core/tcp.c ****     break;
 425              		.loc 1 194 0
 426 0190 2AE0     		b	.L29
 427              	.L20:
 195:Libraries/lwip-1.4.0/core/tcp.c ****   case SYN_RCVD:
 196:Libraries/lwip-1.4.0/core/tcp.c ****     err = tcp_send_fin(pcb);
 428              		.loc 1 196 0
 429 0192 7868     		ldr	r0, [r7, #4]
 430 0194 FFF7FEFF 		bl	tcp_send_fin
 431 0198 F860     		str	r0, [r7, #12]
 197:Libraries/lwip-1.4.0/core/tcp.c ****     if (err == ERR_OK) {
 432              		.loc 1 197 0
 433 019a FB68     		ldr	r3, [r7, #12]
 434 019c 002B     		cmp	r3, #0
 435 019e 1ED1     		bne	.L34
 198:Libraries/lwip-1.4.0/core/tcp.c ****       snmp_inc_tcpattemptfails();
 199:Libraries/lwip-1.4.0/core/tcp.c ****       pcb->state = FIN_WAIT_1;
 436              		.loc 1 199 0
 437 01a0 7B68     		ldr	r3, [r7, #4]
 438 01a2 0522     		movs	r2, #5
 439 01a4 1A74     		strb	r2, [r3, #16]
 200:Libraries/lwip-1.4.0/core/tcp.c ****     }
 201:Libraries/lwip-1.4.0/core/tcp.c ****     break;
 440              		.loc 1 201 0
 441 01a6 1AE0     		b	.L34
 442              	.L21:
 202:Libraries/lwip-1.4.0/core/tcp.c ****   case ESTABLISHED:
 203:Libraries/lwip-1.4.0/core/tcp.c ****     err = tcp_send_fin(pcb);
 443              		.loc 1 203 0
 444 01a8 7868     		ldr	r0, [r7, #4]
 445 01aa FFF7FEFF 		bl	tcp_send_fin
 446 01ae F860     		str	r0, [r7, #12]
 204:Libraries/lwip-1.4.0/core/tcp.c ****     if (err == ERR_OK) {
 447              		.loc 1 204 0
 448 01b0 FB68     		ldr	r3, [r7, #12]
 449 01b2 002B     		cmp	r3, #0
 450 01b4 15D1     		bne	.L35
 205:Libraries/lwip-1.4.0/core/tcp.c ****       snmp_inc_tcpestabresets();
 206:Libraries/lwip-1.4.0/core/tcp.c ****       pcb->state = FIN_WAIT_1;
 451              		.loc 1 206 0
 452 01b6 7B68     		ldr	r3, [r7, #4]
 453 01b8 0522     		movs	r2, #5
 454 01ba 1A74     		strb	r2, [r3, #16]
 207:Libraries/lwip-1.4.0/core/tcp.c ****     }
 208:Libraries/lwip-1.4.0/core/tcp.c ****     break;
 455              		.loc 1 208 0
 456 01bc 11E0     		b	.L35
 457              	.L22:
 209:Libraries/lwip-1.4.0/core/tcp.c ****   case CLOSE_WAIT:
 210:Libraries/lwip-1.4.0/core/tcp.c ****     err = tcp_send_fin(pcb);
 458              		.loc 1 210 0
 459 01be 7868     		ldr	r0, [r7, #4]
 460 01c0 FFF7FEFF 		bl	tcp_send_fin
 461 01c4 F860     		str	r0, [r7, #12]
 211:Libraries/lwip-1.4.0/core/tcp.c ****     if (err == ERR_OK) {
 462              		.loc 1 211 0
 463 01c6 FB68     		ldr	r3, [r7, #12]
 464 01c8 002B     		cmp	r3, #0
 465 01ca 0CD1     		bne	.L36
 212:Libraries/lwip-1.4.0/core/tcp.c ****       snmp_inc_tcpestabresets();
 213:Libraries/lwip-1.4.0/core/tcp.c ****       pcb->state = LAST_ACK;
 466              		.loc 1 213 0
 467 01cc 7B68     		ldr	r3, [r7, #4]
 468 01ce 0922     		movs	r2, #9
 469 01d0 1A74     		strb	r2, [r3, #16]
 214:Libraries/lwip-1.4.0/core/tcp.c ****     }
 215:Libraries/lwip-1.4.0/core/tcp.c ****     break;
 470              		.loc 1 215 0
 471 01d2 08E0     		b	.L36
 472              	.L15:
 216:Libraries/lwip-1.4.0/core/tcp.c ****   default:
 217:Libraries/lwip-1.4.0/core/tcp.c ****     /* Has already been closed, do nothing. */
 218:Libraries/lwip-1.4.0/core/tcp.c ****     err = ERR_OK;
 473              		.loc 1 218 0
 474 01d4 0023     		movs	r3, #0
 475 01d6 FB60     		str	r3, [r7, #12]
 219:Libraries/lwip-1.4.0/core/tcp.c ****     pcb = NULL;
 476              		.loc 1 219 0
 477 01d8 0023     		movs	r3, #0
 478 01da 7B60     		str	r3, [r7, #4]
 220:Libraries/lwip-1.4.0/core/tcp.c ****     break;
 479              		.loc 1 220 0
 480 01dc 04E0     		b	.L29
 481              	.L34:
 201:Libraries/lwip-1.4.0/core/tcp.c ****   case ESTABLISHED:
 482              		.loc 1 201 0
 483 01de 00BF     		nop
 484 01e0 02E0     		b	.L29
 485              	.L35:
 208:Libraries/lwip-1.4.0/core/tcp.c ****   case CLOSE_WAIT:
 486              		.loc 1 208 0
 487 01e2 00BF     		nop
 488 01e4 00E0     		b	.L29
 489              	.L36:
 215:Libraries/lwip-1.4.0/core/tcp.c ****   default:
 490              		.loc 1 215 0
 491 01e6 00BF     		nop
 492              	.L29:
 221:Libraries/lwip-1.4.0/core/tcp.c ****   }
 222:Libraries/lwip-1.4.0/core/tcp.c **** 
 223:Libraries/lwip-1.4.0/core/tcp.c ****   if (pcb != NULL && err == ERR_OK) {
 493              		.loc 1 223 0
 494 01e8 7B68     		ldr	r3, [r7, #4]
 495 01ea 002B     		cmp	r3, #0
 496 01ec 05D0     		beq	.L33
 497              		.loc 1 223 0 is_stmt 0 discriminator 1
 498 01ee FB68     		ldr	r3, [r7, #12]
 499 01f0 002B     		cmp	r3, #0
 500 01f2 02D1     		bne	.L33
 224:Libraries/lwip-1.4.0/core/tcp.c ****     /* To ensure all data has been sent when tcp_close returns, we have
 225:Libraries/lwip-1.4.0/core/tcp.c ****        to make sure tcp_output doesn't fail.
 226:Libraries/lwip-1.4.0/core/tcp.c ****        Since we don't really have to ensure all data has been sent when tcp_close
 227:Libraries/lwip-1.4.0/core/tcp.c ****        returns (unsent data is sent from tcp timer functions, also), we don't care
 228:Libraries/lwip-1.4.0/core/tcp.c ****        for the return value of tcp_output for now. */
 229:Libraries/lwip-1.4.0/core/tcp.c ****     /* @todo: When implementing SO_LINGER, this must be changed somehow:
 230:Libraries/lwip-1.4.0/core/tcp.c ****        If SOF_LINGER is set, the data should be sent and acked before close returns.
 231:Libraries/lwip-1.4.0/core/tcp.c ****        This can only be valid for sequential APIs, not for the raw API. */
 232:Libraries/lwip-1.4.0/core/tcp.c ****     tcp_output(pcb);
 501              		.loc 1 232 0 is_stmt 1
 502 01f4 7868     		ldr	r0, [r7, #4]
 503 01f6 FFF7FEFF 		bl	tcp_output
 504              	.L33:
 233:Libraries/lwip-1.4.0/core/tcp.c ****   }
 234:Libraries/lwip-1.4.0/core/tcp.c ****   return err;
 505              		.loc 1 234 0
 506 01fa FB68     		ldr	r3, [r7, #12]
 507              	.L14:
 235:Libraries/lwip-1.4.0/core/tcp.c **** }
 508              		.loc 1 235 0
 509 01fc 1846     		mov	r0, r3
 510 01fe 1037     		adds	r7, r7, #16
 511              		.cfi_def_cfa_offset 16
 512 0200 BD46     		mov	sp, r7
 513              		.cfi_def_cfa_register 13
 514              		@ sp needed
 515 0202 B0BD     		pop	{r4, r5, r7, pc}
 516              	.L38:
 517              		.align	2
 518              	.L37:
 519 0204 00000000 		.word	tcp_active_pcbs
 520 0208 00000000 		.word	tcp_tmp_pcb
 521 020c 00000000 		.word	tcp_tw_pcbs
 522 0210 00000000 		.word	tcp_bound_pcbs
 523 0214 00000000 		.word	tcp_listen_pcbs
 524              		.cfi_endproc
 525              	.LFE18:
 527              		.section	.text.tcp_close,"ax",%progbits
 528              		.align	2
 529              		.global	tcp_close
 530              		.thumb
 531              		.thumb_func
 533              	tcp_close:
 534              	.LFB19:
 236:Libraries/lwip-1.4.0/core/tcp.c **** 
 237:Libraries/lwip-1.4.0/core/tcp.c **** /**
 238:Libraries/lwip-1.4.0/core/tcp.c ****  * Closes the connection held by the PCB.
 239:Libraries/lwip-1.4.0/core/tcp.c ****  *
 240:Libraries/lwip-1.4.0/core/tcp.c ****  * Listening pcbs are freed and may not be referenced any more.
 241:Libraries/lwip-1.4.0/core/tcp.c ****  * Connection pcbs are freed if not yet connected and may not be referenced
 242:Libraries/lwip-1.4.0/core/tcp.c ****  * any more. If a connection is established (at least SYN received or in
 243:Libraries/lwip-1.4.0/core/tcp.c ****  * a closing state), the connection is closed, and put in a closing state.
 244:Libraries/lwip-1.4.0/core/tcp.c ****  * The pcb is then automatically freed in tcp_slowtmr(). It is therefore
 245:Libraries/lwip-1.4.0/core/tcp.c ****  * unsafe to reference it (unless an error is returned).
 246:Libraries/lwip-1.4.0/core/tcp.c ****  *
 247:Libraries/lwip-1.4.0/core/tcp.c ****  * @param pcb the tcp_pcb to close
 248:Libraries/lwip-1.4.0/core/tcp.c ****  * @return ERR_OK if connection has been closed
 249:Libraries/lwip-1.4.0/core/tcp.c ****  *         another err_t if closing failed and pcb is not freed
 250:Libraries/lwip-1.4.0/core/tcp.c ****  */
 251:Libraries/lwip-1.4.0/core/tcp.c **** err_t
 252:Libraries/lwip-1.4.0/core/tcp.c **** tcp_close(struct tcp_pcb *pcb)
 253:Libraries/lwip-1.4.0/core/tcp.c **** {
 535              		.loc 1 253 0
 536              		.cfi_startproc
 537              		@ args = 0, pretend = 0, frame = 8
 538              		@ frame_needed = 1, uses_anonymous_args = 0
 539 0000 80B5     		push	{r7, lr}
 540              		.cfi_def_cfa_offset 8
 541              		.cfi_offset 7, -8
 542              		.cfi_offset 14, -4
 543 0002 82B0     		sub	sp, sp, #8
 544              		.cfi_def_cfa_offset 16
 545 0004 00AF     		add	r7, sp, #0
 546              		.cfi_def_cfa_register 7
 547 0006 7860     		str	r0, [r7, #4]
 254:Libraries/lwip-1.4.0/core/tcp.c **** #if TCP_DEBUG
 255:Libraries/lwip-1.4.0/core/tcp.c ****   LWIP_DEBUGF(TCP_DEBUG, ("tcp_close: closing in "));
 256:Libraries/lwip-1.4.0/core/tcp.c ****   tcp_debug_print_state(pcb->state);
 257:Libraries/lwip-1.4.0/core/tcp.c **** #endif /* TCP_DEBUG */
 258:Libraries/lwip-1.4.0/core/tcp.c **** 
 259:Libraries/lwip-1.4.0/core/tcp.c ****   if (pcb->state != LISTEN) {
 548              		.loc 1 259 0
 549 0008 7B68     		ldr	r3, [r7, #4]
 550 000a 1B7C     		ldrb	r3, [r3, #16]	@ zero_extendqisi2
 551 000c 012B     		cmp	r3, #1
 552 000e 08D0     		beq	.L40
 260:Libraries/lwip-1.4.0/core/tcp.c ****     /* Set a flag not to receive any more data... */
 261:Libraries/lwip-1.4.0/core/tcp.c ****     pcb->flags |= TF_RXCLOSED;
 553              		.loc 1 261 0
 554 0010 7B68     		ldr	r3, [r7, #4]
 555 0012 93F82030 		ldrb	r3, [r3, #32]	@ zero_extendqisi2
 556 0016 43F01003 		orr	r3, r3, #16
 557 001a DAB2     		uxtb	r2, r3
 558 001c 7B68     		ldr	r3, [r7, #4]
 559 001e 83F82020 		strb	r2, [r3, #32]
 560              	.L40:
 262:Libraries/lwip-1.4.0/core/tcp.c ****   }
 263:Libraries/lwip-1.4.0/core/tcp.c ****   /* ... and close */
 264:Libraries/lwip-1.4.0/core/tcp.c ****   return tcp_close_shutdown(pcb, 1);
 561              		.loc 1 264 0
 562 0022 0121     		movs	r1, #1
 563 0024 7868     		ldr	r0, [r7, #4]
 564 0026 FFF7FEFF 		bl	tcp_close_shutdown
 565 002a 0346     		mov	r3, r0
 265:Libraries/lwip-1.4.0/core/tcp.c **** }
 566              		.loc 1 265 0
 567 002c 1846     		mov	r0, r3
 568 002e 0837     		adds	r7, r7, #8
 569              		.cfi_def_cfa_offset 8
 570 0030 BD46     		mov	sp, r7
 571              		.cfi_def_cfa_register 13
 572              		@ sp needed
 573 0032 80BD     		pop	{r7, pc}
 574              		.cfi_endproc
 575              	.LFE19:
 577              		.section	.text.tcp_shutdown,"ax",%progbits
 578              		.align	2
 579              		.global	tcp_shutdown
 580              		.thumb
 581              		.thumb_func
 583              	tcp_shutdown:
 584              	.LFB20:
 266:Libraries/lwip-1.4.0/core/tcp.c **** 
 267:Libraries/lwip-1.4.0/core/tcp.c **** /**
 268:Libraries/lwip-1.4.0/core/tcp.c ****  * Causes all or part of a full-duplex connection of this PCB to be shut down.
 269:Libraries/lwip-1.4.0/core/tcp.c ****  * This doesn't deallocate the PCB!
 270:Libraries/lwip-1.4.0/core/tcp.c ****  *
 271:Libraries/lwip-1.4.0/core/tcp.c ****  * @param pcb PCB to shutdown
 272:Libraries/lwip-1.4.0/core/tcp.c ****  * @param shut_rx shut down receive side if this is != 0
 273:Libraries/lwip-1.4.0/core/tcp.c ****  * @param shut_tx shut down send side if this is != 0
 274:Libraries/lwip-1.4.0/core/tcp.c ****  * @return ERR_OK if shutdown succeeded (or the PCB has already been shut down)
 275:Libraries/lwip-1.4.0/core/tcp.c ****  *         another err_t on error.
 276:Libraries/lwip-1.4.0/core/tcp.c ****  */
 277:Libraries/lwip-1.4.0/core/tcp.c **** err_t
 278:Libraries/lwip-1.4.0/core/tcp.c **** tcp_shutdown(struct tcp_pcb *pcb, int shut_rx, int shut_tx)
 279:Libraries/lwip-1.4.0/core/tcp.c **** {
 585              		.loc 1 279 0
 586              		.cfi_startproc
 587              		@ args = 0, pretend = 0, frame = 16
 588              		@ frame_needed = 1, uses_anonymous_args = 0
 589 0000 80B5     		push	{r7, lr}
 590              		.cfi_def_cfa_offset 8
 591              		.cfi_offset 7, -8
 592              		.cfi_offset 14, -4
 593 0002 84B0     		sub	sp, sp, #16
 594              		.cfi_def_cfa_offset 24
 595 0004 00AF     		add	r7, sp, #0
 596              		.cfi_def_cfa_register 7
 597 0006 F860     		str	r0, [r7, #12]
 598 0008 B960     		str	r1, [r7, #8]
 599 000a 7A60     		str	r2, [r7, #4]
 280:Libraries/lwip-1.4.0/core/tcp.c ****   if (pcb->state == LISTEN) {
 600              		.loc 1 280 0
 601 000c FB68     		ldr	r3, [r7, #12]
 602 000e 1B7C     		ldrb	r3, [r3, #16]	@ zero_extendqisi2
 603 0010 012B     		cmp	r3, #1
 604 0012 02D1     		bne	.L43
 281:Libraries/lwip-1.4.0/core/tcp.c ****     return ERR_CONN;
 605              		.loc 1 281 0
 606 0014 6FF00C03 		mvn	r3, #12
 607 0018 2EE0     		b	.L44
 608              	.L43:
 282:Libraries/lwip-1.4.0/core/tcp.c ****   }
 283:Libraries/lwip-1.4.0/core/tcp.c ****   if (shut_rx) {
 609              		.loc 1 283 0
 610 001a BB68     		ldr	r3, [r7, #8]
 611 001c 002B     		cmp	r3, #0
 612 001e 17D0     		beq	.L45
 284:Libraries/lwip-1.4.0/core/tcp.c ****     /* shut down the receive side: free buffered data... */
 285:Libraries/lwip-1.4.0/core/tcp.c ****     if (pcb->refused_data != NULL) {
 613              		.loc 1 285 0
 614 0020 FB68     		ldr	r3, [r7, #12]
 615 0022 D3F88030 		ldr	r3, [r3, #128]
 616 0026 002B     		cmp	r3, #0
 617 0028 09D0     		beq	.L46
 286:Libraries/lwip-1.4.0/core/tcp.c ****       pbuf_free(pcb->refused_data);
 618              		.loc 1 286 0
 619 002a FB68     		ldr	r3, [r7, #12]
 620 002c D3F88030 		ldr	r3, [r3, #128]
 621 0030 1846     		mov	r0, r3
 622 0032 FFF7FEFF 		bl	pbuf_free
 287:Libraries/lwip-1.4.0/core/tcp.c ****       pcb->refused_data = NULL;
 623              		.loc 1 287 0
 624 0036 FB68     		ldr	r3, [r7, #12]
 625 0038 0022     		movs	r2, #0
 626 003a C3F88020 		str	r2, [r3, #128]
 627              	.L46:
 288:Libraries/lwip-1.4.0/core/tcp.c ****     }
 289:Libraries/lwip-1.4.0/core/tcp.c ****     /* ... and set a flag not to receive any more data */
 290:Libraries/lwip-1.4.0/core/tcp.c ****     pcb->flags |= TF_RXCLOSED;
 628              		.loc 1 290 0
 629 003e FB68     		ldr	r3, [r7, #12]
 630 0040 93F82030 		ldrb	r3, [r3, #32]	@ zero_extendqisi2
 631 0044 43F01003 		orr	r3, r3, #16
 632 0048 DAB2     		uxtb	r2, r3
 633 004a FB68     		ldr	r3, [r7, #12]
 634 004c 83F82020 		strb	r2, [r3, #32]
 635              	.L45:
 291:Libraries/lwip-1.4.0/core/tcp.c ****   }
 292:Libraries/lwip-1.4.0/core/tcp.c ****   if (shut_tx) {
 636              		.loc 1 292 0
 637 0050 7B68     		ldr	r3, [r7, #4]
 638 0052 002B     		cmp	r3, #0
 639 0054 0FD0     		beq	.L47
 293:Libraries/lwip-1.4.0/core/tcp.c ****     /* This can't happen twice since if it succeeds, the pcb's state is changed.
 294:Libraries/lwip-1.4.0/core/tcp.c ****        Only close in these states as the others directly deallocate the PCB */
 295:Libraries/lwip-1.4.0/core/tcp.c ****     switch (pcb->state) {
 640              		.loc 1 295 0
 641 0056 FB68     		ldr	r3, [r7, #12]
 642 0058 1B7C     		ldrb	r3, [r3, #16]	@ zero_extendqisi2
 643 005a 032B     		cmp	r3, #3
 644 005c 0ADB     		blt	.L50
 645 005e 042B     		cmp	r3, #4
 646 0060 02DD     		ble	.L49
 647 0062 072B     		cmp	r3, #7
 648 0064 00D0     		beq	.L49
 296:Libraries/lwip-1.4.0/core/tcp.c ****   case SYN_RCVD:
 297:Libraries/lwip-1.4.0/core/tcp.c ****   case ESTABLISHED:
 298:Libraries/lwip-1.4.0/core/tcp.c ****   case CLOSE_WAIT:
 299:Libraries/lwip-1.4.0/core/tcp.c ****     return tcp_close_shutdown(pcb, 0);
 300:Libraries/lwip-1.4.0/core/tcp.c ****   default:
 301:Libraries/lwip-1.4.0/core/tcp.c ****     /* don't shut down other states */
 302:Libraries/lwip-1.4.0/core/tcp.c ****     break;
 649              		.loc 1 302 0
 650 0066 05E0     		b	.L50
 651              	.L49:
 299:Libraries/lwip-1.4.0/core/tcp.c ****   default:
 652              		.loc 1 299 0
 653 0068 0021     		movs	r1, #0
 654 006a F868     		ldr	r0, [r7, #12]
 655 006c FFF7FEFF 		bl	tcp_close_shutdown
 656 0070 0346     		mov	r3, r0
 657 0072 01E0     		b	.L44
 658              	.L50:
 659              		.loc 1 302 0
 660 0074 00BF     		nop
 661              	.L47:
 303:Libraries/lwip-1.4.0/core/tcp.c ****     }
 304:Libraries/lwip-1.4.0/core/tcp.c ****   }
 305:Libraries/lwip-1.4.0/core/tcp.c ****   /* @todo: return another err_t if not in correct state or already shut? */
 306:Libraries/lwip-1.4.0/core/tcp.c ****   return ERR_OK;
 662              		.loc 1 306 0
 663 0076 0023     		movs	r3, #0
 664              	.L44:
 307:Libraries/lwip-1.4.0/core/tcp.c **** }
 665              		.loc 1 307 0
 666 0078 1846     		mov	r0, r3
 667 007a 1037     		adds	r7, r7, #16
 668              		.cfi_def_cfa_offset 8
 669 007c BD46     		mov	sp, r7
 670              		.cfi_def_cfa_register 13
 671              		@ sp needed
 672 007e 80BD     		pop	{r7, pc}
 673              		.cfi_endproc
 674              	.LFE20:
 676              		.section	.text.tcp_abandon,"ax",%progbits
 677              		.align	2
 678              		.global	tcp_abandon
 679              		.thumb
 680              		.thumb_func
 682              	tcp_abandon:
 683              	.LFB21:
 308:Libraries/lwip-1.4.0/core/tcp.c **** 
 309:Libraries/lwip-1.4.0/core/tcp.c **** /**
 310:Libraries/lwip-1.4.0/core/tcp.c ****  * Abandons a connection and optionally sends a RST to the remote
 311:Libraries/lwip-1.4.0/core/tcp.c ****  * host.  Deletes the local protocol control block. This is done when
 312:Libraries/lwip-1.4.0/core/tcp.c ****  * a connection is killed because of shortage of memory.
 313:Libraries/lwip-1.4.0/core/tcp.c ****  *
 314:Libraries/lwip-1.4.0/core/tcp.c ****  * @param pcb the tcp_pcb to abort
 315:Libraries/lwip-1.4.0/core/tcp.c ****  * @param reset boolean to indicate whether a reset should be sent
 316:Libraries/lwip-1.4.0/core/tcp.c ****  */
 317:Libraries/lwip-1.4.0/core/tcp.c **** void
 318:Libraries/lwip-1.4.0/core/tcp.c **** tcp_abandon(struct tcp_pcb *pcb, int reset)
 319:Libraries/lwip-1.4.0/core/tcp.c **** {
 684              		.loc 1 319 0
 685              		.cfi_startproc
 686              		@ args = 0, pretend = 0, frame = 40
 687              		@ frame_needed = 1, uses_anonymous_args = 0
 688 0000 80B5     		push	{r7, lr}
 689              		.cfi_def_cfa_offset 8
 690              		.cfi_offset 7, -8
 691              		.cfi_offset 14, -4
 692 0002 8CB0     		sub	sp, sp, #48
 693              		.cfi_def_cfa_offset 56
 694 0004 02AF     		add	r7, sp, #8
 695              		.cfi_def_cfa 7, 48
 696 0006 7860     		str	r0, [r7, #4]
 697 0008 3960     		str	r1, [r7]
 320:Libraries/lwip-1.4.0/core/tcp.c ****   u32_t seqno, ackno;
 321:Libraries/lwip-1.4.0/core/tcp.c ****   u16_t remote_port, local_port;
 322:Libraries/lwip-1.4.0/core/tcp.c ****   ip_addr_t remote_ip, local_ip;
 323:Libraries/lwip-1.4.0/core/tcp.c **** #if LWIP_CALLBACK_API  
 324:Libraries/lwip-1.4.0/core/tcp.c ****   tcp_err_fn errf;
 325:Libraries/lwip-1.4.0/core/tcp.c **** #endif /* LWIP_CALLBACK_API */
 326:Libraries/lwip-1.4.0/core/tcp.c ****   void *errf_arg;
 327:Libraries/lwip-1.4.0/core/tcp.c **** 
 328:Libraries/lwip-1.4.0/core/tcp.c ****   /* pcb->state LISTEN not allowed here */
 329:Libraries/lwip-1.4.0/core/tcp.c ****   LWIP_ASSERT("don't call tcp_abort/tcp_abandon for listen-pcbs",
 330:Libraries/lwip-1.4.0/core/tcp.c ****     pcb->state != LISTEN);
 331:Libraries/lwip-1.4.0/core/tcp.c ****   /* Figure out on which TCP PCB list we are, and remove us. If we
 332:Libraries/lwip-1.4.0/core/tcp.c ****      are in an active state, call the receive function associated with
 333:Libraries/lwip-1.4.0/core/tcp.c ****      the PCB with a NULL argument, and send an RST to the remote end. */
 334:Libraries/lwip-1.4.0/core/tcp.c ****   if (pcb->state == TIME_WAIT) {
 698              		.loc 1 334 0
 699 000a 7B68     		ldr	r3, [r7, #4]
 700 000c 1B7C     		ldrb	r3, [r3, #16]	@ zero_extendqisi2
 701 000e 0A2B     		cmp	r3, #10
 702 0010 08D1     		bne	.L52
 335:Libraries/lwip-1.4.0/core/tcp.c ****     tcp_pcb_remove(&tcp_tw_pcbs, pcb);
 703              		.loc 1 335 0
 704 0012 7968     		ldr	r1, [r7, #4]
 705 0014 2F48     		ldr	r0, .L59
 706 0016 FFF7FEFF 		bl	tcp_pcb_remove
 336:Libraries/lwip-1.4.0/core/tcp.c ****     memp_free(MEMP_TCP_PCB, pcb);
 707              		.loc 1 336 0
 708 001a 7968     		ldr	r1, [r7, #4]
 709 001c 0220     		movs	r0, #2
 710 001e FFF7FEFF 		bl	memp_free
 337:Libraries/lwip-1.4.0/core/tcp.c ****   } else {
 338:Libraries/lwip-1.4.0/core/tcp.c ****     seqno = pcb->snd_nxt;
 339:Libraries/lwip-1.4.0/core/tcp.c ****     ackno = pcb->rcv_nxt;
 340:Libraries/lwip-1.4.0/core/tcp.c ****     ip_addr_copy(local_ip, pcb->local_ip);
 341:Libraries/lwip-1.4.0/core/tcp.c ****     ip_addr_copy(remote_ip, pcb->remote_ip);
 342:Libraries/lwip-1.4.0/core/tcp.c ****     local_port = pcb->local_port;
 343:Libraries/lwip-1.4.0/core/tcp.c ****     remote_port = pcb->remote_port;
 344:Libraries/lwip-1.4.0/core/tcp.c **** #if LWIP_CALLBACK_API
 345:Libraries/lwip-1.4.0/core/tcp.c ****     errf = pcb->errf;
 346:Libraries/lwip-1.4.0/core/tcp.c **** #endif /* LWIP_CALLBACK_API */
 347:Libraries/lwip-1.4.0/core/tcp.c ****     errf_arg = pcb->callback_arg;
 348:Libraries/lwip-1.4.0/core/tcp.c ****     tcp_pcb_remove(&tcp_active_pcbs, pcb);
 349:Libraries/lwip-1.4.0/core/tcp.c ****     if (pcb->unacked != NULL) {
 350:Libraries/lwip-1.4.0/core/tcp.c ****       tcp_segs_free(pcb->unacked);
 351:Libraries/lwip-1.4.0/core/tcp.c ****     }
 352:Libraries/lwip-1.4.0/core/tcp.c ****     if (pcb->unsent != NULL) {
 353:Libraries/lwip-1.4.0/core/tcp.c ****       tcp_segs_free(pcb->unsent);
 354:Libraries/lwip-1.4.0/core/tcp.c ****     }
 355:Libraries/lwip-1.4.0/core/tcp.c **** #if TCP_QUEUE_OOSEQ    
 356:Libraries/lwip-1.4.0/core/tcp.c ****     if (pcb->ooseq != NULL) {
 357:Libraries/lwip-1.4.0/core/tcp.c ****       tcp_segs_free(pcb->ooseq);
 358:Libraries/lwip-1.4.0/core/tcp.c ****     }
 359:Libraries/lwip-1.4.0/core/tcp.c **** #endif /* TCP_QUEUE_OOSEQ */
 360:Libraries/lwip-1.4.0/core/tcp.c ****     memp_free(MEMP_TCP_PCB, pcb);
 361:Libraries/lwip-1.4.0/core/tcp.c ****     TCP_EVENT_ERR(errf, errf_arg, ERR_ABRT);
 362:Libraries/lwip-1.4.0/core/tcp.c ****     if (reset) {
 363:Libraries/lwip-1.4.0/core/tcp.c ****       LWIP_DEBUGF(TCP_RST_DEBUG, ("tcp_abandon: sending RST\n"));
 364:Libraries/lwip-1.4.0/core/tcp.c ****       tcp_rst(seqno, ackno, &local_ip, &remote_ip, local_port, remote_port);
 365:Libraries/lwip-1.4.0/core/tcp.c ****     }
 366:Libraries/lwip-1.4.0/core/tcp.c ****   }
 367:Libraries/lwip-1.4.0/core/tcp.c **** }
 711              		.loc 1 367 0
 712 0022 53E0     		b	.L58
 713              	.L52:
 338:Libraries/lwip-1.4.0/core/tcp.c ****     ackno = pcb->rcv_nxt;
 714              		.loc 1 338 0
 715 0024 7B68     		ldr	r3, [r7, #4]
 716 0026 9B6D     		ldr	r3, [r3, #88]
 717 0028 7B62     		str	r3, [r7, #36]
 339:Libraries/lwip-1.4.0/core/tcp.c ****     ip_addr_copy(local_ip, pcb->local_ip);
 718              		.loc 1 339 0
 719 002a 7B68     		ldr	r3, [r7, #4]
 720 002c 5B6A     		ldr	r3, [r3, #36]
 721 002e 3B62     		str	r3, [r7, #32]
 340:Libraries/lwip-1.4.0/core/tcp.c ****     ip_addr_copy(remote_ip, pcb->remote_ip);
 722              		.loc 1 340 0
 723 0030 7B68     		ldr	r3, [r7, #4]
 724 0032 1B68     		ldr	r3, [r3]
 725 0034 FB60     		str	r3, [r7, #12]
 341:Libraries/lwip-1.4.0/core/tcp.c ****     local_port = pcb->local_port;
 726              		.loc 1 341 0
 727 0036 7B68     		ldr	r3, [r7, #4]
 728 0038 5B68     		ldr	r3, [r3, #4]
 729 003a 3B61     		str	r3, [r7, #16]
 342:Libraries/lwip-1.4.0/core/tcp.c ****     remote_port = pcb->remote_port;
 730              		.loc 1 342 0
 731 003c 7B68     		ldr	r3, [r7, #4]
 732 003e 9B8B     		ldrh	r3, [r3, #28]	@ movhi
 733 0040 FB83     		strh	r3, [r7, #30]	@ movhi
 343:Libraries/lwip-1.4.0/core/tcp.c **** #if LWIP_CALLBACK_API
 734              		.loc 1 343 0
 735 0042 7B68     		ldr	r3, [r7, #4]
 736 0044 DB8B     		ldrh	r3, [r3, #30]	@ movhi
 737 0046 BB83     		strh	r3, [r7, #28]	@ movhi
 345:Libraries/lwip-1.4.0/core/tcp.c **** #endif /* LWIP_CALLBACK_API */
 738              		.loc 1 345 0
 739 0048 7B68     		ldr	r3, [r7, #4]
 740 004a D3F89430 		ldr	r3, [r3, #148]
 741 004e BB61     		str	r3, [r7, #24]
 347:Libraries/lwip-1.4.0/core/tcp.c ****     tcp_pcb_remove(&tcp_active_pcbs, pcb);
 742              		.loc 1 347 0
 743 0050 7B68     		ldr	r3, [r7, #4]
 744 0052 5B69     		ldr	r3, [r3, #20]
 745 0054 7B61     		str	r3, [r7, #20]
 348:Libraries/lwip-1.4.0/core/tcp.c ****     if (pcb->unacked != NULL) {
 746              		.loc 1 348 0
 747 0056 7968     		ldr	r1, [r7, #4]
 748 0058 1F48     		ldr	r0, .L59+4
 749 005a FFF7FEFF 		bl	tcp_pcb_remove
 349:Libraries/lwip-1.4.0/core/tcp.c ****       tcp_segs_free(pcb->unacked);
 750              		.loc 1 349 0
 751 005e 7B68     		ldr	r3, [r7, #4]
 752 0060 9B6F     		ldr	r3, [r3, #120]
 753 0062 002B     		cmp	r3, #0
 754 0064 04D0     		beq	.L54
 350:Libraries/lwip-1.4.0/core/tcp.c ****     }
 755              		.loc 1 350 0
 756 0066 7B68     		ldr	r3, [r7, #4]
 757 0068 9B6F     		ldr	r3, [r3, #120]
 758 006a 1846     		mov	r0, r3
 759 006c FFF7FEFF 		bl	tcp_segs_free
 760              	.L54:
 352:Libraries/lwip-1.4.0/core/tcp.c ****       tcp_segs_free(pcb->unsent);
 761              		.loc 1 352 0
 762 0070 7B68     		ldr	r3, [r7, #4]
 763 0072 5B6F     		ldr	r3, [r3, #116]
 764 0074 002B     		cmp	r3, #0
 765 0076 04D0     		beq	.L55
 353:Libraries/lwip-1.4.0/core/tcp.c ****     }
 766              		.loc 1 353 0
 767 0078 7B68     		ldr	r3, [r7, #4]
 768 007a 5B6F     		ldr	r3, [r3, #116]
 769 007c 1846     		mov	r0, r3
 770 007e FFF7FEFF 		bl	tcp_segs_free
 771              	.L55:
 356:Libraries/lwip-1.4.0/core/tcp.c ****       tcp_segs_free(pcb->ooseq);
 772              		.loc 1 356 0
 773 0082 7B68     		ldr	r3, [r7, #4]
 774 0084 DB6F     		ldr	r3, [r3, #124]
 775 0086 002B     		cmp	r3, #0
 776 0088 04D0     		beq	.L56
 357:Libraries/lwip-1.4.0/core/tcp.c ****     }
 777              		.loc 1 357 0
 778 008a 7B68     		ldr	r3, [r7, #4]
 779 008c DB6F     		ldr	r3, [r3, #124]
 780 008e 1846     		mov	r0, r3
 781 0090 FFF7FEFF 		bl	tcp_segs_free
 782              	.L56:
 360:Libraries/lwip-1.4.0/core/tcp.c ****     TCP_EVENT_ERR(errf, errf_arg, ERR_ABRT);
 783              		.loc 1 360 0
 784 0094 7968     		ldr	r1, [r7, #4]
 785 0096 0220     		movs	r0, #2
 786 0098 FFF7FEFF 		bl	memp_free
 361:Libraries/lwip-1.4.0/core/tcp.c ****     if (reset) {
 787              		.loc 1 361 0
 788 009c BB69     		ldr	r3, [r7, #24]
 789 009e 002B     		cmp	r3, #0
 790 00a0 04D0     		beq	.L57
 361:Libraries/lwip-1.4.0/core/tcp.c ****     if (reset) {
 791              		.loc 1 361 0 is_stmt 0 discriminator 1
 792 00a2 BB69     		ldr	r3, [r7, #24]
 793 00a4 6FF00901 		mvn	r1, #9
 794 00a8 7869     		ldr	r0, [r7, #20]
 795 00aa 9847     		blx	r3
 796              	.L57:
 362:Libraries/lwip-1.4.0/core/tcp.c ****       LWIP_DEBUGF(TCP_RST_DEBUG, ("tcp_abandon: sending RST\n"));
 797              		.loc 1 362 0 is_stmt 1
 798 00ac 3B68     		ldr	r3, [r7]
 799 00ae 002B     		cmp	r3, #0
 800 00b0 0CD0     		beq	.L58
 364:Libraries/lwip-1.4.0/core/tcp.c ****     }
 801              		.loc 1 364 0
 802 00b2 07F11001 		add	r1, r7, #16
 803 00b6 07F10C02 		add	r2, r7, #12
 804 00ba BB8B     		ldrh	r3, [r7, #28]
 805 00bc 0193     		str	r3, [sp, #4]
 806 00be FB8B     		ldrh	r3, [r7, #30]
 807 00c0 0093     		str	r3, [sp]
 808 00c2 0B46     		mov	r3, r1
 809 00c4 396A     		ldr	r1, [r7, #32]
 810 00c6 786A     		ldr	r0, [r7, #36]
 811 00c8 FFF7FEFF 		bl	tcp_rst
 812              	.L58:
 813              		.loc 1 367 0
 814 00cc 00BF     		nop
 815 00ce 2837     		adds	r7, r7, #40
 816              		.cfi_def_cfa_offset 8
 817 00d0 BD46     		mov	sp, r7
 818              		.cfi_def_cfa_register 13
 819              		@ sp needed
 820 00d2 80BD     		pop	{r7, pc}
 821              	.L60:
 822              		.align	2
 823              	.L59:
 824 00d4 00000000 		.word	tcp_tw_pcbs
 825 00d8 00000000 		.word	tcp_active_pcbs
 826              		.cfi_endproc
 827              	.LFE21:
 829              		.section	.text.tcp_abort,"ax",%progbits
 830              		.align	2
 831              		.global	tcp_abort
 832              		.thumb
 833              		.thumb_func
 835              	tcp_abort:
 836              	.LFB22:
 368:Libraries/lwip-1.4.0/core/tcp.c **** 
 369:Libraries/lwip-1.4.0/core/tcp.c **** /**
 370:Libraries/lwip-1.4.0/core/tcp.c ****  * Aborts the connection by sending a RST (reset) segment to the remote
 371:Libraries/lwip-1.4.0/core/tcp.c ****  * host. The pcb is deallocated. This function never fails.
 372:Libraries/lwip-1.4.0/core/tcp.c ****  *
 373:Libraries/lwip-1.4.0/core/tcp.c ****  * ATTENTION: When calling this from one of the TCP callbacks, make
 374:Libraries/lwip-1.4.0/core/tcp.c ****  * sure you always return ERR_ABRT (and never return ERR_ABRT otherwise
 375:Libraries/lwip-1.4.0/core/tcp.c ****  * or you will risk accessing deallocated memory or memory leaks!
 376:Libraries/lwip-1.4.0/core/tcp.c ****  *
 377:Libraries/lwip-1.4.0/core/tcp.c ****  * @param pcb the tcp pcb to abort
 378:Libraries/lwip-1.4.0/core/tcp.c ****  */
 379:Libraries/lwip-1.4.0/core/tcp.c **** void
 380:Libraries/lwip-1.4.0/core/tcp.c **** tcp_abort(struct tcp_pcb *pcb)
 381:Libraries/lwip-1.4.0/core/tcp.c **** {
 837              		.loc 1 381 0
 838              		.cfi_startproc
 839              		@ args = 0, pretend = 0, frame = 8
 840              		@ frame_needed = 1, uses_anonymous_args = 0
 841 0000 80B5     		push	{r7, lr}
 842              		.cfi_def_cfa_offset 8
 843              		.cfi_offset 7, -8
 844              		.cfi_offset 14, -4
 845 0002 82B0     		sub	sp, sp, #8
 846              		.cfi_def_cfa_offset 16
 847 0004 00AF     		add	r7, sp, #0
 848              		.cfi_def_cfa_register 7
 849 0006 7860     		str	r0, [r7, #4]
 382:Libraries/lwip-1.4.0/core/tcp.c ****   tcp_abandon(pcb, 1);
 850              		.loc 1 382 0
 851 0008 0121     		movs	r1, #1
 852 000a 7868     		ldr	r0, [r7, #4]
 853 000c FFF7FEFF 		bl	tcp_abandon
 383:Libraries/lwip-1.4.0/core/tcp.c **** }
 854              		.loc 1 383 0
 855 0010 00BF     		nop
 856 0012 0837     		adds	r7, r7, #8
 857              		.cfi_def_cfa_offset 8
 858 0014 BD46     		mov	sp, r7
 859              		.cfi_def_cfa_register 13
 860              		@ sp needed
 861 0016 80BD     		pop	{r7, pc}
 862              		.cfi_endproc
 863              	.LFE22:
 865              		.section	.text.tcp_bind,"ax",%progbits
 866              		.align	2
 867              		.global	tcp_bind
 868              		.thumb
 869              		.thumb_func
 871              	tcp_bind:
 872              	.LFB23:
 384:Libraries/lwip-1.4.0/core/tcp.c **** 
 385:Libraries/lwip-1.4.0/core/tcp.c **** /**
 386:Libraries/lwip-1.4.0/core/tcp.c ****  * Binds the connection to a local portnumber and IP address. If the
 387:Libraries/lwip-1.4.0/core/tcp.c ****  * IP address is not given (i.e., ipaddr == NULL), the IP address of
 388:Libraries/lwip-1.4.0/core/tcp.c ****  * the outgoing network interface is used instead.
 389:Libraries/lwip-1.4.0/core/tcp.c ****  *
 390:Libraries/lwip-1.4.0/core/tcp.c ****  * @param pcb the tcp_pcb to bind (no check is done whether this pcb is
 391:Libraries/lwip-1.4.0/core/tcp.c ****  *        already bound!)
 392:Libraries/lwip-1.4.0/core/tcp.c ****  * @param ipaddr the local ip address to bind to (use IP_ADDR_ANY to bind
 393:Libraries/lwip-1.4.0/core/tcp.c ****  *        to any local address
 394:Libraries/lwip-1.4.0/core/tcp.c ****  * @param port the local port to bind to
 395:Libraries/lwip-1.4.0/core/tcp.c ****  * @return ERR_USE if the port is already in use
 396:Libraries/lwip-1.4.0/core/tcp.c ****  *         ERR_VAL if bind failed because the PCB is not in a valid state
 397:Libraries/lwip-1.4.0/core/tcp.c ****  *         ERR_OK if bound
 398:Libraries/lwip-1.4.0/core/tcp.c ****  */
 399:Libraries/lwip-1.4.0/core/tcp.c **** err_t
 400:Libraries/lwip-1.4.0/core/tcp.c **** tcp_bind(struct tcp_pcb *pcb, ip_addr_t *ipaddr, u16_t port)
 401:Libraries/lwip-1.4.0/core/tcp.c **** {
 873              		.loc 1 401 0
 874              		.cfi_startproc
 875              		@ args = 0, pretend = 0, frame = 32
 876              		@ frame_needed = 1, uses_anonymous_args = 0
 877 0000 80B5     		push	{r7, lr}
 878              		.cfi_def_cfa_offset 8
 879              		.cfi_offset 7, -8
 880              		.cfi_offset 14, -4
 881 0002 88B0     		sub	sp, sp, #32
 882              		.cfi_def_cfa_offset 40
 883 0004 00AF     		add	r7, sp, #0
 884              		.cfi_def_cfa_register 7
 885 0006 F860     		str	r0, [r7, #12]
 886 0008 B960     		str	r1, [r7, #8]
 887 000a 1346     		mov	r3, r2
 888 000c FB80     		strh	r3, [r7, #6]	@ movhi
 402:Libraries/lwip-1.4.0/core/tcp.c ****   int i;
 403:Libraries/lwip-1.4.0/core/tcp.c ****   int max_pcb_list = NUM_TCP_PCB_LISTS;
 889              		.loc 1 403 0
 890 000e 0423     		movs	r3, #4
 891 0010 7B61     		str	r3, [r7, #20]
 404:Libraries/lwip-1.4.0/core/tcp.c ****   struct tcp_pcb *cpcb;
 405:Libraries/lwip-1.4.0/core/tcp.c **** 
 406:Libraries/lwip-1.4.0/core/tcp.c ****   LWIP_ERROR("tcp_bind: can only bind in state CLOSED", pcb->state == CLOSED, return ERR_VAL);
 892              		.loc 1 406 0
 893 0012 FB68     		ldr	r3, [r7, #12]
 894 0014 1B7C     		ldrb	r3, [r3, #16]	@ zero_extendqisi2
 895 0016 002B     		cmp	r3, #0
 896 0018 02D0     		beq	.L63
 897              		.loc 1 406 0 is_stmt 0 discriminator 1
 898 001a 6FF00503 		mvn	r3, #5
 899 001e 51E0     		b	.L64
 900              	.L63:
 407:Libraries/lwip-1.4.0/core/tcp.c **** 
 408:Libraries/lwip-1.4.0/core/tcp.c **** #if SO_REUSE
 409:Libraries/lwip-1.4.0/core/tcp.c ****   /* Unless the REUSEADDR flag is set,
 410:Libraries/lwip-1.4.0/core/tcp.c ****      we have to check the pcbs in TIME-WAIT state, also.
 411:Libraries/lwip-1.4.0/core/tcp.c ****      We do not dump TIME_WAIT pcb's; they can still be matched by incoming
 412:Libraries/lwip-1.4.0/core/tcp.c ****      packets using both local and remote IP addresses and ports to distinguish.
 413:Libraries/lwip-1.4.0/core/tcp.c ****    */
 414:Libraries/lwip-1.4.0/core/tcp.c ****   if ((pcb->so_options & SOF_REUSEADDR) != 0) {
 415:Libraries/lwip-1.4.0/core/tcp.c ****     max_pcb_list = NUM_TCP_PCB_LISTS_NO_TIME_WAIT;
 416:Libraries/lwip-1.4.0/core/tcp.c ****   }
 417:Libraries/lwip-1.4.0/core/tcp.c **** #endif /* SO_REUSE */
 418:Libraries/lwip-1.4.0/core/tcp.c **** 
 419:Libraries/lwip-1.4.0/core/tcp.c ****   if (port == 0) {
 901              		.loc 1 419 0 is_stmt 1
 902 0020 FB88     		ldrh	r3, [r7, #6]
 903 0022 002B     		cmp	r3, #0
 904 0024 03D1     		bne	.L65
 420:Libraries/lwip-1.4.0/core/tcp.c ****     port = tcp_new_port();
 905              		.loc 1 420 0
 906 0026 FFF7FEFF 		bl	tcp_new_port
 907 002a 0346     		mov	r3, r0
 908 002c FB80     		strh	r3, [r7, #6]	@ movhi
 909              	.L65:
 421:Libraries/lwip-1.4.0/core/tcp.c ****   }
 422:Libraries/lwip-1.4.0/core/tcp.c **** 
 423:Libraries/lwip-1.4.0/core/tcp.c ****   /* Check if the address already is in use (on all lists) */
 424:Libraries/lwip-1.4.0/core/tcp.c ****   for (i = 0; i < max_pcb_list; i++) {
 910              		.loc 1 424 0
 911 002e 0023     		movs	r3, #0
 912 0030 FB61     		str	r3, [r7, #28]
 913 0032 2BE0     		b	.L66
 914              	.L71:
 425:Libraries/lwip-1.4.0/core/tcp.c ****     for(cpcb = *tcp_pcb_lists[i]; cpcb != NULL; cpcb = cpcb->next) {
 915              		.loc 1 425 0
 916 0034 254A     		ldr	r2, .L73
 917 0036 FB69     		ldr	r3, [r7, #28]
 918 0038 52F82330 		ldr	r3, [r2, r3, lsl #2]
 919 003c 1B68     		ldr	r3, [r3]
 920 003e BB61     		str	r3, [r7, #24]
 921 0040 1EE0     		b	.L67
 922              	.L70:
 426:Libraries/lwip-1.4.0/core/tcp.c ****       if (cpcb->local_port == port) {
 923              		.loc 1 426 0
 924 0042 BB69     		ldr	r3, [r7, #24]
 925 0044 9B8B     		ldrh	r3, [r3, #28]
 926 0046 FA88     		ldrh	r2, [r7, #6]
 927 0048 9A42     		cmp	r2, r3
 928 004a 16D1     		bne	.L68
 427:Libraries/lwip-1.4.0/core/tcp.c **** #if SO_REUSE
 428:Libraries/lwip-1.4.0/core/tcp.c ****         /* Omit checking for the same port if both pcbs have REUSEADDR set.
 429:Libraries/lwip-1.4.0/core/tcp.c ****            For SO_REUSEADDR, the duplicate-check for a 5-tuple is done in
 430:Libraries/lwip-1.4.0/core/tcp.c ****            tcp_connect. */
 431:Libraries/lwip-1.4.0/core/tcp.c ****         if (((pcb->so_options & SOF_REUSEADDR) == 0) ||
 432:Libraries/lwip-1.4.0/core/tcp.c ****           ((cpcb->so_options & SOF_REUSEADDR) == 0))
 433:Libraries/lwip-1.4.0/core/tcp.c **** #endif /* SO_REUSE */
 434:Libraries/lwip-1.4.0/core/tcp.c ****         {
 435:Libraries/lwip-1.4.0/core/tcp.c ****           if (ip_addr_isany(&(cpcb->local_ip)) ||
 929              		.loc 1 435 0
 930 004c BB69     		ldr	r3, [r7, #24]
 931 004e 002B     		cmp	r3, #0
 932 0050 10D0     		beq	.L69
 933              		.loc 1 435 0 is_stmt 0 discriminator 1
 934 0052 BB69     		ldr	r3, [r7, #24]
 935 0054 1B68     		ldr	r3, [r3]
 936 0056 002B     		cmp	r3, #0
 937 0058 0CD0     		beq	.L69
 938              		.loc 1 435 0 discriminator 2
 939 005a BB68     		ldr	r3, [r7, #8]
 940 005c 002B     		cmp	r3, #0
 941 005e 09D0     		beq	.L69
 436:Libraries/lwip-1.4.0/core/tcp.c ****               ip_addr_isany(ipaddr) ||
 942              		.loc 1 436 0 is_stmt 1
 943 0060 BB68     		ldr	r3, [r7, #8]
 944 0062 1B68     		ldr	r3, [r3]
 945 0064 002B     		cmp	r3, #0
 946 0066 05D0     		beq	.L69
 437:Libraries/lwip-1.4.0/core/tcp.c ****               ip_addr_cmp(&(cpcb->local_ip), ipaddr)) {
 947              		.loc 1 437 0 discriminator 1
 948 0068 BB69     		ldr	r3, [r7, #24]
 949 006a 1A68     		ldr	r2, [r3]
 950 006c BB68     		ldr	r3, [r7, #8]
 951 006e 1B68     		ldr	r3, [r3]
 436:Libraries/lwip-1.4.0/core/tcp.c ****               ip_addr_isany(ipaddr) ||
 952              		.loc 1 436 0 discriminator 1
 953 0070 9A42     		cmp	r2, r3
 954 0072 02D1     		bne	.L68
 955              	.L69:
 438:Libraries/lwip-1.4.0/core/tcp.c ****             return ERR_USE;
 956              		.loc 1 438 0
 957 0074 6FF00703 		mvn	r3, #7
 958 0078 24E0     		b	.L64
 959              	.L68:
 425:Libraries/lwip-1.4.0/core/tcp.c ****       if (cpcb->local_port == port) {
 960              		.loc 1 425 0 discriminator 2
 961 007a BB69     		ldr	r3, [r7, #24]
 962 007c DB68     		ldr	r3, [r3, #12]
 963 007e BB61     		str	r3, [r7, #24]
 964              	.L67:
 425:Libraries/lwip-1.4.0/core/tcp.c ****       if (cpcb->local_port == port) {
 965              		.loc 1 425 0 is_stmt 0 discriminator 1
 966 0080 BB69     		ldr	r3, [r7, #24]
 967 0082 002B     		cmp	r3, #0
 968 0084 DDD1     		bne	.L70
 424:Libraries/lwip-1.4.0/core/tcp.c ****     for(cpcb = *tcp_pcb_lists[i]; cpcb != NULL; cpcb = cpcb->next) {
 969              		.loc 1 424 0 is_stmt 1 discriminator 2
 970 0086 FB69     		ldr	r3, [r7, #28]
 971 0088 0133     		adds	r3, r3, #1
 972 008a FB61     		str	r3, [r7, #28]
 973              	.L66:
 424:Libraries/lwip-1.4.0/core/tcp.c ****     for(cpcb = *tcp_pcb_lists[i]; cpcb != NULL; cpcb = cpcb->next) {
 974              		.loc 1 424 0 is_stmt 0 discriminator 1
 975 008c FA69     		ldr	r2, [r7, #28]
 976 008e 7B69     		ldr	r3, [r7, #20]
 977 0090 9A42     		cmp	r2, r3
 978 0092 CFDB     		blt	.L71
 439:Libraries/lwip-1.4.0/core/tcp.c ****           }
 440:Libraries/lwip-1.4.0/core/tcp.c ****         }
 441:Libraries/lwip-1.4.0/core/tcp.c ****       }
 442:Libraries/lwip-1.4.0/core/tcp.c ****     }
 443:Libraries/lwip-1.4.0/core/tcp.c ****   }
 444:Libraries/lwip-1.4.0/core/tcp.c **** 
 445:Libraries/lwip-1.4.0/core/tcp.c ****   if (!ip_addr_isany(ipaddr)) {
 979              		.loc 1 445 0 is_stmt 1
 980 0094 BB68     		ldr	r3, [r7, #8]
 981 0096 002B     		cmp	r3, #0
 982 0098 07D0     		beq	.L72
 983              		.loc 1 445 0 is_stmt 0 discriminator 1
 984 009a BB68     		ldr	r3, [r7, #8]
 985 009c 1B68     		ldr	r3, [r3]
 986 009e 002B     		cmp	r3, #0
 987 00a0 03D0     		beq	.L72
 446:Libraries/lwip-1.4.0/core/tcp.c ****     pcb->local_ip = *ipaddr;
 988              		.loc 1 446 0 is_stmt 1
 989 00a2 FB68     		ldr	r3, [r7, #12]
 990 00a4 BA68     		ldr	r2, [r7, #8]
 991 00a6 1268     		ldr	r2, [r2]
 992 00a8 1A60     		str	r2, [r3]
 993              	.L72:
 447:Libraries/lwip-1.4.0/core/tcp.c ****   }
 448:Libraries/lwip-1.4.0/core/tcp.c ****   pcb->local_port = port;
 994              		.loc 1 448 0
 995 00aa FB68     		ldr	r3, [r7, #12]
 996 00ac FA88     		ldrh	r2, [r7, #6]	@ movhi
 997 00ae 9A83     		strh	r2, [r3, #28]	@ movhi
 449:Libraries/lwip-1.4.0/core/tcp.c ****   TCP_REG(&tcp_bound_pcbs, pcb);
 998              		.loc 1 449 0
 999 00b0 074B     		ldr	r3, .L73+4
 1000 00b2 1A68     		ldr	r2, [r3]
 1001 00b4 FB68     		ldr	r3, [r7, #12]
 1002 00b6 DA60     		str	r2, [r3, #12]
 1003 00b8 054A     		ldr	r2, .L73+4
 1004 00ba FB68     		ldr	r3, [r7, #12]
 1005 00bc 1360     		str	r3, [r2]
 1006 00be FFF7FEFF 		bl	tcp_timer_needed
 450:Libraries/lwip-1.4.0/core/tcp.c ****   LWIP_DEBUGF(TCP_DEBUG, ("tcp_bind: bind to port %"U16_F"\n", port));
 451:Libraries/lwip-1.4.0/core/tcp.c ****   return ERR_OK;
 1007              		.loc 1 451 0
 1008 00c2 0023     		movs	r3, #0
 1009              	.L64:
 452:Libraries/lwip-1.4.0/core/tcp.c **** }
 1010              		.loc 1 452 0
 1011 00c4 1846     		mov	r0, r3
 1012 00c6 2037     		adds	r7, r7, #32
 1013              		.cfi_def_cfa_offset 8
 1014 00c8 BD46     		mov	sp, r7
 1015              		.cfi_def_cfa_register 13
 1016              		@ sp needed
 1017 00ca 80BD     		pop	{r7, pc}
 1018              	.L74:
 1019              		.align	2
 1020              	.L73:
 1021 00cc 00000000 		.word	tcp_pcb_lists
 1022 00d0 00000000 		.word	tcp_bound_pcbs
 1023              		.cfi_endproc
 1024              	.LFE23:
 1026              		.section	.text.tcp_accept_null,"ax",%progbits
 1027              		.align	2
 1028              		.thumb
 1029              		.thumb_func
 1031              	tcp_accept_null:
 1032              	.LFB24:
 453:Libraries/lwip-1.4.0/core/tcp.c **** #if LWIP_CALLBACK_API
 454:Libraries/lwip-1.4.0/core/tcp.c **** /**
 455:Libraries/lwip-1.4.0/core/tcp.c ****  * Default accept callback if no accept callback is specified by the user.
 456:Libraries/lwip-1.4.0/core/tcp.c ****  */
 457:Libraries/lwip-1.4.0/core/tcp.c **** static err_t
 458:Libraries/lwip-1.4.0/core/tcp.c **** tcp_accept_null(void *arg, struct tcp_pcb *pcb, err_t err)
 459:Libraries/lwip-1.4.0/core/tcp.c **** {
 1033              		.loc 1 459 0
 1034              		.cfi_startproc
 1035              		@ args = 0, pretend = 0, frame = 16
 1036              		@ frame_needed = 1, uses_anonymous_args = 0
 1037              		@ link register save eliminated.
 1038 0000 80B4     		push	{r7}
 1039              		.cfi_def_cfa_offset 4
 1040              		.cfi_offset 7, -4
 1041 0002 85B0     		sub	sp, sp, #20
 1042              		.cfi_def_cfa_offset 24
 1043 0004 00AF     		add	r7, sp, #0
 1044              		.cfi_def_cfa_register 7
 1045 0006 F860     		str	r0, [r7, #12]
 1046 0008 B960     		str	r1, [r7, #8]
 1047 000a 7A60     		str	r2, [r7, #4]
 460:Libraries/lwip-1.4.0/core/tcp.c ****   LWIP_UNUSED_ARG(arg);
 461:Libraries/lwip-1.4.0/core/tcp.c ****   LWIP_UNUSED_ARG(pcb);
 462:Libraries/lwip-1.4.0/core/tcp.c ****   LWIP_UNUSED_ARG(err);
 463:Libraries/lwip-1.4.0/core/tcp.c **** 
 464:Libraries/lwip-1.4.0/core/tcp.c ****   return ERR_ABRT;
 1048              		.loc 1 464 0
 1049 000c 6FF00903 		mvn	r3, #9
 465:Libraries/lwip-1.4.0/core/tcp.c **** }
 1050              		.loc 1 465 0
 1051 0010 1846     		mov	r0, r3
 1052 0012 1437     		adds	r7, r7, #20
 1053              		.cfi_def_cfa_offset 4
 1054 0014 BD46     		mov	sp, r7
 1055              		.cfi_def_cfa_register 13
 1056              		@ sp needed
 1057 0016 80BC     		pop	{r7}
 1058              		.cfi_restore 7
 1059              		.cfi_def_cfa_offset 0
 1060 0018 7047     		bx	lr
 1061              		.cfi_endproc
 1062              	.LFE24:
 1064 001a 00BF     		.section	.text.tcp_listen_with_backlog,"ax",%progbits
 1065              		.align	2
 1066              		.global	tcp_listen_with_backlog
 1067              		.thumb
 1068              		.thumb_func
 1070              	tcp_listen_with_backlog:
 1071              	.LFB25:
 466:Libraries/lwip-1.4.0/core/tcp.c **** #endif /* LWIP_CALLBACK_API */
 467:Libraries/lwip-1.4.0/core/tcp.c **** 
 468:Libraries/lwip-1.4.0/core/tcp.c **** /**
 469:Libraries/lwip-1.4.0/core/tcp.c ****  * Set the state of the connection to be LISTEN, which means that it
 470:Libraries/lwip-1.4.0/core/tcp.c ****  * is able to accept incoming connections. The protocol control block
 471:Libraries/lwip-1.4.0/core/tcp.c ****  * is reallocated in order to consume less memory. Setting the
 472:Libraries/lwip-1.4.0/core/tcp.c ****  * connection to LISTEN is an irreversible process.
 473:Libraries/lwip-1.4.0/core/tcp.c ****  *
 474:Libraries/lwip-1.4.0/core/tcp.c ****  * @param pcb the original tcp_pcb
 475:Libraries/lwip-1.4.0/core/tcp.c ****  * @param backlog the incoming connections queue limit
 476:Libraries/lwip-1.4.0/core/tcp.c ****  * @return tcp_pcb used for listening, consumes less memory.
 477:Libraries/lwip-1.4.0/core/tcp.c ****  *
 478:Libraries/lwip-1.4.0/core/tcp.c ****  * @note The original tcp_pcb is freed. This function therefore has to be
 479:Libraries/lwip-1.4.0/core/tcp.c ****  *       called like this:
 480:Libraries/lwip-1.4.0/core/tcp.c ****  *             tpcb = tcp_listen(tpcb);
 481:Libraries/lwip-1.4.0/core/tcp.c ****  */
 482:Libraries/lwip-1.4.0/core/tcp.c **** struct tcp_pcb *
 483:Libraries/lwip-1.4.0/core/tcp.c **** tcp_listen_with_backlog(struct tcp_pcb *pcb, u8_t backlog)
 484:Libraries/lwip-1.4.0/core/tcp.c **** {
 1072              		.loc 1 484 0
 1073              		.cfi_startproc
 1074              		@ args = 0, pretend = 0, frame = 16
 1075              		@ frame_needed = 1, uses_anonymous_args = 0
 1076 0000 80B5     		push	{r7, lr}
 1077              		.cfi_def_cfa_offset 8
 1078              		.cfi_offset 7, -8
 1079              		.cfi_offset 14, -4
 1080 0002 84B0     		sub	sp, sp, #16
 1081              		.cfi_def_cfa_offset 24
 1082 0004 00AF     		add	r7, sp, #0
 1083              		.cfi_def_cfa_register 7
 1084 0006 7860     		str	r0, [r7, #4]
 1085 0008 0B46     		mov	r3, r1
 1086 000a FB70     		strb	r3, [r7, #3]
 485:Libraries/lwip-1.4.0/core/tcp.c ****   struct tcp_pcb_listen *lpcb;
 486:Libraries/lwip-1.4.0/core/tcp.c **** 
 487:Libraries/lwip-1.4.0/core/tcp.c ****   LWIP_UNUSED_ARG(backlog);
 488:Libraries/lwip-1.4.0/core/tcp.c ****   LWIP_ERROR("tcp_listen: pcb already connected", pcb->state == CLOSED, return NULL);
 1087              		.loc 1 488 0
 1088 000c 7B68     		ldr	r3, [r7, #4]
 1089 000e 1B7C     		ldrb	r3, [r3, #16]	@ zero_extendqisi2
 1090 0010 002B     		cmp	r3, #0
 1091 0012 01D0     		beq	.L78
 1092              		.loc 1 488 0 is_stmt 0 discriminator 1
 1093 0014 0023     		movs	r3, #0
 1094 0016 71E0     		b	.L79
 1095              	.L78:
 489:Libraries/lwip-1.4.0/core/tcp.c **** 
 490:Libraries/lwip-1.4.0/core/tcp.c ****   /* already listening? */
 491:Libraries/lwip-1.4.0/core/tcp.c ****   if (pcb->state == LISTEN) {
 1096              		.loc 1 491 0 is_stmt 1
 1097 0018 7B68     		ldr	r3, [r7, #4]
 1098 001a 1B7C     		ldrb	r3, [r3, #16]	@ zero_extendqisi2
 1099 001c 012B     		cmp	r3, #1
 1100 001e 01D1     		bne	.L80
 492:Libraries/lwip-1.4.0/core/tcp.c ****     return pcb;
 1101              		.loc 1 492 0
 1102 0020 7B68     		ldr	r3, [r7, #4]
 1103 0022 6BE0     		b	.L79
 1104              	.L80:
 493:Libraries/lwip-1.4.0/core/tcp.c ****   }
 494:Libraries/lwip-1.4.0/core/tcp.c **** #if SO_REUSE
 495:Libraries/lwip-1.4.0/core/tcp.c ****   if ((pcb->so_options & SOF_REUSEADDR) != 0) {
 496:Libraries/lwip-1.4.0/core/tcp.c ****     /* Since SOF_REUSEADDR allows reusing a local address before the pcb's usage
 497:Libraries/lwip-1.4.0/core/tcp.c ****        is declared (listen-/connection-pcb), we have to make sure now that
 498:Libraries/lwip-1.4.0/core/tcp.c ****        this port is only used once for every local IP. */
 499:Libraries/lwip-1.4.0/core/tcp.c ****     for(lpcb = tcp_listen_pcbs.listen_pcbs; lpcb != NULL; lpcb = lpcb->next) {
 500:Libraries/lwip-1.4.0/core/tcp.c ****       if (lpcb->local_port == pcb->local_port) {
 501:Libraries/lwip-1.4.0/core/tcp.c ****         if (ip_addr_cmp(&lpcb->local_ip, &pcb->local_ip)) {
 502:Libraries/lwip-1.4.0/core/tcp.c ****           /* this address/port is already used */
 503:Libraries/lwip-1.4.0/core/tcp.c ****           return NULL;
 504:Libraries/lwip-1.4.0/core/tcp.c ****         }
 505:Libraries/lwip-1.4.0/core/tcp.c ****       }
 506:Libraries/lwip-1.4.0/core/tcp.c ****     }
 507:Libraries/lwip-1.4.0/core/tcp.c ****   }
 508:Libraries/lwip-1.4.0/core/tcp.c **** #endif /* SO_REUSE */
 509:Libraries/lwip-1.4.0/core/tcp.c ****   lpcb = (struct tcp_pcb_listen *)memp_malloc(MEMP_TCP_PCB_LISTEN);
 1105              		.loc 1 509 0
 1106 0024 0320     		movs	r0, #3
 1107 0026 FFF7FEFF 		bl	memp_malloc
 1108 002a F860     		str	r0, [r7, #12]
 510:Libraries/lwip-1.4.0/core/tcp.c ****   if (lpcb == NULL) {
 1109              		.loc 1 510 0
 1110 002c FB68     		ldr	r3, [r7, #12]
 1111 002e 002B     		cmp	r3, #0
 1112 0030 01D1     		bne	.L81
 511:Libraries/lwip-1.4.0/core/tcp.c ****     return NULL;
 1113              		.loc 1 511 0
 1114 0032 0023     		movs	r3, #0
 1115 0034 62E0     		b	.L79
 1116              	.L81:
 512:Libraries/lwip-1.4.0/core/tcp.c ****   }
 513:Libraries/lwip-1.4.0/core/tcp.c ****   lpcb->callback_arg = pcb->callback_arg;
 1117              		.loc 1 513 0
 1118 0036 7B68     		ldr	r3, [r7, #4]
 1119 0038 5A69     		ldr	r2, [r3, #20]
 1120 003a FB68     		ldr	r3, [r7, #12]
 1121 003c 5A61     		str	r2, [r3, #20]
 514:Libraries/lwip-1.4.0/core/tcp.c ****   lpcb->local_port = pcb->local_port;
 1122              		.loc 1 514 0
 1123 003e 7B68     		ldr	r3, [r7, #4]
 1124 0040 9A8B     		ldrh	r2, [r3, #28]
 1125 0042 FB68     		ldr	r3, [r7, #12]
 1126 0044 9A83     		strh	r2, [r3, #28]	@ movhi
 515:Libraries/lwip-1.4.0/core/tcp.c ****   lpcb->state = LISTEN;
 1127              		.loc 1 515 0
 1128 0046 FB68     		ldr	r3, [r7, #12]
 1129 0048 0122     		movs	r2, #1
 1130 004a 1A74     		strb	r2, [r3, #16]
 516:Libraries/lwip-1.4.0/core/tcp.c ****   lpcb->prio = pcb->prio;
 1131              		.loc 1 516 0
 1132 004c 7B68     		ldr	r3, [r7, #4]
 1133 004e 5A7C     		ldrb	r2, [r3, #17]	@ zero_extendqisi2
 1134 0050 FB68     		ldr	r3, [r7, #12]
 1135 0052 5A74     		strb	r2, [r3, #17]
 517:Libraries/lwip-1.4.0/core/tcp.c ****   lpcb->so_options = pcb->so_options;
 1136              		.loc 1 517 0
 1137 0054 7B68     		ldr	r3, [r7, #4]
 1138 0056 1A7A     		ldrb	r2, [r3, #8]	@ zero_extendqisi2
 1139 0058 FB68     		ldr	r3, [r7, #12]
 1140 005a 1A72     		strb	r2, [r3, #8]
 518:Libraries/lwip-1.4.0/core/tcp.c ****   lpcb->so_options |= SOF_ACCEPTCONN;
 1141              		.loc 1 518 0
 1142 005c FB68     		ldr	r3, [r7, #12]
 1143 005e 1B7A     		ldrb	r3, [r3, #8]	@ zero_extendqisi2
 1144 0060 43F00203 		orr	r3, r3, #2
 1145 0064 DAB2     		uxtb	r2, r3
 1146 0066 FB68     		ldr	r3, [r7, #12]
 1147 0068 1A72     		strb	r2, [r3, #8]
 519:Libraries/lwip-1.4.0/core/tcp.c ****   lpcb->ttl = pcb->ttl;
 1148              		.loc 1 519 0
 1149 006a 7B68     		ldr	r3, [r7, #4]
 1150 006c 9A7A     		ldrb	r2, [r3, #10]	@ zero_extendqisi2
 1151 006e FB68     		ldr	r3, [r7, #12]
 1152 0070 9A72     		strb	r2, [r3, #10]
 520:Libraries/lwip-1.4.0/core/tcp.c ****   lpcb->tos = pcb->tos;
 1153              		.loc 1 520 0
 1154 0072 7B68     		ldr	r3, [r7, #4]
 1155 0074 5A7A     		ldrb	r2, [r3, #9]	@ zero_extendqisi2
 1156 0076 FB68     		ldr	r3, [r7, #12]
 1157 0078 5A72     		strb	r2, [r3, #9]
 521:Libraries/lwip-1.4.0/core/tcp.c ****   ip_addr_copy(lpcb->local_ip, pcb->local_ip);
 1158              		.loc 1 521 0
 1159 007a 7B68     		ldr	r3, [r7, #4]
 1160 007c 1A68     		ldr	r2, [r3]
 1161 007e FB68     		ldr	r3, [r7, #12]
 1162 0080 1A60     		str	r2, [r3]
 522:Libraries/lwip-1.4.0/core/tcp.c ****   if (pcb->local_port != 0) {
 1163              		.loc 1 522 0
 1164 0082 7B68     		ldr	r3, [r7, #4]
 1165 0084 9B8B     		ldrh	r3, [r3, #28]
 1166 0086 002B     		cmp	r3, #0
 1167 0088 27D0     		beq	.L82
 523:Libraries/lwip-1.4.0/core/tcp.c ****     TCP_RMV(&tcp_bound_pcbs, pcb);
 1168              		.loc 1 523 0
 1169 008a 1E4B     		ldr	r3, .L88
 1170 008c 1A68     		ldr	r2, [r3]
 1171 008e 7B68     		ldr	r3, [r7, #4]
 1172 0090 9A42     		cmp	r2, r3
 1173 0092 05D1     		bne	.L83
 1174              		.loc 1 523 0 is_stmt 0 discriminator 1
 1175 0094 1B4B     		ldr	r3, .L88
 1176 0096 1B68     		ldr	r3, [r3]
 1177 0098 DB68     		ldr	r3, [r3, #12]
 1178 009a 1A4A     		ldr	r2, .L88
 1179 009c 1360     		str	r3, [r2]
 1180 009e 19E0     		b	.L84
 1181              	.L83:
 1182              		.loc 1 523 0 discriminator 2
 1183 00a0 184B     		ldr	r3, .L88
 1184 00a2 1B68     		ldr	r3, [r3]
 1185 00a4 184A     		ldr	r2, .L88+4
 1186 00a6 1360     		str	r3, [r2]
 1187 00a8 10E0     		b	.L85
 1188              	.L87:
 1189              		.loc 1 523 0 discriminator 9
 1190 00aa 174B     		ldr	r3, .L88+4
 1191 00ac 1B68     		ldr	r3, [r3]
 1192 00ae DA68     		ldr	r2, [r3, #12]
 1193 00b0 7B68     		ldr	r3, [r7, #4]
 1194 00b2 9A42     		cmp	r2, r3
 1195 00b4 05D1     		bne	.L86
 1196              		.loc 1 523 0 discriminator 5
 1197 00b6 144B     		ldr	r3, .L88+4
 1198 00b8 1B68     		ldr	r3, [r3]
 1199 00ba 7A68     		ldr	r2, [r7, #4]
 1200 00bc D268     		ldr	r2, [r2, #12]
 1201 00be DA60     		str	r2, [r3, #12]
 1202 00c0 08E0     		b	.L84
 1203              	.L86:
 1204              		.loc 1 523 0 discriminator 6
 1205 00c2 114B     		ldr	r3, .L88+4
 1206 00c4 1B68     		ldr	r3, [r3]
 1207 00c6 DB68     		ldr	r3, [r3, #12]
 1208 00c8 0F4A     		ldr	r2, .L88+4
 1209 00ca 1360     		str	r3, [r2]
 1210              	.L85:
 1211              		.loc 1 523 0 discriminator 8
 1212 00cc 0E4B     		ldr	r3, .L88+4
 1213 00ce 1B68     		ldr	r3, [r3]
 1214 00d0 002B     		cmp	r3, #0
 1215 00d2 EAD1     		bne	.L87
 1216              	.L84:
 1217              		.loc 1 523 0 discriminator 10
 1218 00d4 7B68     		ldr	r3, [r7, #4]
 1219 00d6 0022     		movs	r2, #0
 1220 00d8 DA60     		str	r2, [r3, #12]
 1221              	.L82:
 524:Libraries/lwip-1.4.0/core/tcp.c ****   }
 525:Libraries/lwip-1.4.0/core/tcp.c ****   memp_free(MEMP_TCP_PCB, pcb);
 1222              		.loc 1 525 0 is_stmt 1
 1223 00da 7968     		ldr	r1, [r7, #4]
 1224 00dc 0220     		movs	r0, #2
 1225 00de FFF7FEFF 		bl	memp_free
 526:Libraries/lwip-1.4.0/core/tcp.c **** #if LWIP_CALLBACK_API
 527:Libraries/lwip-1.4.0/core/tcp.c ****   lpcb->accept = tcp_accept_null;
 1226              		.loc 1 527 0
 1227 00e2 FB68     		ldr	r3, [r7, #12]
 1228 00e4 094A     		ldr	r2, .L88+8
 1229 00e6 9A61     		str	r2, [r3, #24]
 528:Libraries/lwip-1.4.0/core/tcp.c **** #endif /* LWIP_CALLBACK_API */
 529:Libraries/lwip-1.4.0/core/tcp.c **** #if TCP_LISTEN_BACKLOG
 530:Libraries/lwip-1.4.0/core/tcp.c ****   lpcb->accepts_pending = 0;
 531:Libraries/lwip-1.4.0/core/tcp.c ****   lpcb->backlog = (backlog ? backlog : 1);
 532:Libraries/lwip-1.4.0/core/tcp.c **** #endif /* TCP_LISTEN_BACKLOG */
 533:Libraries/lwip-1.4.0/core/tcp.c ****   TCP_REG(&tcp_listen_pcbs.pcbs, (struct tcp_pcb *)lpcb);
 1230              		.loc 1 533 0
 1231 00e8 094B     		ldr	r3, .L88+12
 1232 00ea 1A68     		ldr	r2, [r3]
 1233 00ec FB68     		ldr	r3, [r7, #12]
 1234 00ee DA60     		str	r2, [r3, #12]
 1235 00f0 074A     		ldr	r2, .L88+12
 1236 00f2 FB68     		ldr	r3, [r7, #12]
 1237 00f4 1360     		str	r3, [r2]
 1238 00f6 FFF7FEFF 		bl	tcp_timer_needed
 534:Libraries/lwip-1.4.0/core/tcp.c ****   return (struct tcp_pcb *)lpcb;
 1239              		.loc 1 534 0
 1240 00fa FB68     		ldr	r3, [r7, #12]
 1241              	.L79:
 535:Libraries/lwip-1.4.0/core/tcp.c **** }
 1242              		.loc 1 535 0
 1243 00fc 1846     		mov	r0, r3
 1244 00fe 1037     		adds	r7, r7, #16
 1245              		.cfi_def_cfa_offset 8
 1246 0100 BD46     		mov	sp, r7
 1247              		.cfi_def_cfa_register 13
 1248              		@ sp needed
 1249 0102 80BD     		pop	{r7, pc}
 1250              	.L89:
 1251              		.align	2
 1252              	.L88:
 1253 0104 00000000 		.word	tcp_bound_pcbs
 1254 0108 00000000 		.word	tcp_tmp_pcb
 1255 010c 00000000 		.word	tcp_accept_null
 1256 0110 00000000 		.word	tcp_listen_pcbs
 1257              		.cfi_endproc
 1258              	.LFE25:
 1260              		.section	.text.tcp_update_rcv_ann_wnd,"ax",%progbits
 1261              		.align	2
 1262              		.global	tcp_update_rcv_ann_wnd
 1263              		.thumb
 1264              		.thumb_func
 1266              	tcp_update_rcv_ann_wnd:
 1267              	.LFB26:
 536:Libraries/lwip-1.4.0/core/tcp.c **** 
 537:Libraries/lwip-1.4.0/core/tcp.c **** /** 
 538:Libraries/lwip-1.4.0/core/tcp.c ****  * Update the state that tracks the available window space to advertise.
 539:Libraries/lwip-1.4.0/core/tcp.c ****  *
 540:Libraries/lwip-1.4.0/core/tcp.c ****  * Returns how much extra window would be advertised if we sent an
 541:Libraries/lwip-1.4.0/core/tcp.c ****  * update now.
 542:Libraries/lwip-1.4.0/core/tcp.c ****  */
 543:Libraries/lwip-1.4.0/core/tcp.c **** u32_t tcp_update_rcv_ann_wnd(struct tcp_pcb *pcb)
 544:Libraries/lwip-1.4.0/core/tcp.c **** {
 1268              		.loc 1 544 0
 1269              		.cfi_startproc
 1270              		@ args = 0, pretend = 0, frame = 16
 1271              		@ frame_needed = 1, uses_anonymous_args = 0
 1272              		@ link register save eliminated.
 1273 0000 80B4     		push	{r7}
 1274              		.cfi_def_cfa_offset 4
 1275              		.cfi_offset 7, -4
 1276 0002 85B0     		sub	sp, sp, #20
 1277              		.cfi_def_cfa_offset 24
 1278 0004 00AF     		add	r7, sp, #0
 1279              		.cfi_def_cfa_register 7
 1280 0006 7860     		str	r0, [r7, #4]
 545:Libraries/lwip-1.4.0/core/tcp.c ****   u32_t new_right_edge = pcb->rcv_nxt + pcb->rcv_wnd;
 1281              		.loc 1 545 0
 1282 0008 7B68     		ldr	r3, [r7, #4]
 1283 000a 5B6A     		ldr	r3, [r3, #36]
 1284 000c 7A68     		ldr	r2, [r7, #4]
 1285 000e 128D     		ldrh	r2, [r2, #40]
 1286 0010 1344     		add	r3, r3, r2
 1287 0012 FB60     		str	r3, [r7, #12]
 546:Libraries/lwip-1.4.0/core/tcp.c **** 
 547:Libraries/lwip-1.4.0/core/tcp.c ****   if (TCP_SEQ_GEQ(new_right_edge, pcb->rcv_ann_right_edge + LWIP_MIN((TCP_WND / 2), pcb->mss))) {
 1288              		.loc 1 547 0
 1289 0014 7B68     		ldr	r3, [r7, #4]
 1290 0016 DB6A     		ldr	r3, [r3, #44]
 1291 0018 7A68     		ldr	r2, [r7, #4]
 1292 001a 128F     		ldrh	r2, [r2, #56]
 1293 001c B2F5866F 		cmp	r2, #1072
 1294 0020 02D8     		bhi	.L91
 1295              		.loc 1 547 0 is_stmt 0 discriminator 1
 1296 0022 7A68     		ldr	r2, [r7, #4]
 1297 0024 128F     		ldrh	r2, [r2, #56]
 1298 0026 01E0     		b	.L92
 1299              	.L91:
 1300              		.loc 1 547 0 discriminator 2
 1301 0028 4FF48662 		mov	r2, #1072
 1302              	.L92:
 1303              		.loc 1 547 0 discriminator 4
 1304 002c 1344     		add	r3, r3, r2
 1305 002e FA68     		ldr	r2, [r7, #12]
 1306 0030 D31A     		subs	r3, r2, r3
 1307 0032 002B     		cmp	r3, #0
 1308 0034 08DB     		blt	.L93
 548:Libraries/lwip-1.4.0/core/tcp.c ****     /* we can advertise more window */
 549:Libraries/lwip-1.4.0/core/tcp.c ****     pcb->rcv_ann_wnd = pcb->rcv_wnd;
 1309              		.loc 1 549 0 is_stmt 1
 1310 0036 7B68     		ldr	r3, [r7, #4]
 1311 0038 1A8D     		ldrh	r2, [r3, #40]
 1312 003a 7B68     		ldr	r3, [r7, #4]
 1313 003c 5A85     		strh	r2, [r3, #42]	@ movhi
 550:Libraries/lwip-1.4.0/core/tcp.c ****     return new_right_edge - pcb->rcv_ann_right_edge;
 1314              		.loc 1 550 0
 1315 003e 7B68     		ldr	r3, [r7, #4]
 1316 0040 DB6A     		ldr	r3, [r3, #44]
 1317 0042 FA68     		ldr	r2, [r7, #12]
 1318 0044 D31A     		subs	r3, r2, r3
 1319 0046 15E0     		b	.L94
 1320              	.L93:
 551:Libraries/lwip-1.4.0/core/tcp.c ****   } else {
 552:Libraries/lwip-1.4.0/core/tcp.c ****     if (TCP_SEQ_GT(pcb->rcv_nxt, pcb->rcv_ann_right_edge)) {
 1321              		.loc 1 552 0
 1322 0048 7B68     		ldr	r3, [r7, #4]
 1323 004a 5A6A     		ldr	r2, [r3, #36]
 1324 004c 7B68     		ldr	r3, [r7, #4]
 1325 004e DB6A     		ldr	r3, [r3, #44]
 1326 0050 D31A     		subs	r3, r2, r3
 1327 0052 002B     		cmp	r3, #0
 1328 0054 03DD     		ble	.L95
 553:Libraries/lwip-1.4.0/core/tcp.c ****       /* Can happen due to other end sending out of advertised window,
 554:Libraries/lwip-1.4.0/core/tcp.c ****        * but within actual available (but not yet advertised) window */
 555:Libraries/lwip-1.4.0/core/tcp.c ****       pcb->rcv_ann_wnd = 0;
 1329              		.loc 1 555 0
 1330 0056 7B68     		ldr	r3, [r7, #4]
 1331 0058 0022     		movs	r2, #0
 1332 005a 5A85     		strh	r2, [r3, #42]	@ movhi
 1333 005c 09E0     		b	.L96
 1334              	.L95:
 1335              	.LBB2:
 556:Libraries/lwip-1.4.0/core/tcp.c ****     } else {
 557:Libraries/lwip-1.4.0/core/tcp.c ****       /* keep the right edge of window constant */
 558:Libraries/lwip-1.4.0/core/tcp.c ****       u32_t new_rcv_ann_wnd = pcb->rcv_ann_right_edge - pcb->rcv_nxt;
 1336              		.loc 1 558 0
 1337 005e 7B68     		ldr	r3, [r7, #4]
 1338 0060 DA6A     		ldr	r2, [r3, #44]
 1339 0062 7B68     		ldr	r3, [r7, #4]
 1340 0064 5B6A     		ldr	r3, [r3, #36]
 1341 0066 D31A     		subs	r3, r2, r3
 1342 0068 BB60     		str	r3, [r7, #8]
 559:Libraries/lwip-1.4.0/core/tcp.c ****       LWIP_ASSERT("new_rcv_ann_wnd <= 0xffff", new_rcv_ann_wnd <= 0xffff);
 560:Libraries/lwip-1.4.0/core/tcp.c ****       pcb->rcv_ann_wnd = (u16_t)new_rcv_ann_wnd;
 1343              		.loc 1 560 0
 1344 006a BB68     		ldr	r3, [r7, #8]
 1345 006c 9AB2     		uxth	r2, r3
 1346 006e 7B68     		ldr	r3, [r7, #4]
 1347 0070 5A85     		strh	r2, [r3, #42]	@ movhi
 1348              	.L96:
 1349              	.LBE2:
 561:Libraries/lwip-1.4.0/core/tcp.c ****     }
 562:Libraries/lwip-1.4.0/core/tcp.c ****     return 0;
 1350              		.loc 1 562 0
 1351 0072 0023     		movs	r3, #0
 1352              	.L94:
 563:Libraries/lwip-1.4.0/core/tcp.c ****   }
 564:Libraries/lwip-1.4.0/core/tcp.c **** }
 1353              		.loc 1 564 0
 1354 0074 1846     		mov	r0, r3
 1355 0076 1437     		adds	r7, r7, #20
 1356              		.cfi_def_cfa_offset 4
 1357 0078 BD46     		mov	sp, r7
 1358              		.cfi_def_cfa_register 13
 1359              		@ sp needed
 1360 007a 80BC     		pop	{r7}
 1361              		.cfi_restore 7
 1362              		.cfi_def_cfa_offset 0
 1363 007c 7047     		bx	lr
 1364              		.cfi_endproc
 1365              	.LFE26:
 1367 007e 00BF     		.section	.text.tcp_recved,"ax",%progbits
 1368              		.align	2
 1369              		.global	tcp_recved
 1370              		.thumb
 1371              		.thumb_func
 1373              	tcp_recved:
 1374              	.LFB27:
 565:Libraries/lwip-1.4.0/core/tcp.c **** 
 566:Libraries/lwip-1.4.0/core/tcp.c **** /**
 567:Libraries/lwip-1.4.0/core/tcp.c ****  * This function should be called by the application when it has
 568:Libraries/lwip-1.4.0/core/tcp.c ****  * processed the data. The purpose is to advertise a larger window
 569:Libraries/lwip-1.4.0/core/tcp.c ****  * when the data has been processed.
 570:Libraries/lwip-1.4.0/core/tcp.c ****  *
 571:Libraries/lwip-1.4.0/core/tcp.c ****  * @param pcb the tcp_pcb for which data is read
 572:Libraries/lwip-1.4.0/core/tcp.c ****  * @param len the amount of bytes that have been read by the application
 573:Libraries/lwip-1.4.0/core/tcp.c ****  */
 574:Libraries/lwip-1.4.0/core/tcp.c **** void
 575:Libraries/lwip-1.4.0/core/tcp.c **** tcp_recved(struct tcp_pcb *pcb, u16_t len)
 576:Libraries/lwip-1.4.0/core/tcp.c **** {
 1375              		.loc 1 576 0
 1376              		.cfi_startproc
 1377              		@ args = 0, pretend = 0, frame = 16
 1378              		@ frame_needed = 1, uses_anonymous_args = 0
 1379 0000 80B5     		push	{r7, lr}
 1380              		.cfi_def_cfa_offset 8
 1381              		.cfi_offset 7, -8
 1382              		.cfi_offset 14, -4
 1383 0002 84B0     		sub	sp, sp, #16
 1384              		.cfi_def_cfa_offset 24
 1385 0004 00AF     		add	r7, sp, #0
 1386              		.cfi_def_cfa_register 7
 1387 0006 7860     		str	r0, [r7, #4]
 1388 0008 0B46     		mov	r3, r1
 1389 000a 7B80     		strh	r3, [r7, #2]	@ movhi
 577:Libraries/lwip-1.4.0/core/tcp.c ****   int wnd_inflation;
 578:Libraries/lwip-1.4.0/core/tcp.c **** 
 579:Libraries/lwip-1.4.0/core/tcp.c ****   LWIP_ASSERT("tcp_recved: len would wrap rcv_wnd\n",
 580:Libraries/lwip-1.4.0/core/tcp.c ****               len <= 0xffff - pcb->rcv_wnd );
 581:Libraries/lwip-1.4.0/core/tcp.c **** 
 582:Libraries/lwip-1.4.0/core/tcp.c ****   pcb->rcv_wnd += len;
 1390              		.loc 1 582 0
 1391 000c 7B68     		ldr	r3, [r7, #4]
 1392 000e 1A8D     		ldrh	r2, [r3, #40]
 1393 0010 7B88     		ldrh	r3, [r7, #2]	@ movhi
 1394 0012 1344     		add	r3, r3, r2
 1395 0014 9AB2     		uxth	r2, r3
 1396 0016 7B68     		ldr	r3, [r7, #4]
 1397 0018 1A85     		strh	r2, [r3, #40]	@ movhi
 583:Libraries/lwip-1.4.0/core/tcp.c ****   if (pcb->rcv_wnd > TCP_WND) {
 1398              		.loc 1 583 0
 1399 001a 7B68     		ldr	r3, [r7, #4]
 1400 001c 1B8D     		ldrh	r3, [r3, #40]
 1401 001e B3F5066F 		cmp	r3, #2144
 1402 0022 03D9     		bls	.L98
 584:Libraries/lwip-1.4.0/core/tcp.c ****     pcb->rcv_wnd = TCP_WND;
 1403              		.loc 1 584 0
 1404 0024 7B68     		ldr	r3, [r7, #4]
 1405 0026 4FF40662 		mov	r2, #2144
 1406 002a 1A85     		strh	r2, [r3, #40]	@ movhi
 1407              	.L98:
 585:Libraries/lwip-1.4.0/core/tcp.c ****   }
 586:Libraries/lwip-1.4.0/core/tcp.c **** 
 587:Libraries/lwip-1.4.0/core/tcp.c ****   wnd_inflation = tcp_update_rcv_ann_wnd(pcb);
 1408              		.loc 1 587 0
 1409 002c 7868     		ldr	r0, [r7, #4]
 1410 002e FFF7FEFF 		bl	tcp_update_rcv_ann_wnd
 1411 0032 0346     		mov	r3, r0
 1412 0034 FB60     		str	r3, [r7, #12]
 588:Libraries/lwip-1.4.0/core/tcp.c **** 
 589:Libraries/lwip-1.4.0/core/tcp.c ****   /* If the change in the right edge of window is significant (default
 590:Libraries/lwip-1.4.0/core/tcp.c ****    * watermark is TCP_WND/4), then send an explicit update now.
 591:Libraries/lwip-1.4.0/core/tcp.c ****    * Otherwise wait for a packet to be sent in the normal course of
 592:Libraries/lwip-1.4.0/core/tcp.c ****    * events (or more window to be available later) */
 593:Libraries/lwip-1.4.0/core/tcp.c ****   if (wnd_inflation >= TCP_WND_UPDATE_THRESHOLD) {
 1413              		.loc 1 593 0
 1414 0036 FB68     		ldr	r3, [r7, #12]
 1415 0038 B3F5067F 		cmp	r3, #536
 1416 003c 0BDB     		blt	.L100
 594:Libraries/lwip-1.4.0/core/tcp.c ****     tcp_ack_now(pcb);
 1417              		.loc 1 594 0
 1418 003e 7B68     		ldr	r3, [r7, #4]
 1419 0040 93F82030 		ldrb	r3, [r3, #32]	@ zero_extendqisi2
 1420 0044 43F00203 		orr	r3, r3, #2
 1421 0048 DAB2     		uxtb	r2, r3
 1422 004a 7B68     		ldr	r3, [r7, #4]
 1423 004c 83F82020 		strb	r2, [r3, #32]
 595:Libraries/lwip-1.4.0/core/tcp.c ****     tcp_output(pcb);
 1424              		.loc 1 595 0
 1425 0050 7868     		ldr	r0, [r7, #4]
 1426 0052 FFF7FEFF 		bl	tcp_output
 1427              	.L100:
 596:Libraries/lwip-1.4.0/core/tcp.c ****   }
 597:Libraries/lwip-1.4.0/core/tcp.c **** 
 598:Libraries/lwip-1.4.0/core/tcp.c ****   LWIP_DEBUGF(TCP_DEBUG, ("tcp_recved: recveived %"U16_F" bytes, wnd %"U16_F" (%"U16_F").\n",
 599:Libraries/lwip-1.4.0/core/tcp.c ****          len, pcb->rcv_wnd, TCP_WND - pcb->rcv_wnd));
 600:Libraries/lwip-1.4.0/core/tcp.c **** }
 1428              		.loc 1 600 0
 1429 0056 00BF     		nop
 1430 0058 1037     		adds	r7, r7, #16
 1431              		.cfi_def_cfa_offset 8
 1432 005a BD46     		mov	sp, r7
 1433              		.cfi_def_cfa_register 13
 1434              		@ sp needed
 1435 005c 80BD     		pop	{r7, pc}
 1436              		.cfi_endproc
 1437              	.LFE27:
 1439 005e 00BF     		.section	.text.tcp_new_port,"ax",%progbits
 1440              		.align	2
 1441              		.thumb
 1442              		.thumb_func
 1444              	tcp_new_port:
 1445              	.LFB28:
 601:Libraries/lwip-1.4.0/core/tcp.c **** 
 602:Libraries/lwip-1.4.0/core/tcp.c **** /**
 603:Libraries/lwip-1.4.0/core/tcp.c ****  * A nastly hack featuring 'goto' statements that allocates a
 604:Libraries/lwip-1.4.0/core/tcp.c ****  * new TCP local port.
 605:Libraries/lwip-1.4.0/core/tcp.c ****  *
 606:Libraries/lwip-1.4.0/core/tcp.c ****  * @return a new (free) local TCP port number
 607:Libraries/lwip-1.4.0/core/tcp.c ****  */
 608:Libraries/lwip-1.4.0/core/tcp.c **** static u16_t
 609:Libraries/lwip-1.4.0/core/tcp.c **** tcp_new_port(void)
 610:Libraries/lwip-1.4.0/core/tcp.c **** {
 1446              		.loc 1 610 0
 1447              		.cfi_startproc
 1448              		@ args = 0, pretend = 0, frame = 8
 1449              		@ frame_needed = 1, uses_anonymous_args = 0
 1450              		@ link register save eliminated.
 1451 0000 80B4     		push	{r7}
 1452              		.cfi_def_cfa_offset 4
 1453              		.cfi_offset 7, -4
 1454 0002 83B0     		sub	sp, sp, #12
 1455              		.cfi_def_cfa_offset 16
 1456 0004 00AF     		add	r7, sp, #0
 1457              		.cfi_def_cfa_register 7
 1458              	.L102:
 611:Libraries/lwip-1.4.0/core/tcp.c ****   int i;
 612:Libraries/lwip-1.4.0/core/tcp.c ****   struct tcp_pcb *pcb;
 613:Libraries/lwip-1.4.0/core/tcp.c **** #ifndef TCP_LOCAL_PORT_RANGE_START
 614:Libraries/lwip-1.4.0/core/tcp.c **** /* From http://www.iana.org/assignments/port-numbers:
 615:Libraries/lwip-1.4.0/core/tcp.c ****    "The Dynamic and/or Private Ports are those from 49152 through 65535" */
 616:Libraries/lwip-1.4.0/core/tcp.c **** #define TCP_LOCAL_PORT_RANGE_START  0xc000
 617:Libraries/lwip-1.4.0/core/tcp.c **** #define TCP_LOCAL_PORT_RANGE_END    0xffff
 618:Libraries/lwip-1.4.0/core/tcp.c **** #endif
 619:Libraries/lwip-1.4.0/core/tcp.c ****   static u16_t port = TCP_LOCAL_PORT_RANGE_START;
 620:Libraries/lwip-1.4.0/core/tcp.c ****   
 621:Libraries/lwip-1.4.0/core/tcp.c ****  again:
 622:Libraries/lwip-1.4.0/core/tcp.c ****   if (port++ >= TCP_LOCAL_PORT_RANGE_END) {
 1459              		.loc 1 622 0
 1460 0006 194B     		ldr	r3, .L110
 1461 0008 1B88     		ldrh	r3, [r3]
 1462 000a 5A1C     		adds	r2, r3, #1
 1463 000c 91B2     		uxth	r1, r2
 1464 000e 174A     		ldr	r2, .L110
 1465 0010 1180     		strh	r1, [r2]	@ movhi
 1466 0012 4FF6FF72 		movw	r2, #65535
 1467 0016 9342     		cmp	r3, r2
 1468 0018 03D1     		bne	.L103
 623:Libraries/lwip-1.4.0/core/tcp.c ****     port = TCP_LOCAL_PORT_RANGE_START;
 1469              		.loc 1 623 0
 1470 001a 144B     		ldr	r3, .L110
 1471 001c 4FF44042 		mov	r2, #49152
 1472 0020 1A80     		strh	r2, [r3]	@ movhi
 1473              	.L103:
 624:Libraries/lwip-1.4.0/core/tcp.c ****   }
 625:Libraries/lwip-1.4.0/core/tcp.c ****   /* Check all PCB lists. */
 626:Libraries/lwip-1.4.0/core/tcp.c ****   for (i = 0; i < NUM_TCP_PCB_LISTS; i++) {
 1474              		.loc 1 626 0
 1475 0022 0023     		movs	r3, #0
 1476 0024 7B60     		str	r3, [r7, #4]
 1477 0026 16E0     		b	.L104
 1478              	.L108:
 627:Libraries/lwip-1.4.0/core/tcp.c ****     for(pcb = *tcp_pcb_lists[i]; pcb != NULL; pcb = pcb->next) {
 1479              		.loc 1 627 0
 1480 0028 114A     		ldr	r2, .L110+4
 1481 002a 7B68     		ldr	r3, [r7, #4]
 1482 002c 52F82330 		ldr	r3, [r2, r3, lsl #2]
 1483 0030 1B68     		ldr	r3, [r3]
 1484 0032 3B60     		str	r3, [r7]
 1485 0034 09E0     		b	.L105
 1486              	.L107:
 628:Libraries/lwip-1.4.0/core/tcp.c ****       if (pcb->local_port == port) {
 1487              		.loc 1 628 0
 1488 0036 3B68     		ldr	r3, [r7]
 1489 0038 9A8B     		ldrh	r2, [r3, #28]
 1490 003a 0C4B     		ldr	r3, .L110
 1491 003c 1B88     		ldrh	r3, [r3]
 1492 003e 9A42     		cmp	r2, r3
 1493 0040 00D1     		bne	.L106
 629:Libraries/lwip-1.4.0/core/tcp.c ****         goto again;
 1494              		.loc 1 629 0
 1495 0042 E0E7     		b	.L102
 1496              	.L106:
 627:Libraries/lwip-1.4.0/core/tcp.c ****     for(pcb = *tcp_pcb_lists[i]; pcb != NULL; pcb = pcb->next) {
 1497              		.loc 1 627 0 discriminator 2
 1498 0044 3B68     		ldr	r3, [r7]
 1499 0046 DB68     		ldr	r3, [r3, #12]
 1500 0048 3B60     		str	r3, [r7]
 1501              	.L105:
 627:Libraries/lwip-1.4.0/core/tcp.c ****     for(pcb = *tcp_pcb_lists[i]; pcb != NULL; pcb = pcb->next) {
 1502              		.loc 1 627 0 is_stmt 0 discriminator 1
 1503 004a 3B68     		ldr	r3, [r7]
 1504 004c 002B     		cmp	r3, #0
 1505 004e F2D1     		bne	.L107
 626:Libraries/lwip-1.4.0/core/tcp.c ****     for(pcb = *tcp_pcb_lists[i]; pcb != NULL; pcb = pcb->next) {
 1506              		.loc 1 626 0 is_stmt 1 discriminator 2
 1507 0050 7B68     		ldr	r3, [r7, #4]
 1508 0052 0133     		adds	r3, r3, #1
 1509 0054 7B60     		str	r3, [r7, #4]
 1510              	.L104:
 626:Libraries/lwip-1.4.0/core/tcp.c ****     for(pcb = *tcp_pcb_lists[i]; pcb != NULL; pcb = pcb->next) {
 1511              		.loc 1 626 0 is_stmt 0 discriminator 1
 1512 0056 7B68     		ldr	r3, [r7, #4]
 1513 0058 032B     		cmp	r3, #3
 1514 005a E5DD     		ble	.L108
 630:Libraries/lwip-1.4.0/core/tcp.c ****       }
 631:Libraries/lwip-1.4.0/core/tcp.c ****     }
 632:Libraries/lwip-1.4.0/core/tcp.c ****   }
 633:Libraries/lwip-1.4.0/core/tcp.c ****   return port;
 1515              		.loc 1 633 0 is_stmt 1
 1516 005c 034B     		ldr	r3, .L110
 1517 005e 1B88     		ldrh	r3, [r3]
 634:Libraries/lwip-1.4.0/core/tcp.c **** }
 1518              		.loc 1 634 0
 1519 0060 1846     		mov	r0, r3
 1520 0062 0C37     		adds	r7, r7, #12
 1521              		.cfi_def_cfa_offset 4
 1522 0064 BD46     		mov	sp, r7
 1523              		.cfi_def_cfa_register 13
 1524              		@ sp needed
 1525 0066 80BC     		pop	{r7}
 1526              		.cfi_restore 7
 1527              		.cfi_def_cfa_offset 0
 1528 0068 7047     		bx	lr
 1529              	.L111:
 1530 006a 00BF     		.align	2
 1531              	.L110:
 1532 006c 00000000 		.word	port.6657
 1533 0070 00000000 		.word	tcp_pcb_lists
 1534              		.cfi_endproc
 1535              	.LFE28:
 1537              		.section	.text.tcp_connect,"ax",%progbits
 1538              		.align	2
 1539              		.global	tcp_connect
 1540              		.thumb
 1541              		.thumb_func
 1543              	tcp_connect:
 1544              	.LFB29:
 635:Libraries/lwip-1.4.0/core/tcp.c **** 
 636:Libraries/lwip-1.4.0/core/tcp.c **** /**
 637:Libraries/lwip-1.4.0/core/tcp.c ****  * Connects to another host. The function given as the "connected"
 638:Libraries/lwip-1.4.0/core/tcp.c ****  * argument will be called when the connection has been established.
 639:Libraries/lwip-1.4.0/core/tcp.c ****  *
 640:Libraries/lwip-1.4.0/core/tcp.c ****  * @param pcb the tcp_pcb used to establish the connection
 641:Libraries/lwip-1.4.0/core/tcp.c ****  * @param ipaddr the remote ip address to connect to
 642:Libraries/lwip-1.4.0/core/tcp.c ****  * @param port the remote tcp port to connect to
 643:Libraries/lwip-1.4.0/core/tcp.c ****  * @param connected callback function to call when connected (or on error)
 644:Libraries/lwip-1.4.0/core/tcp.c ****  * @return ERR_VAL if invalid arguments are given
 645:Libraries/lwip-1.4.0/core/tcp.c ****  *         ERR_OK if connect request has been sent
 646:Libraries/lwip-1.4.0/core/tcp.c ****  *         other err_t values if connect request couldn't be sent
 647:Libraries/lwip-1.4.0/core/tcp.c ****  */
 648:Libraries/lwip-1.4.0/core/tcp.c **** err_t
 649:Libraries/lwip-1.4.0/core/tcp.c **** tcp_connect(struct tcp_pcb *pcb, ip_addr_t *ipaddr, u16_t port,
 650:Libraries/lwip-1.4.0/core/tcp.c ****       tcp_connected_fn connected)
 651:Libraries/lwip-1.4.0/core/tcp.c **** {
 1545              		.loc 1 651 0
 1546              		.cfi_startproc
 1547              		@ args = 0, pretend = 0, frame = 32
 1548              		@ frame_needed = 1, uses_anonymous_args = 0
 1549 0000 80B5     		push	{r7, lr}
 1550              		.cfi_def_cfa_offset 8
 1551              		.cfi_offset 7, -8
 1552              		.cfi_offset 14, -4
 1553 0002 88B0     		sub	sp, sp, #32
 1554              		.cfi_def_cfa_offset 40
 1555 0004 00AF     		add	r7, sp, #0
 1556              		.cfi_def_cfa_register 7
 1557 0006 F860     		str	r0, [r7, #12]
 1558 0008 B960     		str	r1, [r7, #8]
 1559 000a 3B60     		str	r3, [r7]
 1560 000c 1346     		mov	r3, r2	@ movhi
 1561 000e FB80     		strh	r3, [r7, #6]	@ movhi
 652:Libraries/lwip-1.4.0/core/tcp.c ****   err_t ret;
 653:Libraries/lwip-1.4.0/core/tcp.c ****   u32_t iss;
 654:Libraries/lwip-1.4.0/core/tcp.c ****   u16_t old_local_port;
 655:Libraries/lwip-1.4.0/core/tcp.c **** 
 656:Libraries/lwip-1.4.0/core/tcp.c ****   LWIP_ERROR("tcp_connect: can only connect from state CLOSED", pcb->state == CLOSED, return ERR_IS
 1562              		.loc 1 656 0
 1563 0010 FB68     		ldr	r3, [r7, #12]
 1564 0012 1B7C     		ldrb	r3, [r3, #16]	@ zero_extendqisi2
 1565 0014 002B     		cmp	r3, #0
 1566 0016 02D0     		beq	.L113
 1567              		.loc 1 656 0 is_stmt 0 discriminator 1
 1568 0018 6FF00803 		mvn	r3, #8
 1569 001c B6E0     		b	.L114
 1570              	.L113:
 657:Libraries/lwip-1.4.0/core/tcp.c **** 
 658:Libraries/lwip-1.4.0/core/tcp.c ****   LWIP_DEBUGF(TCP_DEBUG, ("tcp_connect to port %"U16_F"\n", port));
 659:Libraries/lwip-1.4.0/core/tcp.c ****   if (ipaddr != NULL) {
 1571              		.loc 1 659 0 is_stmt 1
 1572 001e BB68     		ldr	r3, [r7, #8]
 1573 0020 002B     		cmp	r3, #0
 1574 0022 0AD0     		beq	.L115
 660:Libraries/lwip-1.4.0/core/tcp.c ****     pcb->remote_ip = *ipaddr;
 1575              		.loc 1 660 0
 1576 0024 FB68     		ldr	r3, [r7, #12]
 1577 0026 BA68     		ldr	r2, [r7, #8]
 1578 0028 1268     		ldr	r2, [r2]
 1579 002a 5A60     		str	r2, [r3, #4]
 661:Libraries/lwip-1.4.0/core/tcp.c ****   } else {
 662:Libraries/lwip-1.4.0/core/tcp.c ****     return ERR_VAL;
 663:Libraries/lwip-1.4.0/core/tcp.c ****   }
 664:Libraries/lwip-1.4.0/core/tcp.c ****   pcb->remote_port = port;
 1580              		.loc 1 664 0
 1581 002c FB68     		ldr	r3, [r7, #12]
 1582 002e FA88     		ldrh	r2, [r7, #6]	@ movhi
 1583 0030 DA83     		strh	r2, [r3, #30]	@ movhi
 665:Libraries/lwip-1.4.0/core/tcp.c **** 
 666:Libraries/lwip-1.4.0/core/tcp.c ****   /* check if we have a route to the remote host */
 667:Libraries/lwip-1.4.0/core/tcp.c ****   if (ip_addr_isany(&(pcb->local_ip))) {
 1584              		.loc 1 667 0
 1585 0032 FB68     		ldr	r3, [r7, #12]
 1586 0034 002B     		cmp	r3, #0
 1587 0036 07D0     		beq	.L117
 1588 0038 02E0     		b	.L128
 1589              	.L115:
 662:Libraries/lwip-1.4.0/core/tcp.c ****   }
 1590              		.loc 1 662 0
 1591 003a 6FF00503 		mvn	r3, #5
 1592 003e A5E0     		b	.L114
 1593              	.L128:
 1594              		.loc 1 667 0 discriminator 1
 1595 0040 FB68     		ldr	r3, [r7, #12]
 1596 0042 1B68     		ldr	r3, [r3]
 1597 0044 002B     		cmp	r3, #0
 1598 0046 0FD1     		bne	.L118
 1599              	.L117:
 1600              	.LBB3:
 668:Libraries/lwip-1.4.0/core/tcp.c ****     /* no local IP address set, yet. */
 669:Libraries/lwip-1.4.0/core/tcp.c ****     struct netif *netif = ip_route(&(pcb->remote_ip));
 1601              		.loc 1 669 0
 1602 0048 FB68     		ldr	r3, [r7, #12]
 1603 004a 0433     		adds	r3, r3, #4
 1604 004c 1846     		mov	r0, r3
 1605 004e FFF7FEFF 		bl	ip_route
 1606 0052 F861     		str	r0, [r7, #28]
 670:Libraries/lwip-1.4.0/core/tcp.c ****     if (netif == NULL) {
 1607              		.loc 1 670 0
 1608 0054 FB69     		ldr	r3, [r7, #28]
 1609 0056 002B     		cmp	r3, #0
 1610 0058 02D1     		bne	.L119
 671:Libraries/lwip-1.4.0/core/tcp.c ****       /* Don't even try to send a SYN packet if we have no route
 672:Libraries/lwip-1.4.0/core/tcp.c ****          since that will fail. */
 673:Libraries/lwip-1.4.0/core/tcp.c ****       return ERR_RTE;
 1611              		.loc 1 673 0
 1612 005a 6FF00303 		mvn	r3, #3
 1613 005e 95E0     		b	.L114
 1614              	.L119:
 674:Libraries/lwip-1.4.0/core/tcp.c ****     }
 675:Libraries/lwip-1.4.0/core/tcp.c ****     /* Use the netif's IP address as local address. */
 676:Libraries/lwip-1.4.0/core/tcp.c ****     ip_addr_copy(pcb->local_ip, netif->ip_addr);
 1615              		.loc 1 676 0
 1616 0060 FB69     		ldr	r3, [r7, #28]
 1617 0062 5A68     		ldr	r2, [r3, #4]
 1618 0064 FB68     		ldr	r3, [r7, #12]
 1619 0066 1A60     		str	r2, [r3]
 1620              	.L118:
 1621              	.LBE3:
 677:Libraries/lwip-1.4.0/core/tcp.c ****   }
 678:Libraries/lwip-1.4.0/core/tcp.c **** 
 679:Libraries/lwip-1.4.0/core/tcp.c ****   old_local_port = pcb->local_port;
 1622              		.loc 1 679 0
 1623 0068 FB68     		ldr	r3, [r7, #12]
 1624 006a 9B8B     		ldrh	r3, [r3, #28]	@ movhi
 1625 006c 7B83     		strh	r3, [r7, #26]	@ movhi
 680:Libraries/lwip-1.4.0/core/tcp.c ****   if (pcb->local_port == 0) {
 1626              		.loc 1 680 0
 1627 006e FB68     		ldr	r3, [r7, #12]
 1628 0070 9B8B     		ldrh	r3, [r3, #28]
 1629 0072 002B     		cmp	r3, #0
 1630 0074 05D1     		bne	.L120
 681:Libraries/lwip-1.4.0/core/tcp.c ****     pcb->local_port = tcp_new_port();
 1631              		.loc 1 681 0
 1632 0076 FFF7FEFF 		bl	tcp_new_port
 1633 007a 0346     		mov	r3, r0
 1634 007c 1A46     		mov	r2, r3
 1635 007e FB68     		ldr	r3, [r7, #12]
 1636 0080 9A83     		strh	r2, [r3, #28]	@ movhi
 1637              	.L120:
 682:Libraries/lwip-1.4.0/core/tcp.c ****   }
 683:Libraries/lwip-1.4.0/core/tcp.c **** #if SO_REUSE
 684:Libraries/lwip-1.4.0/core/tcp.c ****   if ((pcb->so_options & SOF_REUSEADDR) != 0) {
 685:Libraries/lwip-1.4.0/core/tcp.c ****     /* Since SOF_REUSEADDR allows reusing a local address, we have to make sure
 686:Libraries/lwip-1.4.0/core/tcp.c ****        now that the 5-tuple is unique. */
 687:Libraries/lwip-1.4.0/core/tcp.c ****     struct tcp_pcb *cpcb;
 688:Libraries/lwip-1.4.0/core/tcp.c ****     int i;
 689:Libraries/lwip-1.4.0/core/tcp.c ****     /* Don't check listen- and bound-PCBs, check active- and TIME-WAIT PCBs. */
 690:Libraries/lwip-1.4.0/core/tcp.c ****     for (i = 2; i < NUM_TCP_PCB_LISTS; i++) {
 691:Libraries/lwip-1.4.0/core/tcp.c ****       for(cpcb = *tcp_pcb_lists[i]; cpcb != NULL; cpcb = cpcb->next) {
 692:Libraries/lwip-1.4.0/core/tcp.c ****         if ((cpcb->local_port == pcb->local_port) &&
 693:Libraries/lwip-1.4.0/core/tcp.c ****             (cpcb->remote_port == port) &&
 694:Libraries/lwip-1.4.0/core/tcp.c ****             ip_addr_cmp(&cpcb->local_ip, &pcb->local_ip) &&
 695:Libraries/lwip-1.4.0/core/tcp.c ****             ip_addr_cmp(&cpcb->remote_ip, ipaddr)) {
 696:Libraries/lwip-1.4.0/core/tcp.c ****           /* linux returns EISCONN here, but ERR_USE should be OK for us */
 697:Libraries/lwip-1.4.0/core/tcp.c ****           return ERR_USE;
 698:Libraries/lwip-1.4.0/core/tcp.c ****         }
 699:Libraries/lwip-1.4.0/core/tcp.c ****       }
 700:Libraries/lwip-1.4.0/core/tcp.c ****     }
 701:Libraries/lwip-1.4.0/core/tcp.c ****   }
 702:Libraries/lwip-1.4.0/core/tcp.c **** #endif /* SO_REUSE */
 703:Libraries/lwip-1.4.0/core/tcp.c ****   iss = tcp_next_iss();
 1638              		.loc 1 703 0
 1639 0082 FFF7FEFF 		bl	tcp_next_iss
 1640 0086 7861     		str	r0, [r7, #20]
 704:Libraries/lwip-1.4.0/core/tcp.c ****   pcb->rcv_nxt = 0;
 1641              		.loc 1 704 0
 1642 0088 FB68     		ldr	r3, [r7, #12]
 1643 008a 0022     		movs	r2, #0
 1644 008c 5A62     		str	r2, [r3, #36]
 705:Libraries/lwip-1.4.0/core/tcp.c ****   pcb->snd_nxt = iss;
 1645              		.loc 1 705 0
 1646 008e FB68     		ldr	r3, [r7, #12]
 1647 0090 7A69     		ldr	r2, [r7, #20]
 1648 0092 9A65     		str	r2, [r3, #88]
 706:Libraries/lwip-1.4.0/core/tcp.c ****   pcb->lastack = iss - 1;
 1649              		.loc 1 706 0
 1650 0094 7B69     		ldr	r3, [r7, #20]
 1651 0096 5A1E     		subs	r2, r3, #1
 1652 0098 FB68     		ldr	r3, [r7, #12]
 1653 009a DA64     		str	r2, [r3, #76]
 707:Libraries/lwip-1.4.0/core/tcp.c ****   pcb->snd_lbb = iss - 1;
 1654              		.loc 1 707 0
 1655 009c 7B69     		ldr	r3, [r7, #20]
 1656 009e 5A1E     		subs	r2, r3, #1
 1657 00a0 FB68     		ldr	r3, [r7, #12]
 1658 00a2 9A66     		str	r2, [r3, #104]
 708:Libraries/lwip-1.4.0/core/tcp.c ****   pcb->rcv_wnd = TCP_WND;
 1659              		.loc 1 708 0
 1660 00a4 FB68     		ldr	r3, [r7, #12]
 1661 00a6 4FF40662 		mov	r2, #2144
 1662 00aa 1A85     		strh	r2, [r3, #40]	@ movhi
 709:Libraries/lwip-1.4.0/core/tcp.c ****   pcb->rcv_ann_wnd = TCP_WND;
 1663              		.loc 1 709 0
 1664 00ac FB68     		ldr	r3, [r7, #12]
 1665 00ae 4FF40662 		mov	r2, #2144
 1666 00b2 5A85     		strh	r2, [r3, #42]	@ movhi
 710:Libraries/lwip-1.4.0/core/tcp.c ****   pcb->rcv_ann_right_edge = pcb->rcv_nxt;
 1667              		.loc 1 710 0
 1668 00b4 FB68     		ldr	r3, [r7, #12]
 1669 00b6 5A6A     		ldr	r2, [r3, #36]
 1670 00b8 FB68     		ldr	r3, [r7, #12]
 1671 00ba DA62     		str	r2, [r3, #44]
 711:Libraries/lwip-1.4.0/core/tcp.c ****   pcb->snd_wnd = TCP_WND;
 1672              		.loc 1 711 0
 1673 00bc FB68     		ldr	r3, [r7, #12]
 1674 00be 4FF40662 		mov	r2, #2144
 1675 00c2 A3F85C20 		strh	r2, [r3, #92]	@ movhi
 712:Libraries/lwip-1.4.0/core/tcp.c ****   /* As initial send MSS, we use TCP_MSS but limit it to 536.
 713:Libraries/lwip-1.4.0/core/tcp.c ****      The send MSS is updated when an MSS option is received. */
 714:Libraries/lwip-1.4.0/core/tcp.c ****   pcb->mss = (TCP_MSS > 536) ? 536 : TCP_MSS;
 1676              		.loc 1 714 0
 1677 00c6 FB68     		ldr	r3, [r7, #12]
 1678 00c8 4FF40672 		mov	r2, #536
 1679 00cc 1A87     		strh	r2, [r3, #56]	@ movhi
 715:Libraries/lwip-1.4.0/core/tcp.c **** #if TCP_CALCULATE_EFF_SEND_MSS
 716:Libraries/lwip-1.4.0/core/tcp.c ****   pcb->mss = tcp_eff_send_mss(pcb->mss, ipaddr);
 1680              		.loc 1 716 0
 1681 00ce FB68     		ldr	r3, [r7, #12]
 1682 00d0 1B8F     		ldrh	r3, [r3, #56]
 1683 00d2 B968     		ldr	r1, [r7, #8]
 1684 00d4 1846     		mov	r0, r3
 1685 00d6 FFF7FEFF 		bl	tcp_eff_send_mss
 1686 00da 0346     		mov	r3, r0
 1687 00dc 1A46     		mov	r2, r3
 1688 00de FB68     		ldr	r3, [r7, #12]
 1689 00e0 1A87     		strh	r2, [r3, #56]	@ movhi
 717:Libraries/lwip-1.4.0/core/tcp.c **** #endif /* TCP_CALCULATE_EFF_SEND_MSS */
 718:Libraries/lwip-1.4.0/core/tcp.c ****   pcb->cwnd = 1;
 1690              		.loc 1 718 0
 1691 00e2 FB68     		ldr	r3, [r7, #12]
 1692 00e4 0122     		movs	r2, #1
 1693 00e6 A3F85220 		strh	r2, [r3, #82]	@ movhi
 719:Libraries/lwip-1.4.0/core/tcp.c ****   pcb->ssthresh = pcb->mss * 10;
 1694              		.loc 1 719 0
 1695 00ea FB68     		ldr	r3, [r7, #12]
 1696 00ec 1B8F     		ldrh	r3, [r3, #56]
 1697 00ee 1A46     		mov	r2, r3	@ movhi
 1698 00f0 9200     		lsls	r2, r2, #2
 1699 00f2 1344     		add	r3, r3, r2
 1700 00f4 5B00     		lsls	r3, r3, #1
 1701 00f6 9AB2     		uxth	r2, r3
 1702 00f8 FB68     		ldr	r3, [r7, #12]
 1703 00fa A3F85420 		strh	r2, [r3, #84]	@ movhi
 720:Libraries/lwip-1.4.0/core/tcp.c **** #if LWIP_CALLBACK_API
 721:Libraries/lwip-1.4.0/core/tcp.c ****   pcb->connected = connected;
 1704              		.loc 1 721 0
 1705 00fe FB68     		ldr	r3, [r7, #12]
 1706 0100 3A68     		ldr	r2, [r7]
 1707 0102 C3F88C20 		str	r2, [r3, #140]
 722:Libraries/lwip-1.4.0/core/tcp.c **** #else /* LWIP_CALLBACK_API */  
 723:Libraries/lwip-1.4.0/core/tcp.c ****   LWIP_UNUSED_ARG(connected);
 724:Libraries/lwip-1.4.0/core/tcp.c **** #endif /* LWIP_CALLBACK_API */
 725:Libraries/lwip-1.4.0/core/tcp.c **** 
 726:Libraries/lwip-1.4.0/core/tcp.c ****   /* Send a SYN together with the MSS option. */
 727:Libraries/lwip-1.4.0/core/tcp.c ****   ret = tcp_enqueue_flags(pcb, TCP_SYN);
 1708              		.loc 1 727 0
 1709 0106 0221     		movs	r1, #2
 1710 0108 F868     		ldr	r0, [r7, #12]
 1711 010a FFF7FEFF 		bl	tcp_enqueue_flags
 1712 010e 3861     		str	r0, [r7, #16]
 728:Libraries/lwip-1.4.0/core/tcp.c ****   if (ret == ERR_OK) {
 1713              		.loc 1 728 0
 1714 0110 3B69     		ldr	r3, [r7, #16]
 1715 0112 002B     		cmp	r3, #0
 1716 0114 39D1     		bne	.L121
 729:Libraries/lwip-1.4.0/core/tcp.c ****     /* SYN segment was enqueued, changed the pcbs state now */
 730:Libraries/lwip-1.4.0/core/tcp.c ****     pcb->state = SYN_SENT;
 1717              		.loc 1 730 0
 1718 0116 FB68     		ldr	r3, [r7, #12]
 1719 0118 0222     		movs	r2, #2
 1720 011a 1A74     		strb	r2, [r3, #16]
 731:Libraries/lwip-1.4.0/core/tcp.c ****     if (old_local_port != 0) {
 1721              		.loc 1 731 0
 1722 011c 7B8B     		ldrh	r3, [r7, #26]
 1723 011e 002B     		cmp	r3, #0
 1724 0120 27D0     		beq	.L122
 732:Libraries/lwip-1.4.0/core/tcp.c ****       TCP_RMV(&tcp_bound_pcbs, pcb);
 1725              		.loc 1 732 0
 1726 0122 1C4B     		ldr	r3, .L129
 1727 0124 1A68     		ldr	r2, [r3]
 1728 0126 FB68     		ldr	r3, [r7, #12]
 1729 0128 9A42     		cmp	r2, r3
 1730 012a 05D1     		bne	.L123
 1731              		.loc 1 732 0 is_stmt 0 discriminator 1
 1732 012c 194B     		ldr	r3, .L129
 1733 012e 1B68     		ldr	r3, [r3]
 1734 0130 DB68     		ldr	r3, [r3, #12]
 1735 0132 184A     		ldr	r2, .L129
 1736 0134 1360     		str	r3, [r2]
 1737 0136 19E0     		b	.L124
 1738              	.L123:
 1739              		.loc 1 732 0 discriminator 2
 1740 0138 164B     		ldr	r3, .L129
 1741 013a 1B68     		ldr	r3, [r3]
 1742 013c 164A     		ldr	r2, .L129+4
 1743 013e 1360     		str	r3, [r2]
 1744 0140 10E0     		b	.L125
 1745              	.L127:
 1746              		.loc 1 732 0 discriminator 9
 1747 0142 154B     		ldr	r3, .L129+4
 1748 0144 1B68     		ldr	r3, [r3]
 1749 0146 DA68     		ldr	r2, [r3, #12]
 1750 0148 FB68     		ldr	r3, [r7, #12]
 1751 014a 9A42     		cmp	r2, r3
 1752 014c 05D1     		bne	.L126
 1753              		.loc 1 732 0 discriminator 5
 1754 014e 124B     		ldr	r3, .L129+4
 1755 0150 1B68     		ldr	r3, [r3]
 1756 0152 FA68     		ldr	r2, [r7, #12]
 1757 0154 D268     		ldr	r2, [r2, #12]
 1758 0156 DA60     		str	r2, [r3, #12]
 1759 0158 08E0     		b	.L124
 1760              	.L126:
 1761              		.loc 1 732 0 discriminator 6
 1762 015a 0F4B     		ldr	r3, .L129+4
 1763 015c 1B68     		ldr	r3, [r3]
 1764 015e DB68     		ldr	r3, [r3, #12]
 1765 0160 0D4A     		ldr	r2, .L129+4
 1766 0162 1360     		str	r3, [r2]
 1767              	.L125:
 1768              		.loc 1 732 0 discriminator 8
 1769 0164 0C4B     		ldr	r3, .L129+4
 1770 0166 1B68     		ldr	r3, [r3]
 1771 0168 002B     		cmp	r3, #0
 1772 016a EAD1     		bne	.L127
 1773              	.L124:
 1774              		.loc 1 732 0 discriminator 10
 1775 016c FB68     		ldr	r3, [r7, #12]
 1776 016e 0022     		movs	r2, #0
 1777 0170 DA60     		str	r2, [r3, #12]
 1778              	.L122:
 733:Libraries/lwip-1.4.0/core/tcp.c ****     }
 734:Libraries/lwip-1.4.0/core/tcp.c ****     TCP_REG(&tcp_active_pcbs, pcb);
 1779              		.loc 1 734 0 is_stmt 1
 1780 0172 0A4B     		ldr	r3, .L129+8
 1781 0174 1A68     		ldr	r2, [r3]
 1782 0176 FB68     		ldr	r3, [r7, #12]
 1783 0178 DA60     		str	r2, [r3, #12]
 1784 017a 084A     		ldr	r2, .L129+8
 1785 017c FB68     		ldr	r3, [r7, #12]
 1786 017e 1360     		str	r3, [r2]
 1787 0180 FFF7FEFF 		bl	tcp_timer_needed
 735:Libraries/lwip-1.4.0/core/tcp.c ****     snmp_inc_tcpactiveopens();
 736:Libraries/lwip-1.4.0/core/tcp.c **** 
 737:Libraries/lwip-1.4.0/core/tcp.c ****     tcp_output(pcb);
 1788              		.loc 1 737 0
 1789 0184 F868     		ldr	r0, [r7, #12]
 1790 0186 FFF7FEFF 		bl	tcp_output
 1791              	.L121:
 738:Libraries/lwip-1.4.0/core/tcp.c ****   }
 739:Libraries/lwip-1.4.0/core/tcp.c ****   return ret;
 1792              		.loc 1 739 0
 1793 018a 3B69     		ldr	r3, [r7, #16]
 1794              	.L114:
 740:Libraries/lwip-1.4.0/core/tcp.c **** }
 1795              		.loc 1 740 0
 1796 018c 1846     		mov	r0, r3
 1797 018e 2037     		adds	r7, r7, #32
 1798              		.cfi_def_cfa_offset 8
 1799 0190 BD46     		mov	sp, r7
 1800              		.cfi_def_cfa_register 13
 1801              		@ sp needed
 1802 0192 80BD     		pop	{r7, pc}
 1803              	.L130:
 1804              		.align	2
 1805              	.L129:
 1806 0194 00000000 		.word	tcp_bound_pcbs
 1807 0198 00000000 		.word	tcp_tmp_pcb
 1808 019c 00000000 		.word	tcp_active_pcbs
 1809              		.cfi_endproc
 1810              	.LFE29:
 1812              		.section	.text.tcp_slowtmr,"ax",%progbits
 1813              		.align	2
 1814              		.global	tcp_slowtmr
 1815              		.thumb
 1816              		.thumb_func
 1818              	tcp_slowtmr:
 1819              	.LFB30:
 741:Libraries/lwip-1.4.0/core/tcp.c **** 
 742:Libraries/lwip-1.4.0/core/tcp.c **** /**
 743:Libraries/lwip-1.4.0/core/tcp.c ****  * Called every 500 ms and implements the retransmission timer and the timer that
 744:Libraries/lwip-1.4.0/core/tcp.c ****  * removes PCBs that have been in TIME-WAIT for enough time. It also increments
 745:Libraries/lwip-1.4.0/core/tcp.c ****  * various timers such as the inactivity timer in each PCB.
 746:Libraries/lwip-1.4.0/core/tcp.c ****  *
 747:Libraries/lwip-1.4.0/core/tcp.c ****  * Automatically called from tcp_tmr().
 748:Libraries/lwip-1.4.0/core/tcp.c ****  */
 749:Libraries/lwip-1.4.0/core/tcp.c **** void
 750:Libraries/lwip-1.4.0/core/tcp.c **** tcp_slowtmr(void)
 751:Libraries/lwip-1.4.0/core/tcp.c **** {
 1820              		.loc 1 751 0
 1821              		.cfi_startproc
 1822              		@ args = 0, pretend = 0, frame = 32
 1823              		@ frame_needed = 1, uses_anonymous_args = 0
 1824 0000 B0B5     		push	{r4, r5, r7, lr}
 1825              		.cfi_def_cfa_offset 16
 1826              		.cfi_offset 4, -16
 1827              		.cfi_offset 5, -12
 1828              		.cfi_offset 7, -8
 1829              		.cfi_offset 14, -4
 1830 0002 8AB0     		sub	sp, sp, #40
 1831              		.cfi_def_cfa_offset 56
 1832 0004 02AF     		add	r7, sp, #8
 1833              		.cfi_def_cfa 7, 48
 752:Libraries/lwip-1.4.0/core/tcp.c ****   struct tcp_pcb *pcb, *prev;
 753:Libraries/lwip-1.4.0/core/tcp.c ****   u16_t eff_wnd;
 754:Libraries/lwip-1.4.0/core/tcp.c ****   u8_t pcb_remove;      /* flag if a PCB should be removed */
 755:Libraries/lwip-1.4.0/core/tcp.c ****   u8_t pcb_reset;       /* flag if a RST should be sent when removing */
 756:Libraries/lwip-1.4.0/core/tcp.c ****   err_t err;
 757:Libraries/lwip-1.4.0/core/tcp.c **** 
 758:Libraries/lwip-1.4.0/core/tcp.c ****   err = ERR_OK;
 1834              		.loc 1 758 0
 1835 0006 0023     		movs	r3, #0
 1836 0008 3B61     		str	r3, [r7, #16]
 759:Libraries/lwip-1.4.0/core/tcp.c **** 
 760:Libraries/lwip-1.4.0/core/tcp.c ****   ++tcp_ticks;
 1837              		.loc 1 760 0
 1838 000a A54B     		ldr	r3, .L163
 1839 000c 1B68     		ldr	r3, [r3]
 1840 000e 0133     		adds	r3, r3, #1
 1841 0010 A34A     		ldr	r2, .L163
 1842 0012 1360     		str	r3, [r2]
 761:Libraries/lwip-1.4.0/core/tcp.c **** 
 762:Libraries/lwip-1.4.0/core/tcp.c ****   /* Steps through all of the active PCBs. */
 763:Libraries/lwip-1.4.0/core/tcp.c ****   prev = NULL;
 1843              		.loc 1 763 0
 1844 0014 0023     		movs	r3, #0
 1845 0016 BB61     		str	r3, [r7, #24]
 764:Libraries/lwip-1.4.0/core/tcp.c ****   pcb = tcp_active_pcbs;
 1846              		.loc 1 764 0
 1847 0018 A24B     		ldr	r3, .L163+4
 1848 001a 1B68     		ldr	r3, [r3]
 1849 001c FB61     		str	r3, [r7, #28]
 765:Libraries/lwip-1.4.0/core/tcp.c ****   if (pcb == NULL) {
 766:Libraries/lwip-1.4.0/core/tcp.c ****     LWIP_DEBUGF(TCP_DEBUG, ("tcp_slowtmr: no active pcbs\n"));
 767:Libraries/lwip-1.4.0/core/tcp.c ****   }
 768:Libraries/lwip-1.4.0/core/tcp.c ****   while (pcb != NULL) {
 1850              		.loc 1 768 0
 1851 001e ABE1     		b	.L132
 1852              	.L156:
 769:Libraries/lwip-1.4.0/core/tcp.c ****     LWIP_DEBUGF(TCP_DEBUG, ("tcp_slowtmr: processing active pcb\n"));
 770:Libraries/lwip-1.4.0/core/tcp.c ****     LWIP_ASSERT("tcp_slowtmr: active pcb->state != CLOSED\n", pcb->state != CLOSED);
 771:Libraries/lwip-1.4.0/core/tcp.c ****     LWIP_ASSERT("tcp_slowtmr: active pcb->state != LISTEN\n", pcb->state != LISTEN);
 772:Libraries/lwip-1.4.0/core/tcp.c ****     LWIP_ASSERT("tcp_slowtmr: active pcb->state != TIME-WAIT\n", pcb->state != TIME_WAIT);
 773:Libraries/lwip-1.4.0/core/tcp.c **** 
 774:Libraries/lwip-1.4.0/core/tcp.c ****     pcb_remove = 0;
 1853              		.loc 1 774 0
 1854 0020 0023     		movs	r3, #0
 1855 0022 FB75     		strb	r3, [r7, #23]
 775:Libraries/lwip-1.4.0/core/tcp.c ****     pcb_reset = 0;
 1856              		.loc 1 775 0
 1857 0024 0023     		movs	r3, #0
 1858 0026 BB75     		strb	r3, [r7, #22]
 776:Libraries/lwip-1.4.0/core/tcp.c **** 
 777:Libraries/lwip-1.4.0/core/tcp.c ****     if (pcb->state == SYN_SENT && pcb->nrtx == TCP_SYNMAXRTX) {
 1859              		.loc 1 777 0
 1860 0028 FB69     		ldr	r3, [r7, #28]
 1861 002a 1B7C     		ldrb	r3, [r3, #16]	@ zero_extendqisi2
 1862 002c 022B     		cmp	r3, #2
 1863 002e 08D1     		bne	.L133
 1864              		.loc 1 777 0 is_stmt 0 discriminator 1
 1865 0030 FB69     		ldr	r3, [r7, #28]
 1866 0032 93F84A30 		ldrb	r3, [r3, #74]	@ zero_extendqisi2
 1867 0036 062B     		cmp	r3, #6
 1868 0038 03D1     		bne	.L133
 778:Libraries/lwip-1.4.0/core/tcp.c ****       ++pcb_remove;
 1869              		.loc 1 778 0 is_stmt 1
 1870 003a FB7D     		ldrb	r3, [r7, #23]
 1871 003c 0133     		adds	r3, r3, #1
 1872 003e FB75     		strb	r3, [r7, #23]
 1873 0040 92E0     		b	.L134
 1874              	.L133:
 779:Libraries/lwip-1.4.0/core/tcp.c ****       LWIP_DEBUGF(TCP_DEBUG, ("tcp_slowtmr: max SYN retries reached\n"));
 780:Libraries/lwip-1.4.0/core/tcp.c ****     }
 781:Libraries/lwip-1.4.0/core/tcp.c ****     else if (pcb->nrtx == TCP_MAXRTX) {
 1875              		.loc 1 781 0
 1876 0042 FB69     		ldr	r3, [r7, #28]
 1877 0044 93F84A30 		ldrb	r3, [r3, #74]	@ zero_extendqisi2
 1878 0048 0C2B     		cmp	r3, #12
 1879 004a 03D1     		bne	.L135
 782:Libraries/lwip-1.4.0/core/tcp.c ****       ++pcb_remove;
 1880              		.loc 1 782 0
 1881 004c FB7D     		ldrb	r3, [r7, #23]
 1882 004e 0133     		adds	r3, r3, #1
 1883 0050 FB75     		strb	r3, [r7, #23]
 1884 0052 89E0     		b	.L134
 1885              	.L135:
 783:Libraries/lwip-1.4.0/core/tcp.c ****       LWIP_DEBUGF(TCP_DEBUG, ("tcp_slowtmr: max DATA retries reached\n"));
 784:Libraries/lwip-1.4.0/core/tcp.c ****     } else {
 785:Libraries/lwip-1.4.0/core/tcp.c ****       if (pcb->persist_backoff > 0) {
 1886              		.loc 1 785 0
 1887 0054 FB69     		ldr	r3, [r7, #28]
 1888 0056 93F8A030 		ldrb	r3, [r3, #160]	@ zero_extendqisi2
 1889 005a 002B     		cmp	r3, #0
 1890 005c 26D0     		beq	.L136
 786:Libraries/lwip-1.4.0/core/tcp.c ****         /* If snd_wnd is zero, use persist timer to send 1 byte probes
 787:Libraries/lwip-1.4.0/core/tcp.c ****          * instead of using the standard retransmission mechanism. */
 788:Libraries/lwip-1.4.0/core/tcp.c ****         pcb->persist_cnt++;
 1891              		.loc 1 788 0
 1892 005e FB69     		ldr	r3, [r7, #28]
 1893 0060 D3F89C30 		ldr	r3, [r3, #156]
 1894 0064 5A1C     		adds	r2, r3, #1
 1895 0066 FB69     		ldr	r3, [r7, #28]
 1896 0068 C3F89C20 		str	r2, [r3, #156]
 789:Libraries/lwip-1.4.0/core/tcp.c ****         if (pcb->persist_cnt >= tcp_persist_backoff[pcb->persist_backoff-1]) {
 1897              		.loc 1 789 0
 1898 006c FB69     		ldr	r3, [r7, #28]
 1899 006e D3F89C30 		ldr	r3, [r3, #156]
 1900 0072 FA69     		ldr	r2, [r7, #28]
 1901 0074 92F8A020 		ldrb	r2, [r2, #160]	@ zero_extendqisi2
 1902 0078 013A     		subs	r2, r2, #1
 1903 007a 8B49     		ldr	r1, .L163+8
 1904 007c 8A5C     		ldrb	r2, [r1, r2]	@ zero_extendqisi2
 1905 007e 9342     		cmp	r3, r2
 1906 0080 72D3     		bcc	.L134
 790:Libraries/lwip-1.4.0/core/tcp.c ****           pcb->persist_cnt = 0;
 1907              		.loc 1 790 0
 1908 0082 FB69     		ldr	r3, [r7, #28]
 1909 0084 0022     		movs	r2, #0
 1910 0086 C3F89C20 		str	r2, [r3, #156]
 791:Libraries/lwip-1.4.0/core/tcp.c ****           if (pcb->persist_backoff < sizeof(tcp_persist_backoff)) {
 1911              		.loc 1 791 0
 1912 008a FB69     		ldr	r3, [r7, #28]
 1913 008c 93F8A030 		ldrb	r3, [r3, #160]	@ zero_extendqisi2
 1914 0090 062B     		cmp	r3, #6
 1915 0092 07D8     		bhi	.L138
 792:Libraries/lwip-1.4.0/core/tcp.c ****             pcb->persist_backoff++;
 1916              		.loc 1 792 0
 1917 0094 FB69     		ldr	r3, [r7, #28]
 1918 0096 93F8A030 		ldrb	r3, [r3, #160]	@ zero_extendqisi2
 1919 009a 0133     		adds	r3, r3, #1
 1920 009c DAB2     		uxtb	r2, r3
 1921 009e FB69     		ldr	r3, [r7, #28]
 1922 00a0 83F8A020 		strb	r2, [r3, #160]
 1923              	.L138:
 793:Libraries/lwip-1.4.0/core/tcp.c ****           }
 794:Libraries/lwip-1.4.0/core/tcp.c ****           tcp_zero_window_probe(pcb);
 1924              		.loc 1 794 0
 1925 00a4 F869     		ldr	r0, [r7, #28]
 1926 00a6 FFF7FEFF 		bl	tcp_zero_window_probe
 1927 00aa 5DE0     		b	.L134
 1928              	.L136:
 795:Libraries/lwip-1.4.0/core/tcp.c ****         }
 796:Libraries/lwip-1.4.0/core/tcp.c ****       } else {
 797:Libraries/lwip-1.4.0/core/tcp.c ****         /* Increase the retransmission timer if it is running */
 798:Libraries/lwip-1.4.0/core/tcp.c ****         if(pcb->rtime >= 0)
 1929              		.loc 1 798 0
 1930 00ac FB69     		ldr	r3, [r7, #28]
 1931 00ae B3F93630 		ldrsh	r3, [r3, #54]
 1932 00b2 002B     		cmp	r3, #0
 1933 00b4 08DB     		blt	.L139
 799:Libraries/lwip-1.4.0/core/tcp.c ****           ++pcb->rtime;
 1934              		.loc 1 799 0
 1935 00b6 FB69     		ldr	r3, [r7, #28]
 1936 00b8 B3F93630 		ldrsh	r3, [r3, #54]
 1937 00bc 9BB2     		uxth	r3, r3
 1938 00be 0133     		adds	r3, r3, #1
 1939 00c0 9BB2     		uxth	r3, r3
 1940 00c2 1AB2     		sxth	r2, r3
 1941 00c4 FB69     		ldr	r3, [r7, #28]
 1942 00c6 DA86     		strh	r2, [r3, #54]	@ movhi
 1943              	.L139:
 800:Libraries/lwip-1.4.0/core/tcp.c **** 
 801:Libraries/lwip-1.4.0/core/tcp.c ****         if (pcb->unacked != NULL && pcb->rtime >= pcb->rto) {
 1944              		.loc 1 801 0
 1945 00c8 FB69     		ldr	r3, [r7, #28]
 1946 00ca 9B6F     		ldr	r3, [r3, #120]
 1947 00cc 002B     		cmp	r3, #0
 1948 00ce 4BD0     		beq	.L134
 1949              		.loc 1 801 0 is_stmt 0 discriminator 1
 1950 00d0 FB69     		ldr	r3, [r7, #28]
 1951 00d2 B3F93620 		ldrsh	r2, [r3, #54]
 1952 00d6 FB69     		ldr	r3, [r7, #28]
 1953 00d8 B3F94830 		ldrsh	r3, [r3, #72]
 1954 00dc 9A42     		cmp	r2, r3
 1955 00de 43DB     		blt	.L134
 802:Libraries/lwip-1.4.0/core/tcp.c ****           /* Time for a retransmission. */
 803:Libraries/lwip-1.4.0/core/tcp.c ****           LWIP_DEBUGF(TCP_RTO_DEBUG, ("tcp_slowtmr: rtime %"S16_F
 804:Libraries/lwip-1.4.0/core/tcp.c ****                                       " pcb->rto %"S16_F"\n",
 805:Libraries/lwip-1.4.0/core/tcp.c ****                                       pcb->rtime, pcb->rto));
 806:Libraries/lwip-1.4.0/core/tcp.c **** 
 807:Libraries/lwip-1.4.0/core/tcp.c ****           /* Double retransmission time-out unless we are trying to
 808:Libraries/lwip-1.4.0/core/tcp.c ****            * connect to somebody (i.e., we are in SYN_SENT). */
 809:Libraries/lwip-1.4.0/core/tcp.c ****           if (pcb->state != SYN_SENT) {
 1956              		.loc 1 809 0 is_stmt 1
 1957 00e0 FB69     		ldr	r3, [r7, #28]
 1958 00e2 1B7C     		ldrb	r3, [r3, #16]	@ zero_extendqisi2
 1959 00e4 022B     		cmp	r3, #2
 1960 00e6 14D0     		beq	.L140
 810:Libraries/lwip-1.4.0/core/tcp.c ****             pcb->rto = ((pcb->sa >> 3) + pcb->sv) << tcp_backoff[pcb->nrtx];
 1961              		.loc 1 810 0
 1962 00e8 FB69     		ldr	r3, [r7, #28]
 1963 00ea B3F94430 		ldrsh	r3, [r3, #68]
 1964 00ee DB10     		asrs	r3, r3, #3
 1965 00f0 1BB2     		sxth	r3, r3
 1966 00f2 1A46     		mov	r2, r3
 1967 00f4 FB69     		ldr	r3, [r7, #28]
 1968 00f6 B3F94630 		ldrsh	r3, [r3, #70]
 1969 00fa 1344     		add	r3, r3, r2
 1970 00fc FA69     		ldr	r2, [r7, #28]
 1971 00fe 92F84A20 		ldrb	r2, [r2, #74]	@ zero_extendqisi2
 1972 0102 1146     		mov	r1, r2
 1973 0104 694A     		ldr	r2, .L163+12
 1974 0106 525C     		ldrb	r2, [r2, r1]	@ zero_extendqisi2
 1975 0108 9340     		lsls	r3, r3, r2
 1976 010a 1AB2     		sxth	r2, r3
 1977 010c FB69     		ldr	r3, [r7, #28]
 1978 010e A3F84820 		strh	r2, [r3, #72]	@ movhi
 1979              	.L140:
 811:Libraries/lwip-1.4.0/core/tcp.c ****           }
 812:Libraries/lwip-1.4.0/core/tcp.c **** 
 813:Libraries/lwip-1.4.0/core/tcp.c ****           /* Reset the retransmission timer. */
 814:Libraries/lwip-1.4.0/core/tcp.c ****           pcb->rtime = 0;
 1980              		.loc 1 814 0
 1981 0112 FB69     		ldr	r3, [r7, #28]
 1982 0114 0022     		movs	r2, #0
 1983 0116 DA86     		strh	r2, [r3, #54]	@ movhi
 815:Libraries/lwip-1.4.0/core/tcp.c **** 
 816:Libraries/lwip-1.4.0/core/tcp.c ****           /* Reduce congestion window and ssthresh. */
 817:Libraries/lwip-1.4.0/core/tcp.c ****           eff_wnd = LWIP_MIN(pcb->cwnd, pcb->snd_wnd);
 1984              		.loc 1 817 0
 1985 0118 FB69     		ldr	r3, [r7, #28]
 1986 011a B3F85C20 		ldrh	r2, [r3, #92]
 1987 011e FB69     		ldr	r3, [r7, #28]
 1988 0120 B3F85230 		ldrh	r3, [r3, #82]
 1989 0124 9342     		cmp	r3, r2
 1990 0126 28BF     		it	cs
 1991 0128 1346     		movcs	r3, r2
 1992 012a FB81     		strh	r3, [r7, #14]	@ movhi
 818:Libraries/lwip-1.4.0/core/tcp.c ****           pcb->ssthresh = eff_wnd >> 1;
 1993              		.loc 1 818 0
 1994 012c FB89     		ldrh	r3, [r7, #14]
 1995 012e 5B08     		lsrs	r3, r3, #1
 1996 0130 9AB2     		uxth	r2, r3
 1997 0132 FB69     		ldr	r3, [r7, #28]
 1998 0134 A3F85420 		strh	r2, [r3, #84]	@ movhi
 819:Libraries/lwip-1.4.0/core/tcp.c ****           if (pcb->ssthresh < (pcb->mss << 1)) {
 1999              		.loc 1 819 0
 2000 0138 FB69     		ldr	r3, [r7, #28]
 2001 013a B3F85430 		ldrh	r3, [r3, #84]
 2002 013e 1A46     		mov	r2, r3
 2003 0140 FB69     		ldr	r3, [r7, #28]
 2004 0142 1B8F     		ldrh	r3, [r3, #56]
 2005 0144 5B00     		lsls	r3, r3, #1
 2006 0146 9A42     		cmp	r2, r3
 2007 0148 06DA     		bge	.L141
 820:Libraries/lwip-1.4.0/core/tcp.c ****             pcb->ssthresh = (pcb->mss << 1);
 2008              		.loc 1 820 0
 2009 014a FB69     		ldr	r3, [r7, #28]
 2010 014c 1B8F     		ldrh	r3, [r3, #56]
 2011 014e 5B00     		lsls	r3, r3, #1
 2012 0150 9AB2     		uxth	r2, r3
 2013 0152 FB69     		ldr	r3, [r7, #28]
 2014 0154 A3F85420 		strh	r2, [r3, #84]	@ movhi
 2015              	.L141:
 821:Libraries/lwip-1.4.0/core/tcp.c ****           }
 822:Libraries/lwip-1.4.0/core/tcp.c ****           pcb->cwnd = pcb->mss;
 2016              		.loc 1 822 0
 2017 0158 FB69     		ldr	r3, [r7, #28]
 2018 015a 1A8F     		ldrh	r2, [r3, #56]
 2019 015c FB69     		ldr	r3, [r7, #28]
 2020 015e A3F85220 		strh	r2, [r3, #82]	@ movhi
 823:Libraries/lwip-1.4.0/core/tcp.c ****           LWIP_DEBUGF(TCP_CWND_DEBUG, ("tcp_slowtmr: cwnd %"U16_F
 824:Libraries/lwip-1.4.0/core/tcp.c ****                                        " ssthresh %"U16_F"\n",
 825:Libraries/lwip-1.4.0/core/tcp.c ****                                        pcb->cwnd, pcb->ssthresh));
 826:Libraries/lwip-1.4.0/core/tcp.c ****  
 827:Libraries/lwip-1.4.0/core/tcp.c ****           /* The following needs to be called AFTER cwnd is set to one
 828:Libraries/lwip-1.4.0/core/tcp.c ****              mss - STJ */
 829:Libraries/lwip-1.4.0/core/tcp.c ****           tcp_rexmit_rto(pcb);
 2021              		.loc 1 829 0
 2022 0162 F869     		ldr	r0, [r7, #28]
 2023 0164 FFF7FEFF 		bl	tcp_rexmit_rto
 2024              	.L134:
 830:Libraries/lwip-1.4.0/core/tcp.c ****         }
 831:Libraries/lwip-1.4.0/core/tcp.c ****       }
 832:Libraries/lwip-1.4.0/core/tcp.c ****     }
 833:Libraries/lwip-1.4.0/core/tcp.c ****     /* Check if this PCB has stayed too long in FIN-WAIT-2 */
 834:Libraries/lwip-1.4.0/core/tcp.c ****     if (pcb->state == FIN_WAIT_2) {
 2025              		.loc 1 834 0
 2026 0168 FB69     		ldr	r3, [r7, #28]
 2027 016a 1B7C     		ldrb	r3, [r3, #16]	@ zero_extendqisi2
 2028 016c 062B     		cmp	r3, #6
 2029 016e 09D1     		bne	.L142
 835:Libraries/lwip-1.4.0/core/tcp.c ****       if ((u32_t)(tcp_ticks - pcb->tmr) >
 2030              		.loc 1 835 0
 2031 0170 4B4B     		ldr	r3, .L163
 2032 0172 1A68     		ldr	r2, [r3]
 2033 0174 FB69     		ldr	r3, [r7, #28]
 2034 0176 1B6B     		ldr	r3, [r3, #48]
 2035 0178 D31A     		subs	r3, r2, r3
 2036 017a 282B     		cmp	r3, #40
 2037 017c 02D9     		bls	.L142
 836:Libraries/lwip-1.4.0/core/tcp.c ****           TCP_FIN_WAIT_TIMEOUT / TCP_SLOW_INTERVAL) {
 837:Libraries/lwip-1.4.0/core/tcp.c ****         ++pcb_remove;
 2038              		.loc 1 837 0
 2039 017e FB7D     		ldrb	r3, [r7, #23]
 2040 0180 0133     		adds	r3, r3, #1
 2041 0182 FB75     		strb	r3, [r7, #23]
 2042              	.L142:
 838:Libraries/lwip-1.4.0/core/tcp.c ****         LWIP_DEBUGF(TCP_DEBUG, ("tcp_slowtmr: removing pcb stuck in FIN-WAIT-2\n"));
 839:Libraries/lwip-1.4.0/core/tcp.c ****       }
 840:Libraries/lwip-1.4.0/core/tcp.c ****     }
 841:Libraries/lwip-1.4.0/core/tcp.c **** 
 842:Libraries/lwip-1.4.0/core/tcp.c ****     /* Check if KEEPALIVE should be sent */
 843:Libraries/lwip-1.4.0/core/tcp.c ****     if((pcb->so_options & SOF_KEEPALIVE) &&
 2043              		.loc 1 843 0
 2044 0184 FB69     		ldr	r3, [r7, #28]
 2045 0186 1B7A     		ldrb	r3, [r3, #8]	@ zero_extendqisi2
 2046 0188 03F00803 		and	r3, r3, #8
 2047 018c 002B     		cmp	r3, #0
 2048 018e 41D0     		beq	.L143
 844:Libraries/lwip-1.4.0/core/tcp.c ****        ((pcb->state == ESTABLISHED) ||
 2049              		.loc 1 844 0 discriminator 1
 2050 0190 FB69     		ldr	r3, [r7, #28]
 2051 0192 1B7C     		ldrb	r3, [r3, #16]	@ zero_extendqisi2
 843:Libraries/lwip-1.4.0/core/tcp.c ****        ((pcb->state == ESTABLISHED) ||
 2052              		.loc 1 843 0 discriminator 1
 2053 0194 042B     		cmp	r3, #4
 2054 0196 03D0     		beq	.L144
 845:Libraries/lwip-1.4.0/core/tcp.c ****         (pcb->state == CLOSE_WAIT))) {
 2055              		.loc 1 845 0
 2056 0198 FB69     		ldr	r3, [r7, #28]
 2057 019a 1B7C     		ldrb	r3, [r3, #16]	@ zero_extendqisi2
 844:Libraries/lwip-1.4.0/core/tcp.c ****        ((pcb->state == ESTABLISHED) ||
 2058              		.loc 1 844 0
 2059 019c 072B     		cmp	r3, #7
 2060 019e 39D1     		bne	.L143
 2061              	.L144:
 846:Libraries/lwip-1.4.0/core/tcp.c **** #if LWIP_TCP_KEEPALIVE
 847:Libraries/lwip-1.4.0/core/tcp.c ****       if((u32_t)(tcp_ticks - pcb->tmr) >
 848:Libraries/lwip-1.4.0/core/tcp.c ****          (pcb->keep_idle + (pcb->keep_cnt*pcb->keep_intvl))
 849:Libraries/lwip-1.4.0/core/tcp.c ****          / TCP_SLOW_INTERVAL)
 850:Libraries/lwip-1.4.0/core/tcp.c **** #else      
 851:Libraries/lwip-1.4.0/core/tcp.c ****       if((u32_t)(tcp_ticks - pcb->tmr) >
 2062              		.loc 1 851 0
 2063 01a0 3F4B     		ldr	r3, .L163
 2064 01a2 1A68     		ldr	r2, [r3]
 2065 01a4 FB69     		ldr	r3, [r7, #28]
 2066 01a6 1B6B     		ldr	r3, [r3, #48]
 2067 01a8 D21A     		subs	r2, r2, r3
 852:Libraries/lwip-1.4.0/core/tcp.c ****          (pcb->keep_idle + TCP_MAXIDLE) / TCP_SLOW_INTERVAL)
 2068              		.loc 1 852 0
 2069 01aa FB69     		ldr	r3, [r7, #28]
 2070 01ac D3F89830 		ldr	r3, [r3, #152]
 2071 01b0 03F52423 		add	r3, r3, #671744
 2072 01b4 03F6B843 		addw	r3, r3, #3256
 2073 01b8 3D49     		ldr	r1, .L163+16
 2074 01ba A1FB0313 		umull	r1, r3, r1, r3
 2075 01be 5B09     		lsrs	r3, r3, #5
 851:Libraries/lwip-1.4.0/core/tcp.c ****          (pcb->keep_idle + TCP_MAXIDLE) / TCP_SLOW_INTERVAL)
 2076              		.loc 1 851 0
 2077 01c0 9A42     		cmp	r2, r3
 2078 01c2 06D9     		bls	.L145
 853:Libraries/lwip-1.4.0/core/tcp.c **** #endif /* LWIP_TCP_KEEPALIVE */
 854:Libraries/lwip-1.4.0/core/tcp.c ****       {
 855:Libraries/lwip-1.4.0/core/tcp.c ****         LWIP_DEBUGF(TCP_DEBUG, ("tcp_slowtmr: KEEPALIVE timeout. Aborting connection to %"U16_F".%"
 856:Libraries/lwip-1.4.0/core/tcp.c ****                                 ip4_addr1_16(&pcb->remote_ip), ip4_addr2_16(&pcb->remote_ip),
 857:Libraries/lwip-1.4.0/core/tcp.c ****                                 ip4_addr3_16(&pcb->remote_ip), ip4_addr4_16(&pcb->remote_ip)));
 858:Libraries/lwip-1.4.0/core/tcp.c ****         
 859:Libraries/lwip-1.4.0/core/tcp.c ****         ++pcb_remove;
 2079              		.loc 1 859 0
 2080 01c4 FB7D     		ldrb	r3, [r7, #23]
 2081 01c6 0133     		adds	r3, r3, #1
 2082 01c8 FB75     		strb	r3, [r7, #23]
 860:Libraries/lwip-1.4.0/core/tcp.c ****         ++pcb_reset;
 2083              		.loc 1 860 0
 2084 01ca BB7D     		ldrb	r3, [r7, #22]
 2085 01cc 0133     		adds	r3, r3, #1
 2086 01ce BB75     		strb	r3, [r7, #22]
 2087 01d0 20E0     		b	.L143
 2088              	.L145:
 861:Libraries/lwip-1.4.0/core/tcp.c ****       }
 862:Libraries/lwip-1.4.0/core/tcp.c **** #if LWIP_TCP_KEEPALIVE
 863:Libraries/lwip-1.4.0/core/tcp.c ****       else if((u32_t)(tcp_ticks - pcb->tmr) > 
 864:Libraries/lwip-1.4.0/core/tcp.c ****               (pcb->keep_idle + pcb->keep_cnt_sent * pcb->keep_intvl)
 865:Libraries/lwip-1.4.0/core/tcp.c ****               / TCP_SLOW_INTERVAL)
 866:Libraries/lwip-1.4.0/core/tcp.c **** #else
 867:Libraries/lwip-1.4.0/core/tcp.c ****       else if((u32_t)(tcp_ticks - pcb->tmr) > 
 2089              		.loc 1 867 0
 2090 01d2 334B     		ldr	r3, .L163
 2091 01d4 1A68     		ldr	r2, [r3]
 2092 01d6 FB69     		ldr	r3, [r7, #28]
 2093 01d8 1B6B     		ldr	r3, [r3, #48]
 2094 01da D21A     		subs	r2, r2, r3
 868:Libraries/lwip-1.4.0/core/tcp.c ****               (pcb->keep_idle + pcb->keep_cnt_sent * TCP_KEEPINTVL_DEFAULT) 
 2095              		.loc 1 868 0
 2096 01dc FB69     		ldr	r3, [r7, #28]
 2097 01de D3F89810 		ldr	r1, [r3, #152]
 2098 01e2 FB69     		ldr	r3, [r7, #28]
 2099 01e4 93F8A130 		ldrb	r3, [r3, #161]	@ zero_extendqisi2
 2100 01e8 1846     		mov	r0, r3
 2101 01ea 324B     		ldr	r3, .L163+20
 2102 01ec 03FB00F3 		mul	r3, r3, r0
 2103 01f0 0B44     		add	r3, r3, r1
 869:Libraries/lwip-1.4.0/core/tcp.c ****               / TCP_SLOW_INTERVAL)
 2104              		.loc 1 869 0
 2105 01f2 2F49     		ldr	r1, .L163+16
 2106 01f4 A1FB0313 		umull	r1, r3, r1, r3
 2107 01f8 5B09     		lsrs	r3, r3, #5
 867:Libraries/lwip-1.4.0/core/tcp.c ****               (pcb->keep_idle + pcb->keep_cnt_sent * TCP_KEEPINTVL_DEFAULT) 
 2108              		.loc 1 867 0
 2109 01fa 9A42     		cmp	r2, r3
 2110 01fc 0AD9     		bls	.L143
 870:Libraries/lwip-1.4.0/core/tcp.c **** #endif /* LWIP_TCP_KEEPALIVE */
 871:Libraries/lwip-1.4.0/core/tcp.c ****       {
 872:Libraries/lwip-1.4.0/core/tcp.c ****         tcp_keepalive(pcb);
 2111              		.loc 1 872 0
 2112 01fe F869     		ldr	r0, [r7, #28]
 2113 0200 FFF7FEFF 		bl	tcp_keepalive
 873:Libraries/lwip-1.4.0/core/tcp.c ****         pcb->keep_cnt_sent++;
 2114              		.loc 1 873 0
 2115 0204 FB69     		ldr	r3, [r7, #28]
 2116 0206 93F8A130 		ldrb	r3, [r3, #161]	@ zero_extendqisi2
 2117 020a 0133     		adds	r3, r3, #1
 2118 020c DAB2     		uxtb	r2, r3
 2119 020e FB69     		ldr	r3, [r7, #28]
 2120 0210 83F8A120 		strb	r2, [r3, #161]
 2121              	.L143:
 874:Libraries/lwip-1.4.0/core/tcp.c ****       }
 875:Libraries/lwip-1.4.0/core/tcp.c ****     }
 876:Libraries/lwip-1.4.0/core/tcp.c **** 
 877:Libraries/lwip-1.4.0/core/tcp.c ****     /* If this PCB has queued out of sequence data, but has been
 878:Libraries/lwip-1.4.0/core/tcp.c ****        inactive for too long, will drop the data (it will eventually
 879:Libraries/lwip-1.4.0/core/tcp.c ****        be retransmitted). */
 880:Libraries/lwip-1.4.0/core/tcp.c **** #if TCP_QUEUE_OOSEQ
 881:Libraries/lwip-1.4.0/core/tcp.c ****     if (pcb->ooseq != NULL &&
 2122              		.loc 1 881 0
 2123 0214 FB69     		ldr	r3, [r7, #28]
 2124 0216 DB6F     		ldr	r3, [r3, #124]
 2125 0218 002B     		cmp	r3, #0
 2126 021a 16D0     		beq	.L146
 882:Libraries/lwip-1.4.0/core/tcp.c ****         (u32_t)tcp_ticks - pcb->tmr >= pcb->rto * TCP_OOSEQ_TIMEOUT) {
 2127              		.loc 1 882 0 discriminator 1
 2128 021c 204B     		ldr	r3, .L163
 2129 021e 1A68     		ldr	r2, [r3]
 2130 0220 FB69     		ldr	r3, [r7, #28]
 2131 0222 1B6B     		ldr	r3, [r3, #48]
 2132 0224 D21A     		subs	r2, r2, r3
 2133 0226 FB69     		ldr	r3, [r7, #28]
 2134 0228 B3F94830 		ldrsh	r3, [r3, #72]
 2135 022c 1946     		mov	r1, r3
 2136 022e 0B46     		mov	r3, r1
 2137 0230 5B00     		lsls	r3, r3, #1
 2138 0232 0B44     		add	r3, r3, r1
 2139 0234 5B00     		lsls	r3, r3, #1
 881:Libraries/lwip-1.4.0/core/tcp.c ****         (u32_t)tcp_ticks - pcb->tmr >= pcb->rto * TCP_OOSEQ_TIMEOUT) {
 2140              		.loc 1 881 0 discriminator 1
 2141 0236 9A42     		cmp	r2, r3
 2142 0238 07D3     		bcc	.L146
 883:Libraries/lwip-1.4.0/core/tcp.c ****       tcp_segs_free(pcb->ooseq);
 2143              		.loc 1 883 0
 2144 023a FB69     		ldr	r3, [r7, #28]
 2145 023c DB6F     		ldr	r3, [r3, #124]
 2146 023e 1846     		mov	r0, r3
 2147 0240 FFF7FEFF 		bl	tcp_segs_free
 884:Libraries/lwip-1.4.0/core/tcp.c ****       pcb->ooseq = NULL;
 2148              		.loc 1 884 0
 2149 0244 FB69     		ldr	r3, [r7, #28]
 2150 0246 0022     		movs	r2, #0
 2151 0248 DA67     		str	r2, [r3, #124]
 2152              	.L146:
 885:Libraries/lwip-1.4.0/core/tcp.c ****       LWIP_DEBUGF(TCP_CWND_DEBUG, ("tcp_slowtmr: dropping OOSEQ queued data\n"));
 886:Libraries/lwip-1.4.0/core/tcp.c ****     }
 887:Libraries/lwip-1.4.0/core/tcp.c **** #endif /* TCP_QUEUE_OOSEQ */
 888:Libraries/lwip-1.4.0/core/tcp.c **** 
 889:Libraries/lwip-1.4.0/core/tcp.c ****     /* Check if this PCB has stayed too long in SYN-RCVD */
 890:Libraries/lwip-1.4.0/core/tcp.c ****     if (pcb->state == SYN_RCVD) {
 2153              		.loc 1 890 0
 2154 024a FB69     		ldr	r3, [r7, #28]
 2155 024c 1B7C     		ldrb	r3, [r3, #16]	@ zero_extendqisi2
 2156 024e 032B     		cmp	r3, #3
 2157 0250 09D1     		bne	.L147
 891:Libraries/lwip-1.4.0/core/tcp.c ****       if ((u32_t)(tcp_ticks - pcb->tmr) >
 2158              		.loc 1 891 0
 2159 0252 134B     		ldr	r3, .L163
 2160 0254 1A68     		ldr	r2, [r3]
 2161 0256 FB69     		ldr	r3, [r7, #28]
 2162 0258 1B6B     		ldr	r3, [r3, #48]
 2163 025a D31A     		subs	r3, r2, r3
 2164 025c 282B     		cmp	r3, #40
 2165 025e 02D9     		bls	.L147
 892:Libraries/lwip-1.4.0/core/tcp.c ****           TCP_SYN_RCVD_TIMEOUT / TCP_SLOW_INTERVAL) {
 893:Libraries/lwip-1.4.0/core/tcp.c ****         ++pcb_remove;
 2166              		.loc 1 893 0
 2167 0260 FB7D     		ldrb	r3, [r7, #23]
 2168 0262 0133     		adds	r3, r3, #1
 2169 0264 FB75     		strb	r3, [r7, #23]
 2170              	.L147:
 894:Libraries/lwip-1.4.0/core/tcp.c ****         LWIP_DEBUGF(TCP_DEBUG, ("tcp_slowtmr: removing pcb stuck in SYN-RCVD\n"));
 895:Libraries/lwip-1.4.0/core/tcp.c ****       }
 896:Libraries/lwip-1.4.0/core/tcp.c ****     }
 897:Libraries/lwip-1.4.0/core/tcp.c **** 
 898:Libraries/lwip-1.4.0/core/tcp.c ****     /* Check if this PCB has stayed too long in LAST-ACK */
 899:Libraries/lwip-1.4.0/core/tcp.c ****     if (pcb->state == LAST_ACK) {
 2171              		.loc 1 899 0
 2172 0266 FB69     		ldr	r3, [r7, #28]
 2173 0268 1B7C     		ldrb	r3, [r3, #16]	@ zero_extendqisi2
 2174 026a 092B     		cmp	r3, #9
 2175 026c 09D1     		bne	.L148
 900:Libraries/lwip-1.4.0/core/tcp.c ****       if ((u32_t)(tcp_ticks - pcb->tmr) > 2 * TCP_MSL / TCP_SLOW_INTERVAL) {
 2176              		.loc 1 900 0
 2177 026e 0C4B     		ldr	r3, .L163
 2178 0270 1A68     		ldr	r2, [r3]
 2179 0272 FB69     		ldr	r3, [r7, #28]
 2180 0274 1B6B     		ldr	r3, [r3, #48]
 2181 0276 D31A     		subs	r3, r2, r3
 2182 0278 F02B     		cmp	r3, #240
 2183 027a 02D9     		bls	.L148
 901:Libraries/lwip-1.4.0/core/tcp.c ****         ++pcb_remove;
 2184              		.loc 1 901 0
 2185 027c FB7D     		ldrb	r3, [r7, #23]
 2186 027e 0133     		adds	r3, r3, #1
 2187 0280 FB75     		strb	r3, [r7, #23]
 2188              	.L148:
 902:Libraries/lwip-1.4.0/core/tcp.c ****         LWIP_DEBUGF(TCP_DEBUG, ("tcp_slowtmr: removing pcb stuck in LAST-ACK\n"));
 903:Libraries/lwip-1.4.0/core/tcp.c ****       }
 904:Libraries/lwip-1.4.0/core/tcp.c ****     }
 905:Libraries/lwip-1.4.0/core/tcp.c **** 
 906:Libraries/lwip-1.4.0/core/tcp.c ****     /* If the PCB should be removed, do it. */
 907:Libraries/lwip-1.4.0/core/tcp.c ****     if (pcb_remove) {
 2189              		.loc 1 907 0
 2190 0282 FB7D     		ldrb	r3, [r7, #23]	@ zero_extendqisi2
 2191 0284 002B     		cmp	r3, #0
 2192 0286 47D0     		beq	.L149
 2193              	.LBB4:
 908:Libraries/lwip-1.4.0/core/tcp.c ****       struct tcp_pcb *pcb2;
 909:Libraries/lwip-1.4.0/core/tcp.c ****       tcp_pcb_purge(pcb);
 2194              		.loc 1 909 0
 2195 0288 F869     		ldr	r0, [r7, #28]
 2196 028a FFF7FEFF 		bl	tcp_pcb_purge
 910:Libraries/lwip-1.4.0/core/tcp.c ****       /* Remove PCB from tcp_active_pcbs list. */
 911:Libraries/lwip-1.4.0/core/tcp.c ****       if (prev != NULL) {
 2197              		.loc 1 911 0
 2198 028e BB69     		ldr	r3, [r7, #24]
 2199 0290 002B     		cmp	r3, #0
 2200 0292 11D0     		beq	.L150
 912:Libraries/lwip-1.4.0/core/tcp.c ****         LWIP_ASSERT("tcp_slowtmr: middle tcp != tcp_active_pcbs", pcb != tcp_active_pcbs);
 913:Libraries/lwip-1.4.0/core/tcp.c ****         prev->next = pcb->next;
 2201              		.loc 1 913 0
 2202 0294 FB69     		ldr	r3, [r7, #28]
 2203 0296 DA68     		ldr	r2, [r3, #12]
 2204 0298 BB69     		ldr	r3, [r7, #24]
 2205 029a DA60     		str	r2, [r3, #12]
 2206 029c 10E0     		b	.L151
 2207              	.L164:
 2208 029e 00BF     		.align	2
 2209              	.L163:
 2210 02a0 00000000 		.word	tcp_ticks
 2211 02a4 00000000 		.word	tcp_active_pcbs
 2212 02a8 00000000 		.word	tcp_persist_backoff
 2213 02ac 00000000 		.word	tcp_backoff
 2214 02b0 D34D6210 		.word	274877907
 2215 02b4 F8240100 		.word	75000
 2216              	.L150:
 914:Libraries/lwip-1.4.0/core/tcp.c ****       } else {
 915:Libraries/lwip-1.4.0/core/tcp.c ****         /* This PCB was the first. */
 916:Libraries/lwip-1.4.0/core/tcp.c ****         LWIP_ASSERT("tcp_slowtmr: first pcb == tcp_active_pcbs", tcp_active_pcbs == pcb);
 917:Libraries/lwip-1.4.0/core/tcp.c ****         tcp_active_pcbs = pcb->next;
 2217              		.loc 1 917 0
 2218 02b8 FB69     		ldr	r3, [r7, #28]
 2219 02ba DB68     		ldr	r3, [r3, #12]
 2220 02bc 4D4A     		ldr	r2, .L165
 2221 02be 1360     		str	r3, [r2]
 2222              	.L151:
 918:Libraries/lwip-1.4.0/core/tcp.c ****       }
 919:Libraries/lwip-1.4.0/core/tcp.c **** 
 920:Libraries/lwip-1.4.0/core/tcp.c ****       TCP_EVENT_ERR(pcb->errf, pcb->callback_arg, ERR_ABRT);
 2223              		.loc 1 920 0
 2224 02c0 FB69     		ldr	r3, [r7, #28]
 2225 02c2 D3F89430 		ldr	r3, [r3, #148]
 2226 02c6 002B     		cmp	r3, #0
 2227 02c8 08D0     		beq	.L152
 2228              		.loc 1 920 0 is_stmt 0 discriminator 1
 2229 02ca FB69     		ldr	r3, [r7, #28]
 2230 02cc D3F89430 		ldr	r3, [r3, #148]
 2231 02d0 FA69     		ldr	r2, [r7, #28]
 2232 02d2 5269     		ldr	r2, [r2, #20]
 2233 02d4 6FF00901 		mvn	r1, #9
 2234 02d8 1046     		mov	r0, r2
 2235 02da 9847     		blx	r3
 2236              	.L152:
 921:Libraries/lwip-1.4.0/core/tcp.c ****       if (pcb_reset) {
 2237              		.loc 1 921 0 is_stmt 1
 2238 02dc BB7D     		ldrb	r3, [r7, #22]	@ zero_extendqisi2
 2239 02de 002B     		cmp	r3, #0
 2240 02e0 10D0     		beq	.L153
 922:Libraries/lwip-1.4.0/core/tcp.c ****         tcp_rst(pcb->snd_nxt, pcb->rcv_nxt, &pcb->local_ip, &pcb->remote_ip,
 2241              		.loc 1 922 0
 2242 02e2 FB69     		ldr	r3, [r7, #28]
 2243 02e4 986D     		ldr	r0, [r3, #88]
 2244 02e6 FB69     		ldr	r3, [r7, #28]
 2245 02e8 596A     		ldr	r1, [r3, #36]
 2246 02ea FC69     		ldr	r4, [r7, #28]
 2247 02ec FB69     		ldr	r3, [r7, #28]
 2248 02ee 1D1D     		adds	r5, r3, #4
 2249 02f0 FB69     		ldr	r3, [r7, #28]
 2250 02f2 9B8B     		ldrh	r3, [r3, #28]
 2251 02f4 FA69     		ldr	r2, [r7, #28]
 2252 02f6 D28B     		ldrh	r2, [r2, #30]
 2253 02f8 0192     		str	r2, [sp, #4]
 2254 02fa 0093     		str	r3, [sp]
 2255 02fc 2B46     		mov	r3, r5
 2256 02fe 2246     		mov	r2, r4
 2257 0300 FFF7FEFF 		bl	tcp_rst
 2258              	.L153:
 923:Libraries/lwip-1.4.0/core/tcp.c ****           pcb->local_port, pcb->remote_port);
 924:Libraries/lwip-1.4.0/core/tcp.c ****       }
 925:Libraries/lwip-1.4.0/core/tcp.c **** 
 926:Libraries/lwip-1.4.0/core/tcp.c ****       pcb2 = pcb;
 2259              		.loc 1 926 0
 2260 0304 FB69     		ldr	r3, [r7, #28]
 2261 0306 BB60     		str	r3, [r7, #8]
 927:Libraries/lwip-1.4.0/core/tcp.c ****       pcb = pcb->next;
 2262              		.loc 1 927 0
 2263 0308 FB69     		ldr	r3, [r7, #28]
 2264 030a DB68     		ldr	r3, [r3, #12]
 2265 030c FB61     		str	r3, [r7, #28]
 928:Libraries/lwip-1.4.0/core/tcp.c ****       memp_free(MEMP_TCP_PCB, pcb2);
 2266              		.loc 1 928 0
 2267 030e B968     		ldr	r1, [r7, #8]
 2268 0310 0220     		movs	r0, #2
 2269 0312 FFF7FEFF 		bl	memp_free
 2270              	.LBE4:
 2271 0316 2FE0     		b	.L132
 2272              	.L149:
 929:Libraries/lwip-1.4.0/core/tcp.c ****     } else {
 930:Libraries/lwip-1.4.0/core/tcp.c ****       /* get the 'next' element now and work with 'prev' below (in case of abort) */
 931:Libraries/lwip-1.4.0/core/tcp.c ****       prev = pcb;
 2273              		.loc 1 931 0
 2274 0318 FB69     		ldr	r3, [r7, #28]
 2275 031a BB61     		str	r3, [r7, #24]
 932:Libraries/lwip-1.4.0/core/tcp.c ****       pcb = pcb->next;
 2276              		.loc 1 932 0
 2277 031c FB69     		ldr	r3, [r7, #28]
 2278 031e DB68     		ldr	r3, [r3, #12]
 2279 0320 FB61     		str	r3, [r7, #28]
 933:Libraries/lwip-1.4.0/core/tcp.c **** 
 934:Libraries/lwip-1.4.0/core/tcp.c ****       /* We check if we should poll the connection. */
 935:Libraries/lwip-1.4.0/core/tcp.c ****       ++prev->polltmr;
 2280              		.loc 1 935 0
 2281 0322 BB69     		ldr	r3, [r7, #24]
 2282 0324 93F83430 		ldrb	r3, [r3, #52]	@ zero_extendqisi2
 2283 0328 0133     		adds	r3, r3, #1
 2284 032a DAB2     		uxtb	r2, r3
 2285 032c BB69     		ldr	r3, [r7, #24]
 2286 032e 83F83420 		strb	r2, [r3, #52]
 936:Libraries/lwip-1.4.0/core/tcp.c ****       if (prev->polltmr >= prev->pollinterval) {
 2287              		.loc 1 936 0
 2288 0332 BB69     		ldr	r3, [r7, #24]
 2289 0334 93F83420 		ldrb	r2, [r3, #52]	@ zero_extendqisi2
 2290 0338 BB69     		ldr	r3, [r7, #24]
 2291 033a 93F83530 		ldrb	r3, [r3, #53]	@ zero_extendqisi2
 2292 033e 9A42     		cmp	r2, r3
 2293 0340 1AD3     		bcc	.L132
 937:Libraries/lwip-1.4.0/core/tcp.c ****         prev->polltmr = 0;
 2294              		.loc 1 937 0
 2295 0342 BB69     		ldr	r3, [r7, #24]
 2296 0344 0022     		movs	r2, #0
 2297 0346 83F83420 		strb	r2, [r3, #52]
 938:Libraries/lwip-1.4.0/core/tcp.c ****         LWIP_DEBUGF(TCP_DEBUG, ("tcp_slowtmr: polling application\n"));
 939:Libraries/lwip-1.4.0/core/tcp.c ****         TCP_EVENT_POLL(prev, err);
 2298              		.loc 1 939 0
 2299 034a BB69     		ldr	r3, [r7, #24]
 2300 034c D3F89030 		ldr	r3, [r3, #144]
 2301 0350 002B     		cmp	r3, #0
 2302 0352 09D0     		beq	.L154
 2303              		.loc 1 939 0 is_stmt 0 discriminator 1
 2304 0354 BB69     		ldr	r3, [r7, #24]
 2305 0356 D3F89030 		ldr	r3, [r3, #144]
 2306 035a BA69     		ldr	r2, [r7, #24]
 2307 035c 5269     		ldr	r2, [r2, #20]
 2308 035e B969     		ldr	r1, [r7, #24]
 2309 0360 1046     		mov	r0, r2
 2310 0362 9847     		blx	r3
 2311 0364 3861     		str	r0, [r7, #16]
 2312 0366 01E0     		b	.L155
 2313              	.L154:
 2314              		.loc 1 939 0 discriminator 2
 2315 0368 0023     		movs	r3, #0
 2316 036a 3B61     		str	r3, [r7, #16]
 2317              	.L155:
 940:Libraries/lwip-1.4.0/core/tcp.c ****         /* if err == ERR_ABRT, 'prev' is already deallocated */
 941:Libraries/lwip-1.4.0/core/tcp.c ****         if (err == ERR_OK) {
 2318              		.loc 1 941 0 is_stmt 1
 2319 036c 3B69     		ldr	r3, [r7, #16]
 2320 036e 002B     		cmp	r3, #0
 2321 0370 02D1     		bne	.L132
 942:Libraries/lwip-1.4.0/core/tcp.c ****           tcp_output(prev);
 2322              		.loc 1 942 0
 2323 0372 B869     		ldr	r0, [r7, #24]
 2324 0374 FFF7FEFF 		bl	tcp_output
 2325              	.L132:
 768:Libraries/lwip-1.4.0/core/tcp.c ****     LWIP_DEBUGF(TCP_DEBUG, ("tcp_slowtmr: processing active pcb\n"));
 2326              		.loc 1 768 0
 2327 0378 FB69     		ldr	r3, [r7, #28]
 2328 037a 002B     		cmp	r3, #0
 2329 037c 7FF450AE 		bne	.L156
 943:Libraries/lwip-1.4.0/core/tcp.c ****         }
 944:Libraries/lwip-1.4.0/core/tcp.c ****       }
 945:Libraries/lwip-1.4.0/core/tcp.c ****     }
 946:Libraries/lwip-1.4.0/core/tcp.c ****   }
 947:Libraries/lwip-1.4.0/core/tcp.c **** 
 948:Libraries/lwip-1.4.0/core/tcp.c ****   
 949:Libraries/lwip-1.4.0/core/tcp.c ****   /* Steps through all of the TIME-WAIT PCBs. */
 950:Libraries/lwip-1.4.0/core/tcp.c ****   prev = NULL;
 2330              		.loc 1 950 0
 2331 0380 0023     		movs	r3, #0
 2332 0382 BB61     		str	r3, [r7, #24]
 951:Libraries/lwip-1.4.0/core/tcp.c ****   pcb = tcp_tw_pcbs;
 2333              		.loc 1 951 0
 2334 0384 1C4B     		ldr	r3, .L165+4
 2335 0386 1B68     		ldr	r3, [r3]
 2336 0388 FB61     		str	r3, [r7, #28]
 952:Libraries/lwip-1.4.0/core/tcp.c ****   while (pcb != NULL) {
 2337              		.loc 1 952 0
 2338 038a 2CE0     		b	.L157
 2339              	.L162:
 953:Libraries/lwip-1.4.0/core/tcp.c ****     LWIP_ASSERT("tcp_slowtmr: TIME-WAIT pcb->state == TIME-WAIT", pcb->state == TIME_WAIT);
 954:Libraries/lwip-1.4.0/core/tcp.c ****     pcb_remove = 0;
 2340              		.loc 1 954 0
 2341 038c 0023     		movs	r3, #0
 2342 038e FB75     		strb	r3, [r7, #23]
 955:Libraries/lwip-1.4.0/core/tcp.c **** 
 956:Libraries/lwip-1.4.0/core/tcp.c ****     /* Check if this PCB has stayed long enough in TIME-WAIT */
 957:Libraries/lwip-1.4.0/core/tcp.c ****     if ((u32_t)(tcp_ticks - pcb->tmr) > 2 * TCP_MSL / TCP_SLOW_INTERVAL) {
 2343              		.loc 1 957 0
 2344 0390 1A4B     		ldr	r3, .L165+8
 2345 0392 1A68     		ldr	r2, [r3]
 2346 0394 FB69     		ldr	r3, [r7, #28]
 2347 0396 1B6B     		ldr	r3, [r3, #48]
 2348 0398 D31A     		subs	r3, r2, r3
 2349 039a F02B     		cmp	r3, #240
 2350 039c 02D9     		bls	.L158
 958:Libraries/lwip-1.4.0/core/tcp.c ****       ++pcb_remove;
 2351              		.loc 1 958 0
 2352 039e FB7D     		ldrb	r3, [r7, #23]
 2353 03a0 0133     		adds	r3, r3, #1
 2354 03a2 FB75     		strb	r3, [r7, #23]
 2355              	.L158:
 959:Libraries/lwip-1.4.0/core/tcp.c ****     }
 960:Libraries/lwip-1.4.0/core/tcp.c ****     
 961:Libraries/lwip-1.4.0/core/tcp.c **** 
 962:Libraries/lwip-1.4.0/core/tcp.c **** 
 963:Libraries/lwip-1.4.0/core/tcp.c ****     /* If the PCB should be removed, do it. */
 964:Libraries/lwip-1.4.0/core/tcp.c ****     if (pcb_remove) {
 2356              		.loc 1 964 0
 2357 03a4 FB7D     		ldrb	r3, [r7, #23]	@ zero_extendqisi2
 2358 03a6 002B     		cmp	r3, #0
 2359 03a8 18D0     		beq	.L159
 2360              	.LBB5:
 965:Libraries/lwip-1.4.0/core/tcp.c ****       struct tcp_pcb *pcb2;
 966:Libraries/lwip-1.4.0/core/tcp.c ****       tcp_pcb_purge(pcb);
 2361              		.loc 1 966 0
 2362 03aa F869     		ldr	r0, [r7, #28]
 2363 03ac FFF7FEFF 		bl	tcp_pcb_purge
 967:Libraries/lwip-1.4.0/core/tcp.c ****       /* Remove PCB from tcp_tw_pcbs list. */
 968:Libraries/lwip-1.4.0/core/tcp.c ****       if (prev != NULL) {
 2364              		.loc 1 968 0
 2365 03b0 BB69     		ldr	r3, [r7, #24]
 2366 03b2 002B     		cmp	r3, #0
 2367 03b4 04D0     		beq	.L160
 969:Libraries/lwip-1.4.0/core/tcp.c ****         LWIP_ASSERT("tcp_slowtmr: middle tcp != tcp_tw_pcbs", pcb != tcp_tw_pcbs);
 970:Libraries/lwip-1.4.0/core/tcp.c ****         prev->next = pcb->next;
 2368              		.loc 1 970 0
 2369 03b6 FB69     		ldr	r3, [r7, #28]
 2370 03b8 DA68     		ldr	r2, [r3, #12]
 2371 03ba BB69     		ldr	r3, [r7, #24]
 2372 03bc DA60     		str	r2, [r3, #12]
 2373 03be 03E0     		b	.L161
 2374              	.L160:
 971:Libraries/lwip-1.4.0/core/tcp.c ****       } else {
 972:Libraries/lwip-1.4.0/core/tcp.c ****         /* This PCB was the first. */
 973:Libraries/lwip-1.4.0/core/tcp.c ****         LWIP_ASSERT("tcp_slowtmr: first pcb == tcp_tw_pcbs", tcp_tw_pcbs == pcb);
 974:Libraries/lwip-1.4.0/core/tcp.c ****         tcp_tw_pcbs = pcb->next;
 2375              		.loc 1 974 0
 2376 03c0 FB69     		ldr	r3, [r7, #28]
 2377 03c2 DB68     		ldr	r3, [r3, #12]
 2378 03c4 0C4A     		ldr	r2, .L165+4
 2379 03c6 1360     		str	r3, [r2]
 2380              	.L161:
 975:Libraries/lwip-1.4.0/core/tcp.c ****       }
 976:Libraries/lwip-1.4.0/core/tcp.c ****       pcb2 = pcb;
 2381              		.loc 1 976 0
 2382 03c8 FB69     		ldr	r3, [r7, #28]
 2383 03ca 7B60     		str	r3, [r7, #4]
 977:Libraries/lwip-1.4.0/core/tcp.c ****       pcb = pcb->next;
 2384              		.loc 1 977 0
 2385 03cc FB69     		ldr	r3, [r7, #28]
 2386 03ce DB68     		ldr	r3, [r3, #12]
 2387 03d0 FB61     		str	r3, [r7, #28]
 978:Libraries/lwip-1.4.0/core/tcp.c ****       memp_free(MEMP_TCP_PCB, pcb2);
 2388              		.loc 1 978 0
 2389 03d2 7968     		ldr	r1, [r7, #4]
 2390 03d4 0220     		movs	r0, #2
 2391 03d6 FFF7FEFF 		bl	memp_free
 2392              	.LBE5:
 2393 03da 04E0     		b	.L157
 2394              	.L159:
 979:Libraries/lwip-1.4.0/core/tcp.c ****     } else {
 980:Libraries/lwip-1.4.0/core/tcp.c ****       prev = pcb;
 2395              		.loc 1 980 0
 2396 03dc FB69     		ldr	r3, [r7, #28]
 2397 03de BB61     		str	r3, [r7, #24]
 981:Libraries/lwip-1.4.0/core/tcp.c ****       pcb = pcb->next;
 2398              		.loc 1 981 0
 2399 03e0 FB69     		ldr	r3, [r7, #28]
 2400 03e2 DB68     		ldr	r3, [r3, #12]
 2401 03e4 FB61     		str	r3, [r7, #28]
 2402              	.L157:
 952:Libraries/lwip-1.4.0/core/tcp.c ****     LWIP_ASSERT("tcp_slowtmr: TIME-WAIT pcb->state == TIME-WAIT", pcb->state == TIME_WAIT);
 2403              		.loc 1 952 0
 2404 03e6 FB69     		ldr	r3, [r7, #28]
 2405 03e8 002B     		cmp	r3, #0
 2406 03ea CFD1     		bne	.L162
 982:Libraries/lwip-1.4.0/core/tcp.c ****     }
 983:Libraries/lwip-1.4.0/core/tcp.c ****   }
 984:Libraries/lwip-1.4.0/core/tcp.c **** }
 2407              		.loc 1 984 0
 2408 03ec 00BF     		nop
 2409 03ee 2037     		adds	r7, r7, #32
 2410              		.cfi_def_cfa_offset 16
 2411 03f0 BD46     		mov	sp, r7
 2412              		.cfi_def_cfa_register 13
 2413              		@ sp needed
 2414 03f2 B0BD     		pop	{r4, r5, r7, pc}
 2415              	.L166:
 2416              		.align	2
 2417              	.L165:
 2418 03f4 00000000 		.word	tcp_active_pcbs
 2419 03f8 00000000 		.word	tcp_tw_pcbs
 2420 03fc 00000000 		.word	tcp_ticks
 2421              		.cfi_endproc
 2422              	.LFE30:
 2424              		.section	.text.tcp_fasttmr,"ax",%progbits
 2425              		.align	2
 2426              		.global	tcp_fasttmr
 2427              		.thumb
 2428              		.thumb_func
 2430              	tcp_fasttmr:
 2431              	.LFB31:
 985:Libraries/lwip-1.4.0/core/tcp.c **** 
 986:Libraries/lwip-1.4.0/core/tcp.c **** /**
 987:Libraries/lwip-1.4.0/core/tcp.c ****  * Is called every TCP_FAST_INTERVAL (250 ms) and process data previously
 988:Libraries/lwip-1.4.0/core/tcp.c ****  * "refused" by upper layer (application) and sends delayed ACKs.
 989:Libraries/lwip-1.4.0/core/tcp.c ****  *
 990:Libraries/lwip-1.4.0/core/tcp.c ****  * Automatically called from tcp_tmr().
 991:Libraries/lwip-1.4.0/core/tcp.c ****  */
 992:Libraries/lwip-1.4.0/core/tcp.c **** void
 993:Libraries/lwip-1.4.0/core/tcp.c **** tcp_fasttmr(void)
 994:Libraries/lwip-1.4.0/core/tcp.c **** {
 2432              		.loc 1 994 0
 2433              		.cfi_startproc
 2434              		@ args = 0, pretend = 0, frame = 16
 2435              		@ frame_needed = 1, uses_anonymous_args = 0
 2436 0000 90B5     		push	{r4, r7, lr}
 2437              		.cfi_def_cfa_offset 12
 2438              		.cfi_offset 4, -12
 2439              		.cfi_offset 7, -8
 2440              		.cfi_offset 14, -4
 2441 0002 85B0     		sub	sp, sp, #20
 2442              		.cfi_def_cfa_offset 32
 2443 0004 00AF     		add	r7, sp, #0
 2444              		.cfi_def_cfa_register 7
 995:Libraries/lwip-1.4.0/core/tcp.c ****   struct tcp_pcb *pcb = tcp_active_pcbs;
 2445              		.loc 1 995 0
 2446 0006 2E4B     		ldr	r3, .L175
 2447 0008 1B68     		ldr	r3, [r3]
 2448 000a FB60     		str	r3, [r7, #12]
 996:Libraries/lwip-1.4.0/core/tcp.c **** 
 997:Libraries/lwip-1.4.0/core/tcp.c ****   while(pcb != NULL) {
 2449              		.loc 1 997 0
 2450 000c 51E0     		b	.L168
 2451              	.L174:
 2452              	.LBB6:
 998:Libraries/lwip-1.4.0/core/tcp.c ****     struct tcp_pcb *next = pcb->next;
 2453              		.loc 1 998 0
 2454 000e FB68     		ldr	r3, [r7, #12]
 2455 0010 DB68     		ldr	r3, [r3, #12]
 2456 0012 7B60     		str	r3, [r7, #4]
 999:Libraries/lwip-1.4.0/core/tcp.c ****     /* If there is data which was previously "refused" by upper layer */
1000:Libraries/lwip-1.4.0/core/tcp.c ****     if (pcb->refused_data != NULL) {
 2457              		.loc 1 1000 0
 2458 0014 FB68     		ldr	r3, [r7, #12]
 2459 0016 D3F88030 		ldr	r3, [r3, #128]
 2460 001a 002B     		cmp	r3, #0
 2461 001c 28D0     		beq	.L169
 2462              	.LBB7:
1001:Libraries/lwip-1.4.0/core/tcp.c ****       /* Notify again application with data previously received. */
1002:Libraries/lwip-1.4.0/core/tcp.c ****       err_t err;
1003:Libraries/lwip-1.4.0/core/tcp.c ****       LWIP_DEBUGF(TCP_INPUT_DEBUG, ("tcp_fasttmr: notify kept packet\n"));
1004:Libraries/lwip-1.4.0/core/tcp.c ****       TCP_EVENT_RECV(pcb, pcb->refused_data, ERR_OK, err);
 2463              		.loc 1 1004 0
 2464 001e FB68     		ldr	r3, [r7, #12]
 2465 0020 D3F88830 		ldr	r3, [r3, #136]
 2466 0024 002B     		cmp	r3, #0
 2467 0026 0CD0     		beq	.L170
 2468              		.loc 1 1004 0 is_stmt 0 discriminator 1
 2469 0028 FB68     		ldr	r3, [r7, #12]
 2470 002a D3F88840 		ldr	r4, [r3, #136]
 2471 002e FB68     		ldr	r3, [r7, #12]
 2472 0030 5869     		ldr	r0, [r3, #20]
 2473 0032 FB68     		ldr	r3, [r7, #12]
 2474 0034 D3F88020 		ldr	r2, [r3, #128]
 2475 0038 0023     		movs	r3, #0
 2476 003a F968     		ldr	r1, [r7, #12]
 2477 003c A047     		blx	r4
 2478 003e B860     		str	r0, [r7, #8]
 2479 0040 08E0     		b	.L171
 2480              	.L170:
 2481              		.loc 1 1004 0 discriminator 2
 2482 0042 FB68     		ldr	r3, [r7, #12]
 2483 0044 D3F88020 		ldr	r2, [r3, #128]
 2484 0048 0023     		movs	r3, #0
 2485 004a F968     		ldr	r1, [r7, #12]
 2486 004c 0020     		movs	r0, #0
 2487 004e FFF7FEFF 		bl	tcp_recv_null
 2488 0052 B860     		str	r0, [r7, #8]
 2489              	.L171:
1005:Libraries/lwip-1.4.0/core/tcp.c ****       if (err == ERR_OK) {
 2490              		.loc 1 1005 0 is_stmt 1
 2491 0054 BB68     		ldr	r3, [r7, #8]
 2492 0056 002B     		cmp	r3, #0
 2493 0058 04D1     		bne	.L172
1006:Libraries/lwip-1.4.0/core/tcp.c ****         pcb->refused_data = NULL;
 2494              		.loc 1 1006 0
 2495 005a FB68     		ldr	r3, [r7, #12]
 2496 005c 0022     		movs	r2, #0
 2497 005e C3F88020 		str	r2, [r3, #128]
 2498 0062 05E0     		b	.L169
 2499              	.L172:
1007:Libraries/lwip-1.4.0/core/tcp.c ****       } else if (err == ERR_ABRT) {
 2500              		.loc 1 1007 0
 2501 0064 BB68     		ldr	r3, [r7, #8]
 2502 0066 13F10A0F 		cmn	r3, #10
 2503 006a 01D1     		bne	.L169
1008:Libraries/lwip-1.4.0/core/tcp.c ****         /* if err == ERR_ABRT, 'pcb' is already deallocated */
1009:Libraries/lwip-1.4.0/core/tcp.c ****         pcb = NULL;
 2504              		.loc 1 1009 0
 2505 006c 0023     		movs	r3, #0
 2506 006e FB60     		str	r3, [r7, #12]
 2507              	.L169:
 2508              	.LBE7:
1010:Libraries/lwip-1.4.0/core/tcp.c ****       }
1011:Libraries/lwip-1.4.0/core/tcp.c ****     }
1012:Libraries/lwip-1.4.0/core/tcp.c **** 
1013:Libraries/lwip-1.4.0/core/tcp.c ****     /* send delayed ACKs */
1014:Libraries/lwip-1.4.0/core/tcp.c ****     if (pcb && (pcb->flags & TF_ACK_DELAY)) {
 2509              		.loc 1 1014 0
 2510 0070 FB68     		ldr	r3, [r7, #12]
 2511 0072 002B     		cmp	r3, #0
 2512 0074 1BD0     		beq	.L173
 2513              		.loc 1 1014 0 is_stmt 0 discriminator 1
 2514 0076 FB68     		ldr	r3, [r7, #12]
 2515 0078 93F82030 		ldrb	r3, [r3, #32]	@ zero_extendqisi2
 2516 007c 03F00103 		and	r3, r3, #1
 2517 0080 002B     		cmp	r3, #0
 2518 0082 14D0     		beq	.L173
1015:Libraries/lwip-1.4.0/core/tcp.c ****       LWIP_DEBUGF(TCP_DEBUG, ("tcp_fasttmr: delayed ACK\n"));
1016:Libraries/lwip-1.4.0/core/tcp.c ****       tcp_ack_now(pcb);
 2519              		.loc 1 1016 0 is_stmt 1
 2520 0084 FB68     		ldr	r3, [r7, #12]
 2521 0086 93F82030 		ldrb	r3, [r3, #32]	@ zero_extendqisi2
 2522 008a 43F00203 		orr	r3, r3, #2
 2523 008e DAB2     		uxtb	r2, r3
 2524 0090 FB68     		ldr	r3, [r7, #12]
 2525 0092 83F82020 		strb	r2, [r3, #32]
1017:Libraries/lwip-1.4.0/core/tcp.c ****       tcp_output(pcb);
 2526              		.loc 1 1017 0
 2527 0096 F868     		ldr	r0, [r7, #12]
 2528 0098 FFF7FEFF 		bl	tcp_output
1018:Libraries/lwip-1.4.0/core/tcp.c ****       pcb->flags &= ~(TF_ACK_DELAY | TF_ACK_NOW);
 2529              		.loc 1 1018 0
 2530 009c FB68     		ldr	r3, [r7, #12]
 2531 009e 93F82030 		ldrb	r3, [r3, #32]	@ zero_extendqisi2
 2532 00a2 23F00303 		bic	r3, r3, #3
 2533 00a6 DAB2     		uxtb	r2, r3
 2534 00a8 FB68     		ldr	r3, [r7, #12]
 2535 00aa 83F82020 		strb	r2, [r3, #32]
 2536              	.L173:
1019:Libraries/lwip-1.4.0/core/tcp.c ****     }
1020:Libraries/lwip-1.4.0/core/tcp.c **** 
1021:Libraries/lwip-1.4.0/core/tcp.c ****     pcb = next;
 2537              		.loc 1 1021 0
 2538 00ae 7B68     		ldr	r3, [r7, #4]
 2539 00b0 FB60     		str	r3, [r7, #12]
 2540              	.L168:
 2541              	.LBE6:
 997:Libraries/lwip-1.4.0/core/tcp.c ****     struct tcp_pcb *next = pcb->next;
 2542              		.loc 1 997 0
 2543 00b2 FB68     		ldr	r3, [r7, #12]
 2544 00b4 002B     		cmp	r3, #0
 2545 00b6 AAD1     		bne	.L174
1022:Libraries/lwip-1.4.0/core/tcp.c ****   }
1023:Libraries/lwip-1.4.0/core/tcp.c **** }
 2546              		.loc 1 1023 0
 2547 00b8 00BF     		nop
 2548 00ba 1437     		adds	r7, r7, #20
 2549              		.cfi_def_cfa_offset 12
 2550 00bc BD46     		mov	sp, r7
 2551              		.cfi_def_cfa_register 13
 2552              		@ sp needed
 2553 00be 90BD     		pop	{r4, r7, pc}
 2554              	.L176:
 2555              		.align	2
 2556              	.L175:
 2557 00c0 00000000 		.word	tcp_active_pcbs
 2558              		.cfi_endproc
 2559              	.LFE31:
 2561              		.section	.text.tcp_segs_free,"ax",%progbits
 2562              		.align	2
 2563              		.global	tcp_segs_free
 2564              		.thumb
 2565              		.thumb_func
 2567              	tcp_segs_free:
 2568              	.LFB32:
1024:Libraries/lwip-1.4.0/core/tcp.c **** 
1025:Libraries/lwip-1.4.0/core/tcp.c **** /**
1026:Libraries/lwip-1.4.0/core/tcp.c ****  * Deallocates a list of TCP segments (tcp_seg structures).
1027:Libraries/lwip-1.4.0/core/tcp.c ****  *
1028:Libraries/lwip-1.4.0/core/tcp.c ****  * @param seg tcp_seg list of TCP segments to free
1029:Libraries/lwip-1.4.0/core/tcp.c ****  */
1030:Libraries/lwip-1.4.0/core/tcp.c **** void
1031:Libraries/lwip-1.4.0/core/tcp.c **** tcp_segs_free(struct tcp_seg *seg)
1032:Libraries/lwip-1.4.0/core/tcp.c **** {
 2569              		.loc 1 1032 0
 2570              		.cfi_startproc
 2571              		@ args = 0, pretend = 0, frame = 16
 2572              		@ frame_needed = 1, uses_anonymous_args = 0
 2573 0000 80B5     		push	{r7, lr}
 2574              		.cfi_def_cfa_offset 8
 2575              		.cfi_offset 7, -8
 2576              		.cfi_offset 14, -4
 2577 0002 84B0     		sub	sp, sp, #16
 2578              		.cfi_def_cfa_offset 24
 2579 0004 00AF     		add	r7, sp, #0
 2580              		.cfi_def_cfa_register 7
 2581 0006 7860     		str	r0, [r7, #4]
1033:Libraries/lwip-1.4.0/core/tcp.c ****   while (seg != NULL) {
 2582              		.loc 1 1033 0
 2583 0008 07E0     		b	.L178
 2584              	.L179:
 2585              	.LBB8:
1034:Libraries/lwip-1.4.0/core/tcp.c ****     struct tcp_seg *next = seg->next;
 2586              		.loc 1 1034 0
 2587 000a 7B68     		ldr	r3, [r7, #4]
 2588 000c 1B68     		ldr	r3, [r3]
 2589 000e FB60     		str	r3, [r7, #12]
1035:Libraries/lwip-1.4.0/core/tcp.c ****     tcp_seg_free(seg);
 2590              		.loc 1 1035 0
 2591 0010 7868     		ldr	r0, [r7, #4]
 2592 0012 FFF7FEFF 		bl	tcp_seg_free
1036:Libraries/lwip-1.4.0/core/tcp.c ****     seg = next;
 2593              		.loc 1 1036 0
 2594 0016 FB68     		ldr	r3, [r7, #12]
 2595 0018 7B60     		str	r3, [r7, #4]
 2596              	.L178:
 2597              	.LBE8:
1033:Libraries/lwip-1.4.0/core/tcp.c ****     struct tcp_seg *next = seg->next;
 2598              		.loc 1 1033 0
 2599 001a 7B68     		ldr	r3, [r7, #4]
 2600 001c 002B     		cmp	r3, #0
 2601 001e F4D1     		bne	.L179
1037:Libraries/lwip-1.4.0/core/tcp.c ****   }
1038:Libraries/lwip-1.4.0/core/tcp.c **** }
 2602              		.loc 1 1038 0
 2603 0020 00BF     		nop
 2604 0022 1037     		adds	r7, r7, #16
 2605              		.cfi_def_cfa_offset 8
 2606 0024 BD46     		mov	sp, r7
 2607              		.cfi_def_cfa_register 13
 2608              		@ sp needed
 2609 0026 80BD     		pop	{r7, pc}
 2610              		.cfi_endproc
 2611              	.LFE32:
 2613              		.section	.text.tcp_seg_free,"ax",%progbits
 2614              		.align	2
 2615              		.global	tcp_seg_free
 2616              		.thumb
 2617              		.thumb_func
 2619              	tcp_seg_free:
 2620              	.LFB33:
1039:Libraries/lwip-1.4.0/core/tcp.c **** 
1040:Libraries/lwip-1.4.0/core/tcp.c **** /**
1041:Libraries/lwip-1.4.0/core/tcp.c ****  * Frees a TCP segment (tcp_seg structure).
1042:Libraries/lwip-1.4.0/core/tcp.c ****  *
1043:Libraries/lwip-1.4.0/core/tcp.c ****  * @param seg single tcp_seg to free
1044:Libraries/lwip-1.4.0/core/tcp.c ****  */
1045:Libraries/lwip-1.4.0/core/tcp.c **** void
1046:Libraries/lwip-1.4.0/core/tcp.c **** tcp_seg_free(struct tcp_seg *seg)
1047:Libraries/lwip-1.4.0/core/tcp.c **** {
 2621              		.loc 1 1047 0
 2622              		.cfi_startproc
 2623              		@ args = 0, pretend = 0, frame = 8
 2624              		@ frame_needed = 1, uses_anonymous_args = 0
 2625 0000 80B5     		push	{r7, lr}
 2626              		.cfi_def_cfa_offset 8
 2627              		.cfi_offset 7, -8
 2628              		.cfi_offset 14, -4
 2629 0002 82B0     		sub	sp, sp, #8
 2630              		.cfi_def_cfa_offset 16
 2631 0004 00AF     		add	r7, sp, #0
 2632              		.cfi_def_cfa_register 7
 2633 0006 7860     		str	r0, [r7, #4]
1048:Libraries/lwip-1.4.0/core/tcp.c ****   if (seg != NULL) {
 2634              		.loc 1 1048 0
 2635 0008 7B68     		ldr	r3, [r7, #4]
 2636 000a 002B     		cmp	r3, #0
 2637 000c 0CD0     		beq	.L183
1049:Libraries/lwip-1.4.0/core/tcp.c ****     if (seg->p != NULL) {
 2638              		.loc 1 1049 0
 2639 000e 7B68     		ldr	r3, [r7, #4]
 2640 0010 5B68     		ldr	r3, [r3, #4]
 2641 0012 002B     		cmp	r3, #0
 2642 0014 04D0     		beq	.L182
1050:Libraries/lwip-1.4.0/core/tcp.c ****       pbuf_free(seg->p);
 2643              		.loc 1 1050 0
 2644 0016 7B68     		ldr	r3, [r7, #4]
 2645 0018 5B68     		ldr	r3, [r3, #4]
 2646 001a 1846     		mov	r0, r3
 2647 001c FFF7FEFF 		bl	pbuf_free
 2648              	.L182:
1051:Libraries/lwip-1.4.0/core/tcp.c **** #if TCP_DEBUG
1052:Libraries/lwip-1.4.0/core/tcp.c ****       seg->p = NULL;
1053:Libraries/lwip-1.4.0/core/tcp.c **** #endif /* TCP_DEBUG */
1054:Libraries/lwip-1.4.0/core/tcp.c ****     }
1055:Libraries/lwip-1.4.0/core/tcp.c ****     memp_free(MEMP_TCP_SEG, seg);
 2649              		.loc 1 1055 0
 2650 0020 7968     		ldr	r1, [r7, #4]
 2651 0022 0420     		movs	r0, #4
 2652 0024 FFF7FEFF 		bl	memp_free
 2653              	.L183:
1056:Libraries/lwip-1.4.0/core/tcp.c ****   }
1057:Libraries/lwip-1.4.0/core/tcp.c **** }
 2654              		.loc 1 1057 0
 2655 0028 00BF     		nop
 2656 002a 0837     		adds	r7, r7, #8
 2657              		.cfi_def_cfa_offset 8
 2658 002c BD46     		mov	sp, r7
 2659              		.cfi_def_cfa_register 13
 2660              		@ sp needed
 2661 002e 80BD     		pop	{r7, pc}
 2662              		.cfi_endproc
 2663              	.LFE33:
 2665              		.section	.text.tcp_setprio,"ax",%progbits
 2666              		.align	2
 2667              		.global	tcp_setprio
 2668              		.thumb
 2669              		.thumb_func
 2671              	tcp_setprio:
 2672              	.LFB34:
1058:Libraries/lwip-1.4.0/core/tcp.c **** 
1059:Libraries/lwip-1.4.0/core/tcp.c **** /**
1060:Libraries/lwip-1.4.0/core/tcp.c ****  * Sets the priority of a connection.
1061:Libraries/lwip-1.4.0/core/tcp.c ****  *
1062:Libraries/lwip-1.4.0/core/tcp.c ****  * @param pcb the tcp_pcb to manipulate
1063:Libraries/lwip-1.4.0/core/tcp.c ****  * @param prio new priority
1064:Libraries/lwip-1.4.0/core/tcp.c ****  */
1065:Libraries/lwip-1.4.0/core/tcp.c **** void
1066:Libraries/lwip-1.4.0/core/tcp.c **** tcp_setprio(struct tcp_pcb *pcb, u8_t prio)
1067:Libraries/lwip-1.4.0/core/tcp.c **** {
 2673              		.loc 1 1067 0
 2674              		.cfi_startproc
 2675              		@ args = 0, pretend = 0, frame = 8
 2676              		@ frame_needed = 1, uses_anonymous_args = 0
 2677              		@ link register save eliminated.
 2678 0000 80B4     		push	{r7}
 2679              		.cfi_def_cfa_offset 4
 2680              		.cfi_offset 7, -4
 2681 0002 83B0     		sub	sp, sp, #12
 2682              		.cfi_def_cfa_offset 16
 2683 0004 00AF     		add	r7, sp, #0
 2684              		.cfi_def_cfa_register 7
 2685 0006 7860     		str	r0, [r7, #4]
 2686 0008 0B46     		mov	r3, r1
 2687 000a FB70     		strb	r3, [r7, #3]
1068:Libraries/lwip-1.4.0/core/tcp.c ****   pcb->prio = prio;
 2688              		.loc 1 1068 0
 2689 000c 7B68     		ldr	r3, [r7, #4]
 2690 000e FA78     		ldrb	r2, [r7, #3]
 2691 0010 5A74     		strb	r2, [r3, #17]
1069:Libraries/lwip-1.4.0/core/tcp.c **** }
 2692              		.loc 1 1069 0
 2693 0012 00BF     		nop
 2694 0014 0C37     		adds	r7, r7, #12
 2695              		.cfi_def_cfa_offset 4
 2696 0016 BD46     		mov	sp, r7
 2697              		.cfi_def_cfa_register 13
 2698              		@ sp needed
 2699 0018 80BC     		pop	{r7}
 2700              		.cfi_restore 7
 2701              		.cfi_def_cfa_offset 0
 2702 001a 7047     		bx	lr
 2703              		.cfi_endproc
 2704              	.LFE34:
 2706              		.section	.text.tcp_seg_copy,"ax",%progbits
 2707              		.align	2
 2708              		.global	tcp_seg_copy
 2709              		.thumb
 2710              		.thumb_func
 2712              	tcp_seg_copy:
 2713              	.LFB35:
1070:Libraries/lwip-1.4.0/core/tcp.c **** 
1071:Libraries/lwip-1.4.0/core/tcp.c **** #if TCP_QUEUE_OOSEQ
1072:Libraries/lwip-1.4.0/core/tcp.c **** /**
1073:Libraries/lwip-1.4.0/core/tcp.c ****  * Returns a copy of the given TCP segment.
1074:Libraries/lwip-1.4.0/core/tcp.c ****  * The pbuf and data are not copied, only the pointers
1075:Libraries/lwip-1.4.0/core/tcp.c ****  *
1076:Libraries/lwip-1.4.0/core/tcp.c ****  * @param seg the old tcp_seg
1077:Libraries/lwip-1.4.0/core/tcp.c ****  * @return a copy of seg
1078:Libraries/lwip-1.4.0/core/tcp.c ****  */ 
1079:Libraries/lwip-1.4.0/core/tcp.c **** struct tcp_seg *
1080:Libraries/lwip-1.4.0/core/tcp.c **** tcp_seg_copy(struct tcp_seg *seg)
1081:Libraries/lwip-1.4.0/core/tcp.c **** {
 2714              		.loc 1 1081 0
 2715              		.cfi_startproc
 2716              		@ args = 0, pretend = 0, frame = 16
 2717              		@ frame_needed = 1, uses_anonymous_args = 0
 2718 0000 80B5     		push	{r7, lr}
 2719              		.cfi_def_cfa_offset 8
 2720              		.cfi_offset 7, -8
 2721              		.cfi_offset 14, -4
 2722 0002 84B0     		sub	sp, sp, #16
 2723              		.cfi_def_cfa_offset 24
 2724 0004 00AF     		add	r7, sp, #0
 2725              		.cfi_def_cfa_register 7
 2726 0006 7860     		str	r0, [r7, #4]
1082:Libraries/lwip-1.4.0/core/tcp.c ****   struct tcp_seg *cseg;
1083:Libraries/lwip-1.4.0/core/tcp.c **** 
1084:Libraries/lwip-1.4.0/core/tcp.c ****   cseg = (struct tcp_seg *)memp_malloc(MEMP_TCP_SEG);
 2727              		.loc 1 1084 0
 2728 0008 0420     		movs	r0, #4
 2729 000a FFF7FEFF 		bl	memp_malloc
 2730 000e F860     		str	r0, [r7, #12]
1085:Libraries/lwip-1.4.0/core/tcp.c ****   if (cseg == NULL) {
 2731              		.loc 1 1085 0
 2732 0010 FB68     		ldr	r3, [r7, #12]
 2733 0012 002B     		cmp	r3, #0
 2734 0014 01D1     		bne	.L186
1086:Libraries/lwip-1.4.0/core/tcp.c ****     return NULL;
 2735              		.loc 1 1086 0
 2736 0016 0023     		movs	r3, #0
 2737 0018 0AE0     		b	.L187
 2738              	.L186:
1087:Libraries/lwip-1.4.0/core/tcp.c ****   }
1088:Libraries/lwip-1.4.0/core/tcp.c ****   SMEMCPY((u8_t *)cseg, (const u8_t *)seg, sizeof(struct tcp_seg)); 
 2739              		.loc 1 1088 0
 2740 001a 1022     		movs	r2, #16
 2741 001c 7968     		ldr	r1, [r7, #4]
 2742 001e F868     		ldr	r0, [r7, #12]
 2743 0020 FFF7FEFF 		bl	memcpy
1089:Libraries/lwip-1.4.0/core/tcp.c ****   pbuf_ref(cseg->p);
 2744              		.loc 1 1089 0
 2745 0024 FB68     		ldr	r3, [r7, #12]
 2746 0026 5B68     		ldr	r3, [r3, #4]
 2747 0028 1846     		mov	r0, r3
 2748 002a FFF7FEFF 		bl	pbuf_ref
1090:Libraries/lwip-1.4.0/core/tcp.c ****   return cseg;
 2749              		.loc 1 1090 0
 2750 002e FB68     		ldr	r3, [r7, #12]
 2751              	.L187:
1091:Libraries/lwip-1.4.0/core/tcp.c **** }
 2752              		.loc 1 1091 0
 2753 0030 1846     		mov	r0, r3
 2754 0032 1037     		adds	r7, r7, #16
 2755              		.cfi_def_cfa_offset 8
 2756 0034 BD46     		mov	sp, r7
 2757              		.cfi_def_cfa_register 13
 2758              		@ sp needed
 2759 0036 80BD     		pop	{r7, pc}
 2760              		.cfi_endproc
 2761              	.LFE35:
 2763              		.section	.text.tcp_recv_null,"ax",%progbits
 2764              		.align	2
 2765              		.global	tcp_recv_null
 2766              		.thumb
 2767              		.thumb_func
 2769              	tcp_recv_null:
 2770              	.LFB36:
1092:Libraries/lwip-1.4.0/core/tcp.c **** #endif /* TCP_QUEUE_OOSEQ */
1093:Libraries/lwip-1.4.0/core/tcp.c **** 
1094:Libraries/lwip-1.4.0/core/tcp.c **** #if LWIP_CALLBACK_API
1095:Libraries/lwip-1.4.0/core/tcp.c **** /**
1096:Libraries/lwip-1.4.0/core/tcp.c ****  * Default receive callback that is called if the user didn't register
1097:Libraries/lwip-1.4.0/core/tcp.c ****  * a recv callback for the pcb.
1098:Libraries/lwip-1.4.0/core/tcp.c ****  */
1099:Libraries/lwip-1.4.0/core/tcp.c **** err_t
1100:Libraries/lwip-1.4.0/core/tcp.c **** tcp_recv_null(void *arg, struct tcp_pcb *pcb, struct pbuf *p, err_t err)
1101:Libraries/lwip-1.4.0/core/tcp.c **** {
 2771              		.loc 1 1101 0
 2772              		.cfi_startproc
 2773              		@ args = 0, pretend = 0, frame = 16
 2774              		@ frame_needed = 1, uses_anonymous_args = 0
 2775 0000 80B5     		push	{r7, lr}
 2776              		.cfi_def_cfa_offset 8
 2777              		.cfi_offset 7, -8
 2778              		.cfi_offset 14, -4
 2779 0002 84B0     		sub	sp, sp, #16
 2780              		.cfi_def_cfa_offset 24
 2781 0004 00AF     		add	r7, sp, #0
 2782              		.cfi_def_cfa_register 7
 2783 0006 F860     		str	r0, [r7, #12]
 2784 0008 B960     		str	r1, [r7, #8]
 2785 000a 7A60     		str	r2, [r7, #4]
 2786 000c 3B60     		str	r3, [r7]
1102:Libraries/lwip-1.4.0/core/tcp.c ****   LWIP_UNUSED_ARG(arg);
1103:Libraries/lwip-1.4.0/core/tcp.c ****   if (p != NULL) {
 2787              		.loc 1 1103 0
 2788 000e 7B68     		ldr	r3, [r7, #4]
 2789 0010 002B     		cmp	r3, #0
 2790 0012 09D0     		beq	.L189
1104:Libraries/lwip-1.4.0/core/tcp.c ****     tcp_recved(pcb, p->tot_len);
 2791              		.loc 1 1104 0
 2792 0014 7B68     		ldr	r3, [r7, #4]
 2793 0016 1B89     		ldrh	r3, [r3, #8]
 2794 0018 1946     		mov	r1, r3
 2795 001a B868     		ldr	r0, [r7, #8]
 2796 001c FFF7FEFF 		bl	tcp_recved
1105:Libraries/lwip-1.4.0/core/tcp.c ****     pbuf_free(p);
 2797              		.loc 1 1105 0
 2798 0020 7868     		ldr	r0, [r7, #4]
 2799 0022 FFF7FEFF 		bl	pbuf_free
 2800 0026 07E0     		b	.L190
 2801              	.L189:
1106:Libraries/lwip-1.4.0/core/tcp.c ****   } else if (err == ERR_OK) {
 2802              		.loc 1 1106 0
 2803 0028 3B68     		ldr	r3, [r7]
 2804 002a 002B     		cmp	r3, #0
 2805 002c 04D1     		bne	.L190
1107:Libraries/lwip-1.4.0/core/tcp.c ****     return tcp_close(pcb);
 2806              		.loc 1 1107 0
 2807 002e B868     		ldr	r0, [r7, #8]
 2808 0030 FFF7FEFF 		bl	tcp_close
 2809 0034 0346     		mov	r3, r0
 2810 0036 00E0     		b	.L191
 2811              	.L190:
1108:Libraries/lwip-1.4.0/core/tcp.c ****   }
1109:Libraries/lwip-1.4.0/core/tcp.c ****   return ERR_OK;
 2812              		.loc 1 1109 0
 2813 0038 0023     		movs	r3, #0
 2814              	.L191:
1110:Libraries/lwip-1.4.0/core/tcp.c **** }
 2815              		.loc 1 1110 0
 2816 003a 1846     		mov	r0, r3
 2817 003c 1037     		adds	r7, r7, #16
 2818              		.cfi_def_cfa_offset 8
 2819 003e BD46     		mov	sp, r7
 2820              		.cfi_def_cfa_register 13
 2821              		@ sp needed
 2822 0040 80BD     		pop	{r7, pc}
 2823              		.cfi_endproc
 2824              	.LFE36:
 2826 0042 00BF     		.section	.text.tcp_kill_prio,"ax",%progbits
 2827              		.align	2
 2828              		.thumb
 2829              		.thumb_func
 2831              	tcp_kill_prio:
 2832              	.LFB37:
1111:Libraries/lwip-1.4.0/core/tcp.c **** #endif /* LWIP_CALLBACK_API */
1112:Libraries/lwip-1.4.0/core/tcp.c **** 
1113:Libraries/lwip-1.4.0/core/tcp.c **** /**
1114:Libraries/lwip-1.4.0/core/tcp.c ****  * Kills the oldest active connection that has lower priority than prio.
1115:Libraries/lwip-1.4.0/core/tcp.c ****  *
1116:Libraries/lwip-1.4.0/core/tcp.c ****  * @param prio minimum priority
1117:Libraries/lwip-1.4.0/core/tcp.c ****  */
1118:Libraries/lwip-1.4.0/core/tcp.c **** static void
1119:Libraries/lwip-1.4.0/core/tcp.c **** tcp_kill_prio(u8_t prio)
1120:Libraries/lwip-1.4.0/core/tcp.c **** {
 2833              		.loc 1 1120 0
 2834              		.cfi_startproc
 2835              		@ args = 0, pretend = 0, frame = 24
 2836              		@ frame_needed = 1, uses_anonymous_args = 0
 2837 0000 80B5     		push	{r7, lr}
 2838              		.cfi_def_cfa_offset 8
 2839              		.cfi_offset 7, -8
 2840              		.cfi_offset 14, -4
 2841 0002 86B0     		sub	sp, sp, #24
 2842              		.cfi_def_cfa_offset 32
 2843 0004 00AF     		add	r7, sp, #0
 2844              		.cfi_def_cfa_register 7
 2845 0006 0346     		mov	r3, r0
 2846 0008 FB71     		strb	r3, [r7, #7]
1121:Libraries/lwip-1.4.0/core/tcp.c ****   struct tcp_pcb *pcb, *inactive;
1122:Libraries/lwip-1.4.0/core/tcp.c ****   u32_t inactivity;
1123:Libraries/lwip-1.4.0/core/tcp.c ****   u8_t mprio;
1124:Libraries/lwip-1.4.0/core/tcp.c **** 
1125:Libraries/lwip-1.4.0/core/tcp.c **** 
1126:Libraries/lwip-1.4.0/core/tcp.c ****   mprio = TCP_PRIO_MAX;
 2847              		.loc 1 1126 0
 2848 000a 7F23     		movs	r3, #127
 2849 000c FB72     		strb	r3, [r7, #11]
1127:Libraries/lwip-1.4.0/core/tcp.c ****   
1128:Libraries/lwip-1.4.0/core/tcp.c ****   /* We kill the oldest active connection that has lower priority than prio. */
1129:Libraries/lwip-1.4.0/core/tcp.c ****   inactivity = 0;
 2850              		.loc 1 1129 0
 2851 000e 0023     		movs	r3, #0
 2852 0010 FB60     		str	r3, [r7, #12]
1130:Libraries/lwip-1.4.0/core/tcp.c ****   inactive = NULL;
 2853              		.loc 1 1130 0
 2854 0012 0023     		movs	r3, #0
 2855 0014 3B61     		str	r3, [r7, #16]
1131:Libraries/lwip-1.4.0/core/tcp.c ****   for(pcb = tcp_active_pcbs; pcb != NULL; pcb = pcb->next) {
 2856              		.loc 1 1131 0
 2857 0016 184B     		ldr	r3, .L198
 2858 0018 1B68     		ldr	r3, [r3]
 2859 001a 7B61     		str	r3, [r7, #20]
 2860 001c 1FE0     		b	.L193
 2861              	.L195:
1132:Libraries/lwip-1.4.0/core/tcp.c ****     if (pcb->prio <= prio &&
 2862              		.loc 1 1132 0
 2863 001e 7B69     		ldr	r3, [r7, #20]
 2864 0020 5B7C     		ldrb	r3, [r3, #17]	@ zero_extendqisi2
 2865 0022 FA79     		ldrb	r2, [r7, #7]	@ zero_extendqisi2
 2866 0024 9A42     		cmp	r2, r3
 2867 0026 17D3     		bcc	.L194
1133:Libraries/lwip-1.4.0/core/tcp.c ****        pcb->prio <= mprio &&
 2868              		.loc 1 1133 0 discriminator 1
 2869 0028 7B69     		ldr	r3, [r7, #20]
 2870 002a 5B7C     		ldrb	r3, [r3, #17]	@ zero_extendqisi2
1132:Libraries/lwip-1.4.0/core/tcp.c ****     if (pcb->prio <= prio &&
 2871              		.loc 1 1132 0 discriminator 1
 2872 002c FA7A     		ldrb	r2, [r7, #11]	@ zero_extendqisi2
 2873 002e 9A42     		cmp	r2, r3
 2874 0030 12D3     		bcc	.L194
1134:Libraries/lwip-1.4.0/core/tcp.c ****        (u32_t)(tcp_ticks - pcb->tmr) >= inactivity) {
 2875              		.loc 1 1134 0
 2876 0032 124B     		ldr	r3, .L198+4
 2877 0034 1A68     		ldr	r2, [r3]
 2878 0036 7B69     		ldr	r3, [r7, #20]
 2879 0038 1B6B     		ldr	r3, [r3, #48]
 2880 003a D21A     		subs	r2, r2, r3
1133:Libraries/lwip-1.4.0/core/tcp.c ****        pcb->prio <= mprio &&
 2881              		.loc 1 1133 0
 2882 003c FB68     		ldr	r3, [r7, #12]
 2883 003e 9A42     		cmp	r2, r3
 2884 0040 0AD3     		bcc	.L194
1135:Libraries/lwip-1.4.0/core/tcp.c ****       inactivity = tcp_ticks - pcb->tmr;
 2885              		.loc 1 1135 0
 2886 0042 0E4B     		ldr	r3, .L198+4
 2887 0044 1A68     		ldr	r2, [r3]
 2888 0046 7B69     		ldr	r3, [r7, #20]
 2889 0048 1B6B     		ldr	r3, [r3, #48]
 2890 004a D31A     		subs	r3, r2, r3
 2891 004c FB60     		str	r3, [r7, #12]
1136:Libraries/lwip-1.4.0/core/tcp.c ****       inactive = pcb;
 2892              		.loc 1 1136 0
 2893 004e 7B69     		ldr	r3, [r7, #20]
 2894 0050 3B61     		str	r3, [r7, #16]
1137:Libraries/lwip-1.4.0/core/tcp.c ****       mprio = pcb->prio;
 2895              		.loc 1 1137 0
 2896 0052 7B69     		ldr	r3, [r7, #20]
 2897 0054 5B7C     		ldrb	r3, [r3, #17]
 2898 0056 FB72     		strb	r3, [r7, #11]
 2899              	.L194:
1131:Libraries/lwip-1.4.0/core/tcp.c ****     if (pcb->prio <= prio &&
 2900              		.loc 1 1131 0 discriminator 2
 2901 0058 7B69     		ldr	r3, [r7, #20]
 2902 005a DB68     		ldr	r3, [r3, #12]
 2903 005c 7B61     		str	r3, [r7, #20]
 2904              	.L193:
1131:Libraries/lwip-1.4.0/core/tcp.c ****     if (pcb->prio <= prio &&
 2905              		.loc 1 1131 0 is_stmt 0 discriminator 1
 2906 005e 7B69     		ldr	r3, [r7, #20]
 2907 0060 002B     		cmp	r3, #0
 2908 0062 DCD1     		bne	.L195
1138:Libraries/lwip-1.4.0/core/tcp.c ****     }
1139:Libraries/lwip-1.4.0/core/tcp.c ****   }
1140:Libraries/lwip-1.4.0/core/tcp.c ****   if (inactive != NULL) {
 2909              		.loc 1 1140 0 is_stmt 1
 2910 0064 3B69     		ldr	r3, [r7, #16]
 2911 0066 002B     		cmp	r3, #0
 2912 0068 02D0     		beq	.L197
1141:Libraries/lwip-1.4.0/core/tcp.c ****     LWIP_DEBUGF(TCP_DEBUG, ("tcp_kill_prio: killing oldest PCB %p (%"S32_F")\n",
1142:Libraries/lwip-1.4.0/core/tcp.c ****            (void *)inactive, inactivity));
1143:Libraries/lwip-1.4.0/core/tcp.c ****     tcp_abort(inactive);
 2913              		.loc 1 1143 0
 2914 006a 3869     		ldr	r0, [r7, #16]
 2915 006c FFF7FEFF 		bl	tcp_abort
 2916              	.L197:
1144:Libraries/lwip-1.4.0/core/tcp.c ****   }
1145:Libraries/lwip-1.4.0/core/tcp.c **** }
 2917              		.loc 1 1145 0
 2918 0070 00BF     		nop
 2919 0072 1837     		adds	r7, r7, #24
 2920              		.cfi_def_cfa_offset 8
 2921 0074 BD46     		mov	sp, r7
 2922              		.cfi_def_cfa_register 13
 2923              		@ sp needed
 2924 0076 80BD     		pop	{r7, pc}
 2925              	.L199:
 2926              		.align	2
 2927              	.L198:
 2928 0078 00000000 		.word	tcp_active_pcbs
 2929 007c 00000000 		.word	tcp_ticks
 2930              		.cfi_endproc
 2931              	.LFE37:
 2933              		.section	.text.tcp_kill_timewait,"ax",%progbits
 2934              		.align	2
 2935              		.thumb
 2936              		.thumb_func
 2938              	tcp_kill_timewait:
 2939              	.LFB38:
1146:Libraries/lwip-1.4.0/core/tcp.c **** 
1147:Libraries/lwip-1.4.0/core/tcp.c **** /**
1148:Libraries/lwip-1.4.0/core/tcp.c ****  * Kills the oldest connection that is in TIME_WAIT state.
1149:Libraries/lwip-1.4.0/core/tcp.c ****  * Called from tcp_alloc() if no more connections are available.
1150:Libraries/lwip-1.4.0/core/tcp.c ****  */
1151:Libraries/lwip-1.4.0/core/tcp.c **** static void
1152:Libraries/lwip-1.4.0/core/tcp.c **** tcp_kill_timewait(void)
1153:Libraries/lwip-1.4.0/core/tcp.c **** {
 2940              		.loc 1 1153 0
 2941              		.cfi_startproc
 2942              		@ args = 0, pretend = 0, frame = 16
 2943              		@ frame_needed = 1, uses_anonymous_args = 0
 2944 0000 80B5     		push	{r7, lr}
 2945              		.cfi_def_cfa_offset 8
 2946              		.cfi_offset 7, -8
 2947              		.cfi_offset 14, -4
 2948 0002 84B0     		sub	sp, sp, #16
 2949              		.cfi_def_cfa_offset 24
 2950 0004 00AF     		add	r7, sp, #0
 2951              		.cfi_def_cfa_register 7
1154:Libraries/lwip-1.4.0/core/tcp.c ****   struct tcp_pcb *pcb, *inactive;
1155:Libraries/lwip-1.4.0/core/tcp.c ****   u32_t inactivity;
1156:Libraries/lwip-1.4.0/core/tcp.c **** 
1157:Libraries/lwip-1.4.0/core/tcp.c ****   inactivity = 0;
 2952              		.loc 1 1157 0
 2953 0006 0023     		movs	r3, #0
 2954 0008 7B60     		str	r3, [r7, #4]
1158:Libraries/lwip-1.4.0/core/tcp.c ****   inactive = NULL;
 2955              		.loc 1 1158 0
 2956 000a 0023     		movs	r3, #0
 2957 000c BB60     		str	r3, [r7, #8]
1159:Libraries/lwip-1.4.0/core/tcp.c ****   /* Go through the list of TIME_WAIT pcbs and get the oldest pcb. */
1160:Libraries/lwip-1.4.0/core/tcp.c ****   for(pcb = tcp_tw_pcbs; pcb != NULL; pcb = pcb->next) {
 2958              		.loc 1 1160 0
 2959 000e 124B     		ldr	r3, .L206
 2960 0010 1B68     		ldr	r3, [r3]
 2961 0012 FB60     		str	r3, [r7, #12]
 2962 0014 12E0     		b	.L201
 2963              	.L203:
1161:Libraries/lwip-1.4.0/core/tcp.c ****     if ((u32_t)(tcp_ticks - pcb->tmr) >= inactivity) {
 2964              		.loc 1 1161 0
 2965 0016 114B     		ldr	r3, .L206+4
 2966 0018 1A68     		ldr	r2, [r3]
 2967 001a FB68     		ldr	r3, [r7, #12]
 2968 001c 1B6B     		ldr	r3, [r3, #48]
 2969 001e D21A     		subs	r2, r2, r3
 2970 0020 7B68     		ldr	r3, [r7, #4]
 2971 0022 9A42     		cmp	r2, r3
 2972 0024 07D3     		bcc	.L202
1162:Libraries/lwip-1.4.0/core/tcp.c ****       inactivity = tcp_ticks - pcb->tmr;
 2973              		.loc 1 1162 0
 2974 0026 0D4B     		ldr	r3, .L206+4
 2975 0028 1A68     		ldr	r2, [r3]
 2976 002a FB68     		ldr	r3, [r7, #12]
 2977 002c 1B6B     		ldr	r3, [r3, #48]
 2978 002e D31A     		subs	r3, r2, r3
 2979 0030 7B60     		str	r3, [r7, #4]
1163:Libraries/lwip-1.4.0/core/tcp.c ****       inactive = pcb;
 2980              		.loc 1 1163 0
 2981 0032 FB68     		ldr	r3, [r7, #12]
 2982 0034 BB60     		str	r3, [r7, #8]
 2983              	.L202:
1160:Libraries/lwip-1.4.0/core/tcp.c ****     if ((u32_t)(tcp_ticks - pcb->tmr) >= inactivity) {
 2984              		.loc 1 1160 0 discriminator 2
 2985 0036 FB68     		ldr	r3, [r7, #12]
 2986 0038 DB68     		ldr	r3, [r3, #12]
 2987 003a FB60     		str	r3, [r7, #12]
 2988              	.L201:
1160:Libraries/lwip-1.4.0/core/tcp.c ****     if ((u32_t)(tcp_ticks - pcb->tmr) >= inactivity) {
 2989              		.loc 1 1160 0 is_stmt 0 discriminator 1
 2990 003c FB68     		ldr	r3, [r7, #12]
 2991 003e 002B     		cmp	r3, #0
 2992 0040 E9D1     		bne	.L203
1164:Libraries/lwip-1.4.0/core/tcp.c ****     }
1165:Libraries/lwip-1.4.0/core/tcp.c ****   }
1166:Libraries/lwip-1.4.0/core/tcp.c ****   if (inactive != NULL) {
 2993              		.loc 1 1166 0 is_stmt 1
 2994 0042 BB68     		ldr	r3, [r7, #8]
 2995 0044 002B     		cmp	r3, #0
 2996 0046 02D0     		beq	.L205
1167:Libraries/lwip-1.4.0/core/tcp.c ****     LWIP_DEBUGF(TCP_DEBUG, ("tcp_kill_timewait: killing oldest TIME-WAIT PCB %p (%"S32_F")\n",
1168:Libraries/lwip-1.4.0/core/tcp.c ****            (void *)inactive, inactivity));
1169:Libraries/lwip-1.4.0/core/tcp.c ****     tcp_abort(inactive);
 2997              		.loc 1 1169 0
 2998 0048 B868     		ldr	r0, [r7, #8]
 2999 004a FFF7FEFF 		bl	tcp_abort
 3000              	.L205:
1170:Libraries/lwip-1.4.0/core/tcp.c ****   }
1171:Libraries/lwip-1.4.0/core/tcp.c **** }
 3001              		.loc 1 1171 0
 3002 004e 00BF     		nop
 3003 0050 1037     		adds	r7, r7, #16
 3004              		.cfi_def_cfa_offset 8
 3005 0052 BD46     		mov	sp, r7
 3006              		.cfi_def_cfa_register 13
 3007              		@ sp needed
 3008 0054 80BD     		pop	{r7, pc}
 3009              	.L207:
 3010 0056 00BF     		.align	2
 3011              	.L206:
 3012 0058 00000000 		.word	tcp_tw_pcbs
 3013 005c 00000000 		.word	tcp_ticks
 3014              		.cfi_endproc
 3015              	.LFE38:
 3017              		.section	.text.tcp_alloc,"ax",%progbits
 3018              		.align	2
 3019              		.global	tcp_alloc
 3020              		.thumb
 3021              		.thumb_func
 3023              	tcp_alloc:
 3024              	.LFB39:
1172:Libraries/lwip-1.4.0/core/tcp.c **** 
1173:Libraries/lwip-1.4.0/core/tcp.c **** /**
1174:Libraries/lwip-1.4.0/core/tcp.c ****  * Allocate a new tcp_pcb structure.
1175:Libraries/lwip-1.4.0/core/tcp.c ****  *
1176:Libraries/lwip-1.4.0/core/tcp.c ****  * @param prio priority for the new pcb
1177:Libraries/lwip-1.4.0/core/tcp.c ****  * @return a new tcp_pcb that initially is in state CLOSED
1178:Libraries/lwip-1.4.0/core/tcp.c ****  */
1179:Libraries/lwip-1.4.0/core/tcp.c **** struct tcp_pcb *
1180:Libraries/lwip-1.4.0/core/tcp.c **** tcp_alloc(u8_t prio)
1181:Libraries/lwip-1.4.0/core/tcp.c **** {
 3025              		.loc 1 1181 0
 3026              		.cfi_startproc
 3027              		@ args = 0, pretend = 0, frame = 16
 3028              		@ frame_needed = 1, uses_anonymous_args = 0
 3029 0000 80B5     		push	{r7, lr}
 3030              		.cfi_def_cfa_offset 8
 3031              		.cfi_offset 7, -8
 3032              		.cfi_offset 14, -4
 3033 0002 84B0     		sub	sp, sp, #16
 3034              		.cfi_def_cfa_offset 24
 3035 0004 00AF     		add	r7, sp, #0
 3036              		.cfi_def_cfa_register 7
 3037 0006 0346     		mov	r3, r0
 3038 0008 FB71     		strb	r3, [r7, #7]
1182:Libraries/lwip-1.4.0/core/tcp.c ****   struct tcp_pcb *pcb;
1183:Libraries/lwip-1.4.0/core/tcp.c ****   u32_t iss;
1184:Libraries/lwip-1.4.0/core/tcp.c ****   
1185:Libraries/lwip-1.4.0/core/tcp.c ****   pcb = (struct tcp_pcb *)memp_malloc(MEMP_TCP_PCB);
 3039              		.loc 1 1185 0
 3040 000a 0220     		movs	r0, #2
 3041 000c FFF7FEFF 		bl	memp_malloc
 3042 0010 F860     		str	r0, [r7, #12]
1186:Libraries/lwip-1.4.0/core/tcp.c ****   if (pcb == NULL) {
 3043              		.loc 1 1186 0
 3044 0012 FB68     		ldr	r3, [r7, #12]
 3045 0014 002B     		cmp	r3, #0
 3046 0016 26D1     		bne	.L209
1187:Libraries/lwip-1.4.0/core/tcp.c ****     /* Try killing oldest connection in TIME-WAIT. */
1188:Libraries/lwip-1.4.0/core/tcp.c ****     LWIP_DEBUGF(TCP_DEBUG, ("tcp_alloc: killing off oldest TIME-WAIT connection\n"));
1189:Libraries/lwip-1.4.0/core/tcp.c ****     tcp_kill_timewait();
 3047              		.loc 1 1189 0
 3048 0018 FFF7FEFF 		bl	tcp_kill_timewait
1190:Libraries/lwip-1.4.0/core/tcp.c ****     /* Try to allocate a tcp_pcb again. */
1191:Libraries/lwip-1.4.0/core/tcp.c ****     pcb = (struct tcp_pcb *)memp_malloc(MEMP_TCP_PCB);
 3049              		.loc 1 1191 0
 3050 001c 0220     		movs	r0, #2
 3051 001e FFF7FEFF 		bl	memp_malloc
 3052 0022 F860     		str	r0, [r7, #12]
1192:Libraries/lwip-1.4.0/core/tcp.c ****     if (pcb == NULL) {
 3053              		.loc 1 1192 0
 3054 0024 FB68     		ldr	r3, [r7, #12]
 3055 0026 002B     		cmp	r3, #0
 3056 0028 12D1     		bne	.L210
1193:Libraries/lwip-1.4.0/core/tcp.c ****       /* Try killing active connections with lower priority than the new one. */
1194:Libraries/lwip-1.4.0/core/tcp.c ****       LWIP_DEBUGF(TCP_DEBUG, ("tcp_alloc: killing connection with prio lower than %d\n", prio));
1195:Libraries/lwip-1.4.0/core/tcp.c ****       tcp_kill_prio(prio);
 3057              		.loc 1 1195 0
 3058 002a FB79     		ldrb	r3, [r7, #7]	@ zero_extendqisi2
 3059 002c 1846     		mov	r0, r3
 3060 002e FFF7FEFF 		bl	tcp_kill_prio
1196:Libraries/lwip-1.4.0/core/tcp.c ****       /* Try to allocate a tcp_pcb again. */
1197:Libraries/lwip-1.4.0/core/tcp.c ****       pcb = (struct tcp_pcb *)memp_malloc(MEMP_TCP_PCB);
 3061              		.loc 1 1197 0
 3062 0032 0220     		movs	r0, #2
 3063 0034 FFF7FEFF 		bl	memp_malloc
 3064 0038 F860     		str	r0, [r7, #12]
1198:Libraries/lwip-1.4.0/core/tcp.c ****       if (pcb != NULL) {
 3065              		.loc 1 1198 0
 3066 003a FB68     		ldr	r3, [r7, #12]
 3067 003c 002B     		cmp	r3, #0
 3068 003e 07D0     		beq	.L210
1199:Libraries/lwip-1.4.0/core/tcp.c ****         /* adjust err stats: memp_malloc failed twice before */
1200:Libraries/lwip-1.4.0/core/tcp.c ****         MEMP_STATS_DEC(err, MEMP_TCP_PCB);
 3069              		.loc 1 1200 0
 3070 0040 3A4B     		ldr	r3, .L213
 3071 0042 B3F8CC30 		ldrh	r3, [r3, #204]
 3072 0046 013B     		subs	r3, r3, #1
 3073 0048 9AB2     		uxth	r2, r3
 3074 004a 384B     		ldr	r3, .L213
 3075 004c A3F8CC20 		strh	r2, [r3, #204]	@ movhi
 3076              	.L210:
1201:Libraries/lwip-1.4.0/core/tcp.c ****       }
1202:Libraries/lwip-1.4.0/core/tcp.c ****     }
1203:Libraries/lwip-1.4.0/core/tcp.c ****     if (pcb != NULL) {
 3077              		.loc 1 1203 0
 3078 0050 FB68     		ldr	r3, [r7, #12]
 3079 0052 002B     		cmp	r3, #0
 3080 0054 07D0     		beq	.L209
1204:Libraries/lwip-1.4.0/core/tcp.c ****       /* adjust err stats: timewait PCB was freed above */
1205:Libraries/lwip-1.4.0/core/tcp.c ****       MEMP_STATS_DEC(err, MEMP_TCP_PCB);
 3081              		.loc 1 1205 0
 3082 0056 354B     		ldr	r3, .L213
 3083 0058 B3F8CC30 		ldrh	r3, [r3, #204]
 3084 005c 013B     		subs	r3, r3, #1
 3085 005e 9AB2     		uxth	r2, r3
 3086 0060 324B     		ldr	r3, .L213
 3087 0062 A3F8CC20 		strh	r2, [r3, #204]	@ movhi
 3088              	.L209:
1206:Libraries/lwip-1.4.0/core/tcp.c ****     }
1207:Libraries/lwip-1.4.0/core/tcp.c ****   }
1208:Libraries/lwip-1.4.0/core/tcp.c ****   if (pcb != NULL) {
 3089              		.loc 1 1208 0
 3090 0066 FB68     		ldr	r3, [r7, #12]
 3091 0068 002B     		cmp	r3, #0
 3092 006a 59D0     		beq	.L211
1209:Libraries/lwip-1.4.0/core/tcp.c ****     memset(pcb, 0, sizeof(struct tcp_pcb));
 3093              		.loc 1 1209 0
 3094 006c A422     		movs	r2, #164
 3095 006e 0021     		movs	r1, #0
 3096 0070 F868     		ldr	r0, [r7, #12]
 3097 0072 FFF7FEFF 		bl	memset
1210:Libraries/lwip-1.4.0/core/tcp.c ****     pcb->prio = prio;
 3098              		.loc 1 1210 0
 3099 0076 FB68     		ldr	r3, [r7, #12]
 3100 0078 FA79     		ldrb	r2, [r7, #7]
 3101 007a 5A74     		strb	r2, [r3, #17]
1211:Libraries/lwip-1.4.0/core/tcp.c ****     pcb->snd_buf = TCP_SND_BUF;
 3102              		.loc 1 1211 0
 3103 007c FB68     		ldr	r3, [r7, #12]
 3104 007e 4FF40172 		mov	r2, #516
 3105 0082 A3F86E20 		strh	r2, [r3, #110]	@ movhi
1212:Libraries/lwip-1.4.0/core/tcp.c ****     pcb->snd_queuelen = 0;
 3106              		.loc 1 1212 0
 3107 0086 FB68     		ldr	r3, [r7, #12]
 3108 0088 0022     		movs	r2, #0
 3109 008a A3F87020 		strh	r2, [r3, #112]	@ movhi
1213:Libraries/lwip-1.4.0/core/tcp.c ****     pcb->rcv_wnd = TCP_WND;
 3110              		.loc 1 1213 0
 3111 008e FB68     		ldr	r3, [r7, #12]
 3112 0090 4FF40662 		mov	r2, #2144
 3113 0094 1A85     		strh	r2, [r3, #40]	@ movhi
1214:Libraries/lwip-1.4.0/core/tcp.c ****     pcb->rcv_ann_wnd = TCP_WND;
 3114              		.loc 1 1214 0
 3115 0096 FB68     		ldr	r3, [r7, #12]
 3116 0098 4FF40662 		mov	r2, #2144
 3117 009c 5A85     		strh	r2, [r3, #42]	@ movhi
1215:Libraries/lwip-1.4.0/core/tcp.c ****     pcb->tos = 0;
 3118              		.loc 1 1215 0
 3119 009e FB68     		ldr	r3, [r7, #12]
 3120 00a0 0022     		movs	r2, #0
 3121 00a2 5A72     		strb	r2, [r3, #9]
1216:Libraries/lwip-1.4.0/core/tcp.c ****     pcb->ttl = TCP_TTL;
 3122              		.loc 1 1216 0
 3123 00a4 FB68     		ldr	r3, [r7, #12]
 3124 00a6 FF22     		movs	r2, #255
 3125 00a8 9A72     		strb	r2, [r3, #10]
1217:Libraries/lwip-1.4.0/core/tcp.c ****     /* As initial send MSS, we use TCP_MSS but limit it to 536.
1218:Libraries/lwip-1.4.0/core/tcp.c ****        The send MSS is updated when an MSS option is received. */
1219:Libraries/lwip-1.4.0/core/tcp.c ****     pcb->mss = (TCP_MSS > 536) ? 536 : TCP_MSS;
 3126              		.loc 1 1219 0
 3127 00aa FB68     		ldr	r3, [r7, #12]
 3128 00ac 4FF40672 		mov	r2, #536
 3129 00b0 1A87     		strh	r2, [r3, #56]	@ movhi
1220:Libraries/lwip-1.4.0/core/tcp.c ****     pcb->rto = 3000 / TCP_SLOW_INTERVAL;
 3130              		.loc 1 1220 0
 3131 00b2 FB68     		ldr	r3, [r7, #12]
 3132 00b4 0622     		movs	r2, #6
 3133 00b6 A3F84820 		strh	r2, [r3, #72]	@ movhi
1221:Libraries/lwip-1.4.0/core/tcp.c ****     pcb->sa = 0;
 3134              		.loc 1 1221 0
 3135 00ba FB68     		ldr	r3, [r7, #12]
 3136 00bc 0022     		movs	r2, #0
 3137 00be A3F84420 		strh	r2, [r3, #68]	@ movhi
1222:Libraries/lwip-1.4.0/core/tcp.c ****     pcb->sv = 3000 / TCP_SLOW_INTERVAL;
 3138              		.loc 1 1222 0
 3139 00c2 FB68     		ldr	r3, [r7, #12]
 3140 00c4 0622     		movs	r2, #6
 3141 00c6 A3F84620 		strh	r2, [r3, #70]	@ movhi
1223:Libraries/lwip-1.4.0/core/tcp.c ****     pcb->rtime = -1;
 3142              		.loc 1 1223 0
 3143 00ca FB68     		ldr	r3, [r7, #12]
 3144 00cc 4FF6FF72 		movw	r2, #65535
 3145 00d0 DA86     		strh	r2, [r3, #54]	@ movhi
1224:Libraries/lwip-1.4.0/core/tcp.c ****     pcb->cwnd = 1;
 3146              		.loc 1 1224 0
 3147 00d2 FB68     		ldr	r3, [r7, #12]
 3148 00d4 0122     		movs	r2, #1
 3149 00d6 A3F85220 		strh	r2, [r3, #82]	@ movhi
1225:Libraries/lwip-1.4.0/core/tcp.c ****     iss = tcp_next_iss();
 3150              		.loc 1 1225 0
 3151 00da FFF7FEFF 		bl	tcp_next_iss
 3152 00de B860     		str	r0, [r7, #8]
1226:Libraries/lwip-1.4.0/core/tcp.c ****     pcb->snd_wl2 = iss;
 3153              		.loc 1 1226 0
 3154 00e0 FB68     		ldr	r3, [r7, #12]
 3155 00e2 BA68     		ldr	r2, [r7, #8]
 3156 00e4 5A66     		str	r2, [r3, #100]
1227:Libraries/lwip-1.4.0/core/tcp.c ****     pcb->snd_nxt = iss;
 3157              		.loc 1 1227 0
 3158 00e6 FB68     		ldr	r3, [r7, #12]
 3159 00e8 BA68     		ldr	r2, [r7, #8]
 3160 00ea 9A65     		str	r2, [r3, #88]
1228:Libraries/lwip-1.4.0/core/tcp.c ****     pcb->lastack = iss;
 3161              		.loc 1 1228 0
 3162 00ec FB68     		ldr	r3, [r7, #12]
 3163 00ee BA68     		ldr	r2, [r7, #8]
 3164 00f0 DA64     		str	r2, [r3, #76]
1229:Libraries/lwip-1.4.0/core/tcp.c ****     pcb->snd_lbb = iss;   
 3165              		.loc 1 1229 0
 3166 00f2 FB68     		ldr	r3, [r7, #12]
 3167 00f4 BA68     		ldr	r2, [r7, #8]
 3168 00f6 9A66     		str	r2, [r3, #104]
1230:Libraries/lwip-1.4.0/core/tcp.c ****     pcb->tmr = tcp_ticks;
 3169              		.loc 1 1230 0
 3170 00f8 0D4B     		ldr	r3, .L213+4
 3171 00fa 1A68     		ldr	r2, [r3]
 3172 00fc FB68     		ldr	r3, [r7, #12]
 3173 00fe 1A63     		str	r2, [r3, #48]
1231:Libraries/lwip-1.4.0/core/tcp.c **** 
1232:Libraries/lwip-1.4.0/core/tcp.c ****     pcb->polltmr = 0;
 3174              		.loc 1 1232 0
 3175 0100 FB68     		ldr	r3, [r7, #12]
 3176 0102 0022     		movs	r2, #0
 3177 0104 83F83420 		strb	r2, [r3, #52]
1233:Libraries/lwip-1.4.0/core/tcp.c **** 
1234:Libraries/lwip-1.4.0/core/tcp.c **** #if LWIP_CALLBACK_API
1235:Libraries/lwip-1.4.0/core/tcp.c ****     pcb->recv = tcp_recv_null;
 3178              		.loc 1 1235 0
 3179 0108 FB68     		ldr	r3, [r7, #12]
 3180 010a 0A4A     		ldr	r2, .L213+8
 3181 010c C3F88820 		str	r2, [r3, #136]
1236:Libraries/lwip-1.4.0/core/tcp.c **** #endif /* LWIP_CALLBACK_API */  
1237:Libraries/lwip-1.4.0/core/tcp.c ****     
1238:Libraries/lwip-1.4.0/core/tcp.c ****     /* Init KEEPALIVE timer */
1239:Libraries/lwip-1.4.0/core/tcp.c ****     pcb->keep_idle  = TCP_KEEPIDLE_DEFAULT;
 3182              		.loc 1 1239 0
 3183 0110 FB68     		ldr	r3, [r7, #12]
 3184 0112 094A     		ldr	r2, .L213+12
 3185 0114 C3F89820 		str	r2, [r3, #152]
1240:Libraries/lwip-1.4.0/core/tcp.c ****     
1241:Libraries/lwip-1.4.0/core/tcp.c **** #if LWIP_TCP_KEEPALIVE
1242:Libraries/lwip-1.4.0/core/tcp.c ****     pcb->keep_intvl = TCP_KEEPINTVL_DEFAULT;
1243:Libraries/lwip-1.4.0/core/tcp.c ****     pcb->keep_cnt   = TCP_KEEPCNT_DEFAULT;
1244:Libraries/lwip-1.4.0/core/tcp.c **** #endif /* LWIP_TCP_KEEPALIVE */
1245:Libraries/lwip-1.4.0/core/tcp.c **** 
1246:Libraries/lwip-1.4.0/core/tcp.c ****     pcb->keep_cnt_sent = 0;
 3186              		.loc 1 1246 0
 3187 0118 FB68     		ldr	r3, [r7, #12]
 3188 011a 0022     		movs	r2, #0
 3189 011c 83F8A120 		strb	r2, [r3, #161]
 3190              	.L211:
1247:Libraries/lwip-1.4.0/core/tcp.c ****   }
1248:Libraries/lwip-1.4.0/core/tcp.c ****   return pcb;
 3191              		.loc 1 1248 0
 3192 0120 FB68     		ldr	r3, [r7, #12]
1249:Libraries/lwip-1.4.0/core/tcp.c **** }
 3193              		.loc 1 1249 0
 3194 0122 1846     		mov	r0, r3
 3195 0124 1037     		adds	r7, r7, #16
 3196              		.cfi_def_cfa_offset 8
 3197 0126 BD46     		mov	sp, r7
 3198              		.cfi_def_cfa_register 13
 3199              		@ sp needed
 3200 0128 80BD     		pop	{r7, pc}
 3201              	.L214:
 3202 012a 00BF     		.align	2
 3203              	.L213:
 3204 012c 00000000 		.word	lwip_stats
 3205 0130 00000000 		.word	tcp_ticks
 3206 0134 00000000 		.word	tcp_recv_null
 3207 0138 00DD6D00 		.word	7200000
 3208              		.cfi_endproc
 3209              	.LFE39:
 3211              		.section	.text.tcp_new,"ax",%progbits
 3212              		.align	2
 3213              		.global	tcp_new
 3214              		.thumb
 3215              		.thumb_func
 3217              	tcp_new:
 3218              	.LFB40:
1250:Libraries/lwip-1.4.0/core/tcp.c **** 
1251:Libraries/lwip-1.4.0/core/tcp.c **** /**
1252:Libraries/lwip-1.4.0/core/tcp.c ****  * Creates a new TCP protocol control block but doesn't place it on
1253:Libraries/lwip-1.4.0/core/tcp.c ****  * any of the TCP PCB lists.
1254:Libraries/lwip-1.4.0/core/tcp.c ****  * The pcb is not put on any list until binding using tcp_bind().
1255:Libraries/lwip-1.4.0/core/tcp.c ****  *
1256:Libraries/lwip-1.4.0/core/tcp.c ****  * @internal: Maybe there should be a idle TCP PCB list where these
1257:Libraries/lwip-1.4.0/core/tcp.c ****  * PCBs are put on. Port reservation using tcp_bind() is implemented but
1258:Libraries/lwip-1.4.0/core/tcp.c ****  * allocated pcbs that are not bound can't be killed automatically if wanting
1259:Libraries/lwip-1.4.0/core/tcp.c ****  * to allocate a pcb with higher prio (@see tcp_kill_prio())
1260:Libraries/lwip-1.4.0/core/tcp.c ****  *
1261:Libraries/lwip-1.4.0/core/tcp.c ****  * @return a new tcp_pcb that initially is in state CLOSED
1262:Libraries/lwip-1.4.0/core/tcp.c ****  */
1263:Libraries/lwip-1.4.0/core/tcp.c **** struct tcp_pcb *
1264:Libraries/lwip-1.4.0/core/tcp.c **** tcp_new(void)
1265:Libraries/lwip-1.4.0/core/tcp.c **** {
 3219              		.loc 1 1265 0
 3220              		.cfi_startproc
 3221              		@ args = 0, pretend = 0, frame = 0
 3222              		@ frame_needed = 1, uses_anonymous_args = 0
 3223 0000 80B5     		push	{r7, lr}
 3224              		.cfi_def_cfa_offset 8
 3225              		.cfi_offset 7, -8
 3226              		.cfi_offset 14, -4
 3227 0002 00AF     		add	r7, sp, #0
 3228              		.cfi_def_cfa_register 7
1266:Libraries/lwip-1.4.0/core/tcp.c ****   return tcp_alloc(TCP_PRIO_NORMAL);
 3229              		.loc 1 1266 0
 3230 0004 4020     		movs	r0, #64
 3231 0006 FFF7FEFF 		bl	tcp_alloc
 3232 000a 0346     		mov	r3, r0
1267:Libraries/lwip-1.4.0/core/tcp.c **** }
 3233              		.loc 1 1267 0
 3234 000c 1846     		mov	r0, r3
 3235 000e 80BD     		pop	{r7, pc}
 3236              		.cfi_endproc
 3237              	.LFE40:
 3239              		.section	.text.tcp_arg,"ax",%progbits
 3240              		.align	2
 3241              		.global	tcp_arg
 3242              		.thumb
 3243              		.thumb_func
 3245              	tcp_arg:
 3246              	.LFB41:
1268:Libraries/lwip-1.4.0/core/tcp.c **** 
1269:Libraries/lwip-1.4.0/core/tcp.c **** /**
1270:Libraries/lwip-1.4.0/core/tcp.c ****  * Used to specify the argument that should be passed callback
1271:Libraries/lwip-1.4.0/core/tcp.c ****  * functions.
1272:Libraries/lwip-1.4.0/core/tcp.c ****  *
1273:Libraries/lwip-1.4.0/core/tcp.c ****  * @param pcb tcp_pcb to set the callback argument
1274:Libraries/lwip-1.4.0/core/tcp.c ****  * @param arg void pointer argument to pass to callback functions
1275:Libraries/lwip-1.4.0/core/tcp.c ****  */ 
1276:Libraries/lwip-1.4.0/core/tcp.c **** //The ARG can be any argument which can be passed as a pointer.
1277:Libraries/lwip-1.4.0/core/tcp.c **** void
1278:Libraries/lwip-1.4.0/core/tcp.c **** tcp_arg(struct tcp_pcb *pcb, void *arg)
1279:Libraries/lwip-1.4.0/core/tcp.c **** {  
 3247              		.loc 1 1279 0
 3248              		.cfi_startproc
 3249              		@ args = 0, pretend = 0, frame = 8
 3250              		@ frame_needed = 1, uses_anonymous_args = 0
 3251              		@ link register save eliminated.
 3252 0000 80B4     		push	{r7}
 3253              		.cfi_def_cfa_offset 4
 3254              		.cfi_offset 7, -4
 3255 0002 83B0     		sub	sp, sp, #12
 3256              		.cfi_def_cfa_offset 16
 3257 0004 00AF     		add	r7, sp, #0
 3258              		.cfi_def_cfa_register 7
 3259 0006 7860     		str	r0, [r7, #4]
 3260 0008 3960     		str	r1, [r7]
1280:Libraries/lwip-1.4.0/core/tcp.c ****   pcb->callback_arg = arg;
 3261              		.loc 1 1280 0
 3262 000a 7B68     		ldr	r3, [r7, #4]
 3263 000c 3A68     		ldr	r2, [r7]
 3264 000e 5A61     		str	r2, [r3, #20]
1281:Libraries/lwip-1.4.0/core/tcp.c **** }
 3265              		.loc 1 1281 0
 3266 0010 00BF     		nop
 3267 0012 0C37     		adds	r7, r7, #12
 3268              		.cfi_def_cfa_offset 4
 3269 0014 BD46     		mov	sp, r7
 3270              		.cfi_def_cfa_register 13
 3271              		@ sp needed
 3272 0016 80BC     		pop	{r7}
 3273              		.cfi_restore 7
 3274              		.cfi_def_cfa_offset 0
 3275 0018 7047     		bx	lr
 3276              		.cfi_endproc
 3277              	.LFE41:
 3279 001a 00BF     		.section	.text.tcp_recv,"ax",%progbits
 3280              		.align	2
 3281              		.global	tcp_recv
 3282              		.thumb
 3283              		.thumb_func
 3285              	tcp_recv:
 3286              	.LFB42:
1282:Libraries/lwip-1.4.0/core/tcp.c **** #if LWIP_CALLBACK_API
1283:Libraries/lwip-1.4.0/core/tcp.c **** 
1284:Libraries/lwip-1.4.0/core/tcp.c **** /**
1285:Libraries/lwip-1.4.0/core/tcp.c ****  * Used to specify the function that should be called when a TCP
1286:Libraries/lwip-1.4.0/core/tcp.c ****  * connection receives data.
1287:Libraries/lwip-1.4.0/core/tcp.c ****  *
1288:Libraries/lwip-1.4.0/core/tcp.c ****  * @param pcb tcp_pcb to set the recv callback
1289:Libraries/lwip-1.4.0/core/tcp.c ****  * @param recv callback function to call for this pcb when data is received
1290:Libraries/lwip-1.4.0/core/tcp.c ****  */ 
1291:Libraries/lwip-1.4.0/core/tcp.c **** void
1292:Libraries/lwip-1.4.0/core/tcp.c **** tcp_recv(struct tcp_pcb *pcb, tcp_recv_fn recv)
1293:Libraries/lwip-1.4.0/core/tcp.c **** {
 3287              		.loc 1 1293 0
 3288              		.cfi_startproc
 3289              		@ args = 0, pretend = 0, frame = 8
 3290              		@ frame_needed = 1, uses_anonymous_args = 0
 3291              		@ link register save eliminated.
 3292 0000 80B4     		push	{r7}
 3293              		.cfi_def_cfa_offset 4
 3294              		.cfi_offset 7, -4
 3295 0002 83B0     		sub	sp, sp, #12
 3296              		.cfi_def_cfa_offset 16
 3297 0004 00AF     		add	r7, sp, #0
 3298              		.cfi_def_cfa_register 7
 3299 0006 7860     		str	r0, [r7, #4]
 3300 0008 3960     		str	r1, [r7]
1294:Libraries/lwip-1.4.0/core/tcp.c ****   pcb->recv = recv;
 3301              		.loc 1 1294 0
 3302 000a 7B68     		ldr	r3, [r7, #4]
 3303 000c 3A68     		ldr	r2, [r7]
 3304 000e C3F88820 		str	r2, [r3, #136]
1295:Libraries/lwip-1.4.0/core/tcp.c **** }
 3305              		.loc 1 1295 0
 3306 0012 00BF     		nop
 3307 0014 0C37     		adds	r7, r7, #12
 3308              		.cfi_def_cfa_offset 4
 3309 0016 BD46     		mov	sp, r7
 3310              		.cfi_def_cfa_register 13
 3311              		@ sp needed
 3312 0018 80BC     		pop	{r7}
 3313              		.cfi_restore 7
 3314              		.cfi_def_cfa_offset 0
 3315 001a 7047     		bx	lr
 3316              		.cfi_endproc
 3317              	.LFE42:
 3319              		.section	.text.tcp_sent,"ax",%progbits
 3320              		.align	2
 3321              		.global	tcp_sent
 3322              		.thumb
 3323              		.thumb_func
 3325              	tcp_sent:
 3326              	.LFB43:
1296:Libraries/lwip-1.4.0/core/tcp.c **** 
1297:Libraries/lwip-1.4.0/core/tcp.c **** /**
1298:Libraries/lwip-1.4.0/core/tcp.c ****  * Used to specify the function that should be called when TCP data
1299:Libraries/lwip-1.4.0/core/tcp.c ****  * has been successfully delivered to the remote host.
1300:Libraries/lwip-1.4.0/core/tcp.c ****  *
1301:Libraries/lwip-1.4.0/core/tcp.c ****  * @param pcb tcp_pcb to set the sent callback
1302:Libraries/lwip-1.4.0/core/tcp.c ****  * @param sent callback function to call for this pcb when data is successfully sent
1303:Libraries/lwip-1.4.0/core/tcp.c ****  */ 
1304:Libraries/lwip-1.4.0/core/tcp.c **** void
1305:Libraries/lwip-1.4.0/core/tcp.c **** tcp_sent(struct tcp_pcb *pcb, tcp_sent_fn sent)
1306:Libraries/lwip-1.4.0/core/tcp.c **** {
 3327              		.loc 1 1306 0
 3328              		.cfi_startproc
 3329              		@ args = 0, pretend = 0, frame = 8
 3330              		@ frame_needed = 1, uses_anonymous_args = 0
 3331              		@ link register save eliminated.
 3332 0000 80B4     		push	{r7}
 3333              		.cfi_def_cfa_offset 4
 3334              		.cfi_offset 7, -4
 3335 0002 83B0     		sub	sp, sp, #12
 3336              		.cfi_def_cfa_offset 16
 3337 0004 00AF     		add	r7, sp, #0
 3338              		.cfi_def_cfa_register 7
 3339 0006 7860     		str	r0, [r7, #4]
 3340 0008 3960     		str	r1, [r7]
1307:Libraries/lwip-1.4.0/core/tcp.c ****   pcb->sent = sent;
 3341              		.loc 1 1307 0
 3342 000a 7B68     		ldr	r3, [r7, #4]
 3343 000c 3A68     		ldr	r2, [r7]
 3344 000e C3F88420 		str	r2, [r3, #132]
1308:Libraries/lwip-1.4.0/core/tcp.c **** }
 3345              		.loc 1 1308 0
 3346 0012 00BF     		nop
 3347 0014 0C37     		adds	r7, r7, #12
 3348              		.cfi_def_cfa_offset 4
 3349 0016 BD46     		mov	sp, r7
 3350              		.cfi_def_cfa_register 13
 3351              		@ sp needed
 3352 0018 80BC     		pop	{r7}
 3353              		.cfi_restore 7
 3354              		.cfi_def_cfa_offset 0
 3355 001a 7047     		bx	lr
 3356              		.cfi_endproc
 3357              	.LFE43:
 3359              		.section	.text.tcp_err,"ax",%progbits
 3360              		.align	2
 3361              		.global	tcp_err
 3362              		.thumb
 3363              		.thumb_func
 3365              	tcp_err:
 3366              	.LFB44:
1309:Libraries/lwip-1.4.0/core/tcp.c **** 
1310:Libraries/lwip-1.4.0/core/tcp.c **** /**
1311:Libraries/lwip-1.4.0/core/tcp.c ****  * Used to specify the function that should be called when a fatal error
1312:Libraries/lwip-1.4.0/core/tcp.c ****  * has occured on the connection.
1313:Libraries/lwip-1.4.0/core/tcp.c ****  *
1314:Libraries/lwip-1.4.0/core/tcp.c ****  * @param pcb tcp_pcb to set the err callback
1315:Libraries/lwip-1.4.0/core/tcp.c ****  * @param err callback function to call for this pcb when a fatal error
1316:Libraries/lwip-1.4.0/core/tcp.c ****  *        has occured on the connection
1317:Libraries/lwip-1.4.0/core/tcp.c ****  */ 
1318:Libraries/lwip-1.4.0/core/tcp.c **** void
1319:Libraries/lwip-1.4.0/core/tcp.c **** tcp_err(struct tcp_pcb *pcb, tcp_err_fn err)
1320:Libraries/lwip-1.4.0/core/tcp.c **** {
 3367              		.loc 1 1320 0
 3368              		.cfi_startproc
 3369              		@ args = 0, pretend = 0, frame = 8
 3370              		@ frame_needed = 1, uses_anonymous_args = 0
 3371              		@ link register save eliminated.
 3372 0000 80B4     		push	{r7}
 3373              		.cfi_def_cfa_offset 4
 3374              		.cfi_offset 7, -4
 3375 0002 83B0     		sub	sp, sp, #12
 3376              		.cfi_def_cfa_offset 16
 3377 0004 00AF     		add	r7, sp, #0
 3378              		.cfi_def_cfa_register 7
 3379 0006 7860     		str	r0, [r7, #4]
 3380 0008 3960     		str	r1, [r7]
1321:Libraries/lwip-1.4.0/core/tcp.c ****   pcb->errf = err;
 3381              		.loc 1 1321 0
 3382 000a 7B68     		ldr	r3, [r7, #4]
 3383 000c 3A68     		ldr	r2, [r7]
 3384 000e C3F89420 		str	r2, [r3, #148]
1322:Libraries/lwip-1.4.0/core/tcp.c **** }
 3385              		.loc 1 1322 0
 3386 0012 00BF     		nop
 3387 0014 0C37     		adds	r7, r7, #12
 3388              		.cfi_def_cfa_offset 4
 3389 0016 BD46     		mov	sp, r7
 3390              		.cfi_def_cfa_register 13
 3391              		@ sp needed
 3392 0018 80BC     		pop	{r7}
 3393              		.cfi_restore 7
 3394              		.cfi_def_cfa_offset 0
 3395 001a 7047     		bx	lr
 3396              		.cfi_endproc
 3397              	.LFE44:
 3399              		.section	.text.tcp_accept,"ax",%progbits
 3400              		.align	2
 3401              		.global	tcp_accept
 3402              		.thumb
 3403              		.thumb_func
 3405              	tcp_accept:
 3406              	.LFB45:
1323:Libraries/lwip-1.4.0/core/tcp.c **** 
1324:Libraries/lwip-1.4.0/core/tcp.c **** /**
1325:Libraries/lwip-1.4.0/core/tcp.c ****  * Used for specifying the function that should be called when a
1326:Libraries/lwip-1.4.0/core/tcp.c ****  * LISTENing connection has been connected to another host.
1327:Libraries/lwip-1.4.0/core/tcp.c ****  *
1328:Libraries/lwip-1.4.0/core/tcp.c ****  * @param pcb tcp_pcb to set the accept callback
1329:Libraries/lwip-1.4.0/core/tcp.c ****  * @param accept callback function to call for this pcb when LISTENing
1330:Libraries/lwip-1.4.0/core/tcp.c ****  *        connection has been connected to another host
1331:Libraries/lwip-1.4.0/core/tcp.c ****  */ 
1332:Libraries/lwip-1.4.0/core/tcp.c **** void
1333:Libraries/lwip-1.4.0/core/tcp.c **** tcp_accept(struct tcp_pcb *pcb, tcp_accept_fn accept)
1334:Libraries/lwip-1.4.0/core/tcp.c **** {
 3407              		.loc 1 1334 0
 3408              		.cfi_startproc
 3409              		@ args = 0, pretend = 0, frame = 8
 3410              		@ frame_needed = 1, uses_anonymous_args = 0
 3411              		@ link register save eliminated.
 3412 0000 80B4     		push	{r7}
 3413              		.cfi_def_cfa_offset 4
 3414              		.cfi_offset 7, -4
 3415 0002 83B0     		sub	sp, sp, #12
 3416              		.cfi_def_cfa_offset 16
 3417 0004 00AF     		add	r7, sp, #0
 3418              		.cfi_def_cfa_register 7
 3419 0006 7860     		str	r0, [r7, #4]
 3420 0008 3960     		str	r1, [r7]
1335:Libraries/lwip-1.4.0/core/tcp.c ****   pcb->accept = accept;
 3421              		.loc 1 1335 0
 3422 000a 7B68     		ldr	r3, [r7, #4]
 3423 000c 3A68     		ldr	r2, [r7]
 3424 000e 9A61     		str	r2, [r3, #24]
1336:Libraries/lwip-1.4.0/core/tcp.c **** }
 3425              		.loc 1 1336 0
 3426 0010 00BF     		nop
 3427 0012 0C37     		adds	r7, r7, #12
 3428              		.cfi_def_cfa_offset 4
 3429 0014 BD46     		mov	sp, r7
 3430              		.cfi_def_cfa_register 13
 3431              		@ sp needed
 3432 0016 80BC     		pop	{r7}
 3433              		.cfi_restore 7
 3434              		.cfi_def_cfa_offset 0
 3435 0018 7047     		bx	lr
 3436              		.cfi_endproc
 3437              	.LFE45:
 3439 001a 00BF     		.section	.text.tcp_poll,"ax",%progbits
 3440              		.align	2
 3441              		.global	tcp_poll
 3442              		.thumb
 3443              		.thumb_func
 3445              	tcp_poll:
 3446              	.LFB46:
1337:Libraries/lwip-1.4.0/core/tcp.c **** #endif /* LWIP_CALLBACK_API */
1338:Libraries/lwip-1.4.0/core/tcp.c **** 
1339:Libraries/lwip-1.4.0/core/tcp.c **** 
1340:Libraries/lwip-1.4.0/core/tcp.c **** /**
1341:Libraries/lwip-1.4.0/core/tcp.c ****  * Used to specify the function that should be called periodically
1342:Libraries/lwip-1.4.0/core/tcp.c ****  * from TCP. The interval is specified in terms of the TCP coarse
1343:Libraries/lwip-1.4.0/core/tcp.c ****  * timer interval, which is called twice a second.
1344:Libraries/lwip-1.4.0/core/tcp.c ****  *
1345:Libraries/lwip-1.4.0/core/tcp.c ****  */ 
1346:Libraries/lwip-1.4.0/core/tcp.c **** void
1347:Libraries/lwip-1.4.0/core/tcp.c **** tcp_poll(struct tcp_pcb *pcb, tcp_poll_fn poll, u8_t interval)
1348:Libraries/lwip-1.4.0/core/tcp.c **** {
 3447              		.loc 1 1348 0
 3448              		.cfi_startproc
 3449              		@ args = 0, pretend = 0, frame = 16
 3450              		@ frame_needed = 1, uses_anonymous_args = 0
 3451              		@ link register save eliminated.
 3452 0000 80B4     		push	{r7}
 3453              		.cfi_def_cfa_offset 4
 3454              		.cfi_offset 7, -4
 3455 0002 85B0     		sub	sp, sp, #20
 3456              		.cfi_def_cfa_offset 24
 3457 0004 00AF     		add	r7, sp, #0
 3458              		.cfi_def_cfa_register 7
 3459 0006 F860     		str	r0, [r7, #12]
 3460 0008 B960     		str	r1, [r7, #8]
 3461 000a 1346     		mov	r3, r2
 3462 000c FB71     		strb	r3, [r7, #7]
1349:Libraries/lwip-1.4.0/core/tcp.c **** #if LWIP_CALLBACK_API
1350:Libraries/lwip-1.4.0/core/tcp.c ****   pcb->poll = poll;
 3463              		.loc 1 1350 0
 3464 000e FB68     		ldr	r3, [r7, #12]
 3465 0010 BA68     		ldr	r2, [r7, #8]
 3466 0012 C3F89020 		str	r2, [r3, #144]
1351:Libraries/lwip-1.4.0/core/tcp.c **** #else /* LWIP_CALLBACK_API */  
1352:Libraries/lwip-1.4.0/core/tcp.c ****   LWIP_UNUSED_ARG(poll);
1353:Libraries/lwip-1.4.0/core/tcp.c **** #endif /* LWIP_CALLBACK_API */  
1354:Libraries/lwip-1.4.0/core/tcp.c ****   pcb->pollinterval = interval;
 3467              		.loc 1 1354 0
 3468 0016 FB68     		ldr	r3, [r7, #12]
 3469 0018 FA79     		ldrb	r2, [r7, #7]
 3470 001a 83F83520 		strb	r2, [r3, #53]
1355:Libraries/lwip-1.4.0/core/tcp.c **** }
 3471              		.loc 1 1355 0
 3472 001e 00BF     		nop
 3473 0020 1437     		adds	r7, r7, #20
 3474              		.cfi_def_cfa_offset 4
 3475 0022 BD46     		mov	sp, r7
 3476              		.cfi_def_cfa_register 13
 3477              		@ sp needed
 3478 0024 80BC     		pop	{r7}
 3479              		.cfi_restore 7
 3480              		.cfi_def_cfa_offset 0
 3481 0026 7047     		bx	lr
 3482              		.cfi_endproc
 3483              	.LFE46:
 3485              		.section	.text.tcp_pcb_purge,"ax",%progbits
 3486              		.align	2
 3487              		.global	tcp_pcb_purge
 3488              		.thumb
 3489              		.thumb_func
 3491              	tcp_pcb_purge:
 3492              	.LFB47:
1356:Libraries/lwip-1.4.0/core/tcp.c **** 
1357:Libraries/lwip-1.4.0/core/tcp.c **** /**
1358:Libraries/lwip-1.4.0/core/tcp.c ****  * Purges a TCP PCB. Removes any buffered data and frees the buffer memory
1359:Libraries/lwip-1.4.0/core/tcp.c ****  * (pcb->ooseq, pcb->unsent and pcb->unacked are freed).
1360:Libraries/lwip-1.4.0/core/tcp.c ****  *
1361:Libraries/lwip-1.4.0/core/tcp.c ****  * @param pcb tcp_pcb to purge. The pcb itself is not deallocated!
1362:Libraries/lwip-1.4.0/core/tcp.c ****  */
1363:Libraries/lwip-1.4.0/core/tcp.c **** void
1364:Libraries/lwip-1.4.0/core/tcp.c **** tcp_pcb_purge(struct tcp_pcb *pcb)
1365:Libraries/lwip-1.4.0/core/tcp.c **** {
 3493              		.loc 1 1365 0
 3494              		.cfi_startproc
 3495              		@ args = 0, pretend = 0, frame = 8
 3496              		@ frame_needed = 1, uses_anonymous_args = 0
 3497 0000 80B5     		push	{r7, lr}
 3498              		.cfi_def_cfa_offset 8
 3499              		.cfi_offset 7, -8
 3500              		.cfi_offset 14, -4
 3501 0002 82B0     		sub	sp, sp, #8
 3502              		.cfi_def_cfa_offset 16
 3503 0004 00AF     		add	r7, sp, #0
 3504              		.cfi_def_cfa_register 7
 3505 0006 7860     		str	r0, [r7, #4]
1366:Libraries/lwip-1.4.0/core/tcp.c ****   if (pcb->state != CLOSED &&
 3506              		.loc 1 1366 0
 3507 0008 7B68     		ldr	r3, [r7, #4]
 3508 000a 1B7C     		ldrb	r3, [r3, #16]	@ zero_extendqisi2
 3509 000c 002B     		cmp	r3, #0
 3510 000e 37D0     		beq	.L226
1367:Libraries/lwip-1.4.0/core/tcp.c ****      pcb->state != TIME_WAIT &&
 3511              		.loc 1 1367 0 discriminator 1
 3512 0010 7B68     		ldr	r3, [r7, #4]
 3513 0012 1B7C     		ldrb	r3, [r3, #16]	@ zero_extendqisi2
1366:Libraries/lwip-1.4.0/core/tcp.c ****   if (pcb->state != CLOSED &&
 3514              		.loc 1 1366 0 discriminator 1
 3515 0014 0A2B     		cmp	r3, #10
 3516 0016 33D0     		beq	.L226
1368:Libraries/lwip-1.4.0/core/tcp.c ****      pcb->state != LISTEN) {
 3517              		.loc 1 1368 0
 3518 0018 7B68     		ldr	r3, [r7, #4]
 3519 001a 1B7C     		ldrb	r3, [r3, #16]	@ zero_extendqisi2
1367:Libraries/lwip-1.4.0/core/tcp.c ****      pcb->state != TIME_WAIT &&
 3520              		.loc 1 1367 0
 3521 001c 012B     		cmp	r3, #1
 3522 001e 2FD0     		beq	.L226
1369:Libraries/lwip-1.4.0/core/tcp.c **** 
1370:Libraries/lwip-1.4.0/core/tcp.c ****     LWIP_DEBUGF(TCP_DEBUG, ("tcp_pcb_purge\n"));
1371:Libraries/lwip-1.4.0/core/tcp.c **** 
1372:Libraries/lwip-1.4.0/core/tcp.c **** #if TCP_LISTEN_BACKLOG
1373:Libraries/lwip-1.4.0/core/tcp.c ****     if (pcb->state == SYN_RCVD) {
1374:Libraries/lwip-1.4.0/core/tcp.c ****       /* Need to find the corresponding listen_pcb and decrease its accepts_pending */
1375:Libraries/lwip-1.4.0/core/tcp.c ****       struct tcp_pcb_listen *lpcb;
1376:Libraries/lwip-1.4.0/core/tcp.c ****       LWIP_ASSERT("tcp_pcb_purge: pcb->state == SYN_RCVD but tcp_listen_pcbs is NULL",
1377:Libraries/lwip-1.4.0/core/tcp.c ****         tcp_listen_pcbs.listen_pcbs != NULL);
1378:Libraries/lwip-1.4.0/core/tcp.c ****       for (lpcb = tcp_listen_pcbs.listen_pcbs; lpcb != NULL; lpcb = lpcb->next) {
1379:Libraries/lwip-1.4.0/core/tcp.c ****         if ((lpcb->local_port == pcb->local_port) &&
1380:Libraries/lwip-1.4.0/core/tcp.c ****             (ip_addr_isany(&lpcb->local_ip) ||
1381:Libraries/lwip-1.4.0/core/tcp.c ****              ip_addr_cmp(&pcb->local_ip, &lpcb->local_ip))) {
1382:Libraries/lwip-1.4.0/core/tcp.c ****             /* port and address of the listen pcb match the timed-out pcb */
1383:Libraries/lwip-1.4.0/core/tcp.c ****             LWIP_ASSERT("tcp_pcb_purge: listen pcb does not have accepts pending",
1384:Libraries/lwip-1.4.0/core/tcp.c ****               lpcb->accepts_pending > 0);
1385:Libraries/lwip-1.4.0/core/tcp.c ****             lpcb->accepts_pending--;
1386:Libraries/lwip-1.4.0/core/tcp.c ****             break;
1387:Libraries/lwip-1.4.0/core/tcp.c ****           }
1388:Libraries/lwip-1.4.0/core/tcp.c ****       }
1389:Libraries/lwip-1.4.0/core/tcp.c ****     }
1390:Libraries/lwip-1.4.0/core/tcp.c **** #endif /* TCP_LISTEN_BACKLOG */
1391:Libraries/lwip-1.4.0/core/tcp.c **** 
1392:Libraries/lwip-1.4.0/core/tcp.c **** 
1393:Libraries/lwip-1.4.0/core/tcp.c ****     if (pcb->refused_data != NULL) {
 3523              		.loc 1 1393 0
 3524 0020 7B68     		ldr	r3, [r7, #4]
 3525 0022 D3F88030 		ldr	r3, [r3, #128]
 3526 0026 002B     		cmp	r3, #0
 3527 0028 09D0     		beq	.L225
1394:Libraries/lwip-1.4.0/core/tcp.c ****       LWIP_DEBUGF(TCP_DEBUG, ("tcp_pcb_purge: data left on ->refused_data\n"));
1395:Libraries/lwip-1.4.0/core/tcp.c ****       pbuf_free(pcb->refused_data);
 3528              		.loc 1 1395 0
 3529 002a 7B68     		ldr	r3, [r7, #4]
 3530 002c D3F88030 		ldr	r3, [r3, #128]
 3531 0030 1846     		mov	r0, r3
 3532 0032 FFF7FEFF 		bl	pbuf_free
1396:Libraries/lwip-1.4.0/core/tcp.c ****       pcb->refused_data = NULL;
 3533              		.loc 1 1396 0
 3534 0036 7B68     		ldr	r3, [r7, #4]
 3535 0038 0022     		movs	r2, #0
 3536 003a C3F88020 		str	r2, [r3, #128]
 3537              	.L225:
1397:Libraries/lwip-1.4.0/core/tcp.c ****     }
1398:Libraries/lwip-1.4.0/core/tcp.c ****     if (pcb->unsent != NULL) {
1399:Libraries/lwip-1.4.0/core/tcp.c ****       LWIP_DEBUGF(TCP_DEBUG, ("tcp_pcb_purge: not all data sent\n"));
1400:Libraries/lwip-1.4.0/core/tcp.c ****     }
1401:Libraries/lwip-1.4.0/core/tcp.c ****     if (pcb->unacked != NULL) {
1402:Libraries/lwip-1.4.0/core/tcp.c ****       LWIP_DEBUGF(TCP_DEBUG, ("tcp_pcb_purge: data left on ->unacked\n"));
1403:Libraries/lwip-1.4.0/core/tcp.c ****     }
1404:Libraries/lwip-1.4.0/core/tcp.c **** #if TCP_QUEUE_OOSEQ
1405:Libraries/lwip-1.4.0/core/tcp.c ****     if (pcb->ooseq != NULL) {
1406:Libraries/lwip-1.4.0/core/tcp.c ****       LWIP_DEBUGF(TCP_DEBUG, ("tcp_pcb_purge: data left on ->ooseq\n"));
1407:Libraries/lwip-1.4.0/core/tcp.c ****     }
1408:Libraries/lwip-1.4.0/core/tcp.c ****     tcp_segs_free(pcb->ooseq);
 3538              		.loc 1 1408 0
 3539 003e 7B68     		ldr	r3, [r7, #4]
 3540 0040 DB6F     		ldr	r3, [r3, #124]
 3541 0042 1846     		mov	r0, r3
 3542 0044 FFF7FEFF 		bl	tcp_segs_free
1409:Libraries/lwip-1.4.0/core/tcp.c ****     pcb->ooseq = NULL;
 3543              		.loc 1 1409 0
 3544 0048 7B68     		ldr	r3, [r7, #4]
 3545 004a 0022     		movs	r2, #0
 3546 004c DA67     		str	r2, [r3, #124]
1410:Libraries/lwip-1.4.0/core/tcp.c **** #endif /* TCP_QUEUE_OOSEQ */
1411:Libraries/lwip-1.4.0/core/tcp.c **** 
1412:Libraries/lwip-1.4.0/core/tcp.c ****     /* Stop the retransmission timer as it will expect data on unacked
1413:Libraries/lwip-1.4.0/core/tcp.c ****        queue if it fires */
1414:Libraries/lwip-1.4.0/core/tcp.c ****     pcb->rtime = -1;
 3547              		.loc 1 1414 0
 3548 004e 7B68     		ldr	r3, [r7, #4]
 3549 0050 4FF6FF72 		movw	r2, #65535
 3550 0054 DA86     		strh	r2, [r3, #54]	@ movhi
1415:Libraries/lwip-1.4.0/core/tcp.c **** 
1416:Libraries/lwip-1.4.0/core/tcp.c ****     tcp_segs_free(pcb->unsent);
 3551              		.loc 1 1416 0
 3552 0056 7B68     		ldr	r3, [r7, #4]
 3553 0058 5B6F     		ldr	r3, [r3, #116]
 3554 005a 1846     		mov	r0, r3
 3555 005c FFF7FEFF 		bl	tcp_segs_free
1417:Libraries/lwip-1.4.0/core/tcp.c ****     tcp_segs_free(pcb->unacked);
 3556              		.loc 1 1417 0
 3557 0060 7B68     		ldr	r3, [r7, #4]
 3558 0062 9B6F     		ldr	r3, [r3, #120]
 3559 0064 1846     		mov	r0, r3
 3560 0066 FFF7FEFF 		bl	tcp_segs_free
1418:Libraries/lwip-1.4.0/core/tcp.c ****     pcb->unacked = pcb->unsent = NULL;
 3561              		.loc 1 1418 0
 3562 006a 7B68     		ldr	r3, [r7, #4]
 3563 006c 0022     		movs	r2, #0
 3564 006e 5A67     		str	r2, [r3, #116]
 3565 0070 7B68     		ldr	r3, [r7, #4]
 3566 0072 5A6F     		ldr	r2, [r3, #116]
 3567 0074 7B68     		ldr	r3, [r7, #4]
 3568 0076 9A67     		str	r2, [r3, #120]
1419:Libraries/lwip-1.4.0/core/tcp.c **** #if TCP_OVERSIZE
1420:Libraries/lwip-1.4.0/core/tcp.c ****     pcb->unsent_oversize = 0;
 3569              		.loc 1 1420 0
 3570 0078 7B68     		ldr	r3, [r7, #4]
 3571 007a 0022     		movs	r2, #0
 3572 007c A3F87220 		strh	r2, [r3, #114]	@ movhi
 3573              	.L226:
1421:Libraries/lwip-1.4.0/core/tcp.c **** #endif /* TCP_OVERSIZE */
1422:Libraries/lwip-1.4.0/core/tcp.c ****   }
1423:Libraries/lwip-1.4.0/core/tcp.c **** }
 3574              		.loc 1 1423 0
 3575 0080 00BF     		nop
 3576 0082 0837     		adds	r7, r7, #8
 3577              		.cfi_def_cfa_offset 8
 3578 0084 BD46     		mov	sp, r7
 3579              		.cfi_def_cfa_register 13
 3580              		@ sp needed
 3581 0086 80BD     		pop	{r7, pc}
 3582              		.cfi_endproc
 3583              	.LFE47:
 3585              		.section	.text.tcp_pcb_remove,"ax",%progbits
 3586              		.align	2
 3587              		.global	tcp_pcb_remove
 3588              		.thumb
 3589              		.thumb_func
 3591              	tcp_pcb_remove:
 3592              	.LFB48:
1424:Libraries/lwip-1.4.0/core/tcp.c **** 
1425:Libraries/lwip-1.4.0/core/tcp.c **** /**
1426:Libraries/lwip-1.4.0/core/tcp.c ****  * Purges the PCB and removes it from a PCB list. Any delayed ACKs are sent first.
1427:Libraries/lwip-1.4.0/core/tcp.c ****  *
1428:Libraries/lwip-1.4.0/core/tcp.c ****  * @param pcblist PCB list to purge.
1429:Libraries/lwip-1.4.0/core/tcp.c ****  * @param pcb tcp_pcb to purge. The pcb itself is NOT deallocated!
1430:Libraries/lwip-1.4.0/core/tcp.c ****  */
1431:Libraries/lwip-1.4.0/core/tcp.c **** void
1432:Libraries/lwip-1.4.0/core/tcp.c **** tcp_pcb_remove(struct tcp_pcb **pcblist, struct tcp_pcb *pcb)
1433:Libraries/lwip-1.4.0/core/tcp.c **** {
 3593              		.loc 1 1433 0
 3594              		.cfi_startproc
 3595              		@ args = 0, pretend = 0, frame = 8
 3596              		@ frame_needed = 1, uses_anonymous_args = 0
 3597 0000 80B5     		push	{r7, lr}
 3598              		.cfi_def_cfa_offset 8
 3599              		.cfi_offset 7, -8
 3600              		.cfi_offset 14, -4
 3601 0002 82B0     		sub	sp, sp, #8
 3602              		.cfi_def_cfa_offset 16
 3603 0004 00AF     		add	r7, sp, #0
 3604              		.cfi_def_cfa_register 7
 3605 0006 7860     		str	r0, [r7, #4]
 3606 0008 3960     		str	r1, [r7]
1434:Libraries/lwip-1.4.0/core/tcp.c ****   TCP_RMV(pcblist, pcb);
 3607              		.loc 1 1434 0
 3608 000a 7B68     		ldr	r3, [r7, #4]
 3609 000c 1A68     		ldr	r2, [r3]
 3610 000e 3B68     		ldr	r3, [r7]
 3611 0010 9A42     		cmp	r2, r3
 3612 0012 05D1     		bne	.L228
 3613              		.loc 1 1434 0 is_stmt 0 discriminator 1
 3614 0014 7B68     		ldr	r3, [r7, #4]
 3615 0016 1B68     		ldr	r3, [r3]
 3616 0018 DA68     		ldr	r2, [r3, #12]
 3617 001a 7B68     		ldr	r3, [r7, #4]
 3618 001c 1A60     		str	r2, [r3]
 3619 001e 19E0     		b	.L229
 3620              	.L228:
 3621              		.loc 1 1434 0 discriminator 2
 3622 0020 7B68     		ldr	r3, [r7, #4]
 3623 0022 1B68     		ldr	r3, [r3]
 3624 0024 214A     		ldr	r2, .L235
 3625 0026 1360     		str	r3, [r2]
 3626 0028 10E0     		b	.L230
 3627              	.L232:
 3628              		.loc 1 1434 0 discriminator 9
 3629 002a 204B     		ldr	r3, .L235
 3630 002c 1B68     		ldr	r3, [r3]
 3631 002e DA68     		ldr	r2, [r3, #12]
 3632 0030 3B68     		ldr	r3, [r7]
 3633 0032 9A42     		cmp	r2, r3
 3634 0034 05D1     		bne	.L231
 3635              		.loc 1 1434 0 discriminator 5
 3636 0036 1D4B     		ldr	r3, .L235
 3637 0038 1B68     		ldr	r3, [r3]
 3638 003a 3A68     		ldr	r2, [r7]
 3639 003c D268     		ldr	r2, [r2, #12]
 3640 003e DA60     		str	r2, [r3, #12]
 3641 0040 08E0     		b	.L229
 3642              	.L231:
 3643              		.loc 1 1434 0 discriminator 6
 3644 0042 1A4B     		ldr	r3, .L235
 3645 0044 1B68     		ldr	r3, [r3]
 3646 0046 DB68     		ldr	r3, [r3, #12]
 3647 0048 184A     		ldr	r2, .L235
 3648 004a 1360     		str	r3, [r2]
 3649              	.L230:
 3650              		.loc 1 1434 0 discriminator 8
 3651 004c 174B     		ldr	r3, .L235
 3652 004e 1B68     		ldr	r3, [r3]
 3653 0050 002B     		cmp	r3, #0
 3654 0052 EAD1     		bne	.L232
 3655              	.L229:
 3656              		.loc 1 1434 0 discriminator 10
 3657 0054 3B68     		ldr	r3, [r7]
 3658 0056 0022     		movs	r2, #0
 3659 0058 DA60     		str	r2, [r3, #12]
1435:Libraries/lwip-1.4.0/core/tcp.c **** 
1436:Libraries/lwip-1.4.0/core/tcp.c ****   tcp_pcb_purge(pcb);
 3660              		.loc 1 1436 0 is_stmt 1 discriminator 10
 3661 005a 3868     		ldr	r0, [r7]
 3662 005c FFF7FEFF 		bl	tcp_pcb_purge
1437:Libraries/lwip-1.4.0/core/tcp.c ****   
1438:Libraries/lwip-1.4.0/core/tcp.c ****   /* if there is an outstanding delayed ACKs, send it */
1439:Libraries/lwip-1.4.0/core/tcp.c ****   if (pcb->state != TIME_WAIT &&
 3663              		.loc 1 1439 0 discriminator 10
 3664 0060 3B68     		ldr	r3, [r7]
 3665 0062 1B7C     		ldrb	r3, [r3, #16]	@ zero_extendqisi2
 3666 0064 0A2B     		cmp	r3, #10
 3667 0066 16D0     		beq	.L233
1440:Libraries/lwip-1.4.0/core/tcp.c ****      pcb->state != LISTEN &&
 3668              		.loc 1 1440 0 discriminator 1
 3669 0068 3B68     		ldr	r3, [r7]
 3670 006a 1B7C     		ldrb	r3, [r3, #16]	@ zero_extendqisi2
1439:Libraries/lwip-1.4.0/core/tcp.c ****      pcb->state != LISTEN &&
 3671              		.loc 1 1439 0 discriminator 1
 3672 006c 012B     		cmp	r3, #1
 3673 006e 12D0     		beq	.L233
1441:Libraries/lwip-1.4.0/core/tcp.c ****      pcb->flags & TF_ACK_DELAY) {
 3674              		.loc 1 1441 0
 3675 0070 3B68     		ldr	r3, [r7]
 3676 0072 93F82030 		ldrb	r3, [r3, #32]	@ zero_extendqisi2
 3677 0076 03F00103 		and	r3, r3, #1
1440:Libraries/lwip-1.4.0/core/tcp.c ****      pcb->state != LISTEN &&
 3678              		.loc 1 1440 0
 3679 007a 002B     		cmp	r3, #0
 3680 007c 0BD0     		beq	.L233
1442:Libraries/lwip-1.4.0/core/tcp.c ****     pcb->flags |= TF_ACK_NOW;
 3681              		.loc 1 1442 0
 3682 007e 3B68     		ldr	r3, [r7]
 3683 0080 93F82030 		ldrb	r3, [r3, #32]	@ zero_extendqisi2
 3684 0084 43F00203 		orr	r3, r3, #2
 3685 0088 DAB2     		uxtb	r2, r3
 3686 008a 3B68     		ldr	r3, [r7]
 3687 008c 83F82020 		strb	r2, [r3, #32]
1443:Libraries/lwip-1.4.0/core/tcp.c ****     tcp_output(pcb);
 3688              		.loc 1 1443 0
 3689 0090 3868     		ldr	r0, [r7]
 3690 0092 FFF7FEFF 		bl	tcp_output
 3691              	.L233:
1444:Libraries/lwip-1.4.0/core/tcp.c ****   }
1445:Libraries/lwip-1.4.0/core/tcp.c **** 
1446:Libraries/lwip-1.4.0/core/tcp.c ****   if (pcb->state != LISTEN) {
 3692              		.loc 1 1446 0
 3693 0096 3B68     		ldr	r3, [r7]
 3694 0098 1B7C     		ldrb	r3, [r3, #16]	@ zero_extendqisi2
 3695 009a 012B     		cmp	r3, #1
1447:Libraries/lwip-1.4.0/core/tcp.c ****     LWIP_ASSERT("unsent segments leaking", pcb->unsent == NULL);
1448:Libraries/lwip-1.4.0/core/tcp.c ****     LWIP_ASSERT("unacked segments leaking", pcb->unacked == NULL);
1449:Libraries/lwip-1.4.0/core/tcp.c **** #if TCP_QUEUE_OOSEQ
1450:Libraries/lwip-1.4.0/core/tcp.c ****     LWIP_ASSERT("ooseq segments leaking", pcb->ooseq == NULL);
1451:Libraries/lwip-1.4.0/core/tcp.c **** #endif /* TCP_QUEUE_OOSEQ */
1452:Libraries/lwip-1.4.0/core/tcp.c ****   }
1453:Libraries/lwip-1.4.0/core/tcp.c **** 
1454:Libraries/lwip-1.4.0/core/tcp.c ****   pcb->state = CLOSED;
 3696              		.loc 1 1454 0
 3697 009c 3B68     		ldr	r3, [r7]
 3698 009e 0022     		movs	r2, #0
 3699 00a0 1A74     		strb	r2, [r3, #16]
1455:Libraries/lwip-1.4.0/core/tcp.c **** 
1456:Libraries/lwip-1.4.0/core/tcp.c ****   LWIP_ASSERT("tcp_pcb_remove: tcp_pcbs_sane()", tcp_pcbs_sane());
1457:Libraries/lwip-1.4.0/core/tcp.c **** }
 3700              		.loc 1 1457 0
 3701 00a2 00BF     		nop
 3702 00a4 0837     		adds	r7, r7, #8
 3703              		.cfi_def_cfa_offset 8
 3704 00a6 BD46     		mov	sp, r7
 3705              		.cfi_def_cfa_register 13
 3706              		@ sp needed
 3707 00a8 80BD     		pop	{r7, pc}
 3708              	.L236:
 3709 00aa 00BF     		.align	2
 3710              	.L235:
 3711 00ac 00000000 		.word	tcp_tmp_pcb
 3712              		.cfi_endproc
 3713              	.LFE48:
 3715              		.section	.text.tcp_next_iss,"ax",%progbits
 3716              		.align	2
 3717              		.global	tcp_next_iss
 3718              		.thumb
 3719              		.thumb_func
 3721              	tcp_next_iss:
 3722              	.LFB49:
1458:Libraries/lwip-1.4.0/core/tcp.c **** 
1459:Libraries/lwip-1.4.0/core/tcp.c **** /**
1460:Libraries/lwip-1.4.0/core/tcp.c ****  * Calculates a new initial sequence number for new connections.
1461:Libraries/lwip-1.4.0/core/tcp.c ****  *
1462:Libraries/lwip-1.4.0/core/tcp.c ****  * @return u32_t pseudo random sequence number
1463:Libraries/lwip-1.4.0/core/tcp.c ****  */
1464:Libraries/lwip-1.4.0/core/tcp.c **** u32_t
1465:Libraries/lwip-1.4.0/core/tcp.c **** tcp_next_iss(void)
1466:Libraries/lwip-1.4.0/core/tcp.c **** {
 3723              		.loc 1 1466 0
 3724              		.cfi_startproc
 3725              		@ args = 0, pretend = 0, frame = 0
 3726              		@ frame_needed = 1, uses_anonymous_args = 0
 3727              		@ link register save eliminated.
 3728 0000 80B4     		push	{r7}
 3729              		.cfi_def_cfa_offset 4
 3730              		.cfi_offset 7, -4
 3731 0002 00AF     		add	r7, sp, #0
 3732              		.cfi_def_cfa_register 7
1467:Libraries/lwip-1.4.0/core/tcp.c ****   static u32_t iss = 6510;
1468:Libraries/lwip-1.4.0/core/tcp.c ****   
1469:Libraries/lwip-1.4.0/core/tcp.c ****   iss += tcp_ticks;       /* XXX */
 3733              		.loc 1 1469 0
 3734 0004 064B     		ldr	r3, .L239
 3735 0006 1A68     		ldr	r2, [r3]
 3736 0008 064B     		ldr	r3, .L239+4
 3737 000a 1B68     		ldr	r3, [r3]
 3738 000c 1344     		add	r3, r3, r2
 3739 000e 044A     		ldr	r2, .L239
 3740 0010 1360     		str	r3, [r2]
1470:Libraries/lwip-1.4.0/core/tcp.c ****   return iss;
 3741              		.loc 1 1470 0
 3742 0012 034B     		ldr	r3, .L239
 3743 0014 1B68     		ldr	r3, [r3]
1471:Libraries/lwip-1.4.0/core/tcp.c **** }
 3744              		.loc 1 1471 0
 3745 0016 1846     		mov	r0, r3
 3746 0018 BD46     		mov	sp, r7
 3747              		.cfi_def_cfa_register 13
 3748              		@ sp needed
 3749 001a 80BC     		pop	{r7}
 3750              		.cfi_restore 7
 3751              		.cfi_def_cfa_offset 0
 3752 001c 7047     		bx	lr
 3753              	.L240:
 3754 001e 00BF     		.align	2
 3755              	.L239:
 3756 0020 00000000 		.word	iss.6793
 3757 0024 00000000 		.word	tcp_ticks
 3758              		.cfi_endproc
 3759              	.LFE49:
 3761              		.section	.text.tcp_eff_send_mss,"ax",%progbits
 3762              		.align	2
 3763              		.global	tcp_eff_send_mss
 3764              		.thumb
 3765              		.thumb_func
 3767              	tcp_eff_send_mss:
 3768              	.LFB50:
1472:Libraries/lwip-1.4.0/core/tcp.c **** 
1473:Libraries/lwip-1.4.0/core/tcp.c **** #if TCP_CALCULATE_EFF_SEND_MSS
1474:Libraries/lwip-1.4.0/core/tcp.c **** /**
1475:Libraries/lwip-1.4.0/core/tcp.c ****  * Calcluates the effective send mss that can be used for a specific IP address
1476:Libraries/lwip-1.4.0/core/tcp.c ****  * by using ip_route to determin the netif used to send to the address and
1477:Libraries/lwip-1.4.0/core/tcp.c ****  * calculating the minimum of TCP_MSS and that netif's mtu (if set).
1478:Libraries/lwip-1.4.0/core/tcp.c ****  */
1479:Libraries/lwip-1.4.0/core/tcp.c **** u16_t
1480:Libraries/lwip-1.4.0/core/tcp.c **** tcp_eff_send_mss(u16_t sendmss, ip_addr_t *addr)
1481:Libraries/lwip-1.4.0/core/tcp.c **** {
 3769              		.loc 1 1481 0
 3770              		.cfi_startproc
 3771              		@ args = 0, pretend = 0, frame = 16
 3772              		@ frame_needed = 1, uses_anonymous_args = 0
 3773 0000 80B5     		push	{r7, lr}
 3774              		.cfi_def_cfa_offset 8
 3775              		.cfi_offset 7, -8
 3776              		.cfi_offset 14, -4
 3777 0002 84B0     		sub	sp, sp, #16
 3778              		.cfi_def_cfa_offset 24
 3779 0004 00AF     		add	r7, sp, #0
 3780              		.cfi_def_cfa_register 7
 3781 0006 0346     		mov	r3, r0
 3782 0008 3960     		str	r1, [r7]
 3783 000a FB80     		strh	r3, [r7, #6]	@ movhi
