   1              		.syntax unified
   2              		.cpu cortex-m3
   3              		.fpu softvfp
   4              		.eabi_attribute 20, 1
   5              		.eabi_attribute 21, 1
   6              		.eabi_attribute 23, 3
   7              		.eabi_attribute 24, 1
   8              		.eabi_attribute 25, 1
   9              		.eabi_attribute 26, 1
  10              		.eabi_attribute 30, 6
  11              		.eabi_attribute 34, 1
  12              		.eabi_attribute 18, 4
  13              		.thumb
  14              		.syntax unified
  15              		.file	"tcp_in.c"
  16              		.text
  17              	.Ltext0:
  18              		.cfi_sections	.debug_frame
  19              		.section	.bss.inseg,"aw",%nobits
  20              		.align	2
  23              	inseg:
  24 0000 00000000 		.space	16
  24      00000000 
  24      00000000 
  24      00000000 
  25              		.section	.bss.tcphdr,"aw",%nobits
  26              		.align	2
  29              	tcphdr:
  30 0000 00000000 		.space	4
  31              		.section	.bss.iphdr,"aw",%nobits
  32              		.align	2
  35              	iphdr:
  36 0000 00000000 		.space	4
  37              		.section	.bss.seqno,"aw",%nobits
  38              		.align	2
  41              	seqno:
  42 0000 00000000 		.space	4
  43              		.section	.bss.ackno,"aw",%nobits
  44              		.align	2
  47              	ackno:
  48 0000 00000000 		.space	4
  49              		.section	.bss.flags,"aw",%nobits
  52              	flags:
  53 0000 00       		.space	1
  54              		.section	.bss.tcplen,"aw",%nobits
  55              		.align	1
  58              	tcplen:
  59 0000 0000     		.space	2
  60              		.section	.bss.recv_flags,"aw",%nobits
  63              	recv_flags:
  64 0000 00       		.space	1
  65              		.section	.bss.recv_data,"aw",%nobits
  66              		.align	2
  69              	recv_data:
  70 0000 00000000 		.space	4
  71              		.comm	tcp_input_pcb,4,4
  72              		.section	.text.tcp_input,"ax",%progbits
  73              		.align	2
  74              		.global	tcp_input
  75              		.thumb
  76              		.thumb_func
  78              	tcp_input:
  79              	.LFB17:
  80              		.file 1 "Libraries/lwip-1.4.0/core/tcp_in.c"
   1:Libraries/lwip-1.4.0/core/tcp_in.c **** /**
   2:Libraries/lwip-1.4.0/core/tcp_in.c ****  * @file
   3:Libraries/lwip-1.4.0/core/tcp_in.c ****  * Transmission Control Protocol, incoming traffic
   4:Libraries/lwip-1.4.0/core/tcp_in.c ****  *
   5:Libraries/lwip-1.4.0/core/tcp_in.c ****  * The input processing functions of the TCP layer.
   6:Libraries/lwip-1.4.0/core/tcp_in.c ****  *
   7:Libraries/lwip-1.4.0/core/tcp_in.c ****  * These functions are generally called in the order (ip_input() ->)
   8:Libraries/lwip-1.4.0/core/tcp_in.c ****  * tcp_input() -> * tcp_process() -> tcp_receive() (-> application).
   9:Libraries/lwip-1.4.0/core/tcp_in.c ****  * 
  10:Libraries/lwip-1.4.0/core/tcp_in.c ****  */
  11:Libraries/lwip-1.4.0/core/tcp_in.c **** 
  12:Libraries/lwip-1.4.0/core/tcp_in.c **** /*
  13:Libraries/lwip-1.4.0/core/tcp_in.c ****  * Copyright (c) 2001-2004 Swedish Institute of Computer Science.
  14:Libraries/lwip-1.4.0/core/tcp_in.c ****  * All rights reserved.
  15:Libraries/lwip-1.4.0/core/tcp_in.c ****  *
  16:Libraries/lwip-1.4.0/core/tcp_in.c ****  * Redistribution and use in source and binary forms, with or without modification,
  17:Libraries/lwip-1.4.0/core/tcp_in.c ****  * are permitted provided that the following conditions are met:
  18:Libraries/lwip-1.4.0/core/tcp_in.c ****  *
  19:Libraries/lwip-1.4.0/core/tcp_in.c ****  * 1. Redistributions of source code must retain the above copyright notice,
  20:Libraries/lwip-1.4.0/core/tcp_in.c ****  *    this list of conditions and the following disclaimer.
  21:Libraries/lwip-1.4.0/core/tcp_in.c ****  * 2. Redistributions in binary form must reproduce the above copyright notice,
  22:Libraries/lwip-1.4.0/core/tcp_in.c ****  *    this list of conditions and the following disclaimer in the documentation
  23:Libraries/lwip-1.4.0/core/tcp_in.c ****  *    and/or other materials provided with the distribution.
  24:Libraries/lwip-1.4.0/core/tcp_in.c ****  * 3. The name of the author may not be used to endorse or promote products
  25:Libraries/lwip-1.4.0/core/tcp_in.c ****  *    derived from this software without specific prior written permission.
  26:Libraries/lwip-1.4.0/core/tcp_in.c ****  *
  27:Libraries/lwip-1.4.0/core/tcp_in.c ****  * THIS SOFTWARE IS PROVIDED BY THE AUTHOR ``AS IS'' AND ANY EXPRESS OR IMPLIED
  28:Libraries/lwip-1.4.0/core/tcp_in.c ****  * WARRANTIES, INCLUDING, BUT NOT LIMITED TO, THE IMPLIED WARRANTIES OF
  29:Libraries/lwip-1.4.0/core/tcp_in.c ****  * MERCHANTABILITY AND FITNESS FOR A PARTICULAR PURPOSE ARE DISCLAIMED. IN NO EVENT
  30:Libraries/lwip-1.4.0/core/tcp_in.c ****  * SHALL THE AUTHOR BE LIABLE FOR ANY DIRECT, INDIRECT, INCIDENTAL, SPECIAL,
  31:Libraries/lwip-1.4.0/core/tcp_in.c ****  * EXEMPLARY, OR CONSEQUENTIAL DAMAGES (INCLUDING, BUT NOT LIMITED TO, PROCUREMENT
  32:Libraries/lwip-1.4.0/core/tcp_in.c ****  * OF SUBSTITUTE GOODS OR SERVICES; LOSS OF USE, DATA, OR PROFITS; OR BUSINESS
  33:Libraries/lwip-1.4.0/core/tcp_in.c ****  * INTERRUPTION) HOWEVER CAUSED AND ON ANY THEORY OF LIABILITY, WHETHER IN
  34:Libraries/lwip-1.4.0/core/tcp_in.c ****  * CONTRACT, STRICT LIABILITY, OR TORT (INCLUDING NEGLIGENCE OR OTHERWISE) ARISING
  35:Libraries/lwip-1.4.0/core/tcp_in.c ****  * IN ANY WAY OUT OF THE USE OF THIS SOFTWARE, EVEN IF ADVISED OF THE POSSIBILITY
  36:Libraries/lwip-1.4.0/core/tcp_in.c ****  * OF SUCH DAMAGE.
  37:Libraries/lwip-1.4.0/core/tcp_in.c ****  *
  38:Libraries/lwip-1.4.0/core/tcp_in.c ****  * This file is part of the lwIP TCP/IP stack.
  39:Libraries/lwip-1.4.0/core/tcp_in.c ****  *
  40:Libraries/lwip-1.4.0/core/tcp_in.c ****  * Author: Adam Dunkels <adam@sics.se>
  41:Libraries/lwip-1.4.0/core/tcp_in.c ****  *
  42:Libraries/lwip-1.4.0/core/tcp_in.c ****  */
  43:Libraries/lwip-1.4.0/core/tcp_in.c **** 
  44:Libraries/lwip-1.4.0/core/tcp_in.c **** #include "lwip/opt.h"
  45:Libraries/lwip-1.4.0/core/tcp_in.c **** 
  46:Libraries/lwip-1.4.0/core/tcp_in.c **** #if LWIP_TCP /* don't build if not configured for use in lwipopts.h */
  47:Libraries/lwip-1.4.0/core/tcp_in.c **** 
  48:Libraries/lwip-1.4.0/core/tcp_in.c **** #include "lwip/tcp_impl.h"
  49:Libraries/lwip-1.4.0/core/tcp_in.c **** #include "lwip/def.h"
  50:Libraries/lwip-1.4.0/core/tcp_in.c **** #include "lwip/ip_addr.h"
  51:Libraries/lwip-1.4.0/core/tcp_in.c **** #include "lwip/netif.h"
  52:Libraries/lwip-1.4.0/core/tcp_in.c **** #include "lwip/mem.h"
  53:Libraries/lwip-1.4.0/core/tcp_in.c **** #include "lwip/memp.h"
  54:Libraries/lwip-1.4.0/core/tcp_in.c **** #include "lwip/inet_chksum.h"
  55:Libraries/lwip-1.4.0/core/tcp_in.c **** #include "lwip/stats.h"
  56:Libraries/lwip-1.4.0/core/tcp_in.c **** #include "lwip/snmp.h"
  57:Libraries/lwip-1.4.0/core/tcp_in.c **** #include "arch/perf.h"
  58:Libraries/lwip-1.4.0/core/tcp_in.c **** 
  59:Libraries/lwip-1.4.0/core/tcp_in.c **** /* These variables are global to all functions involved in the input
  60:Libraries/lwip-1.4.0/core/tcp_in.c ****    processing of TCP segments. They are set by the tcp_input()
  61:Libraries/lwip-1.4.0/core/tcp_in.c ****    function. */
  62:Libraries/lwip-1.4.0/core/tcp_in.c **** static struct tcp_seg inseg;
  63:Libraries/lwip-1.4.0/core/tcp_in.c **** static struct tcp_hdr *tcphdr;
  64:Libraries/lwip-1.4.0/core/tcp_in.c **** static struct ip_hdr *iphdr;
  65:Libraries/lwip-1.4.0/core/tcp_in.c **** static u32_t seqno, ackno;
  66:Libraries/lwip-1.4.0/core/tcp_in.c **** static u8_t flags;
  67:Libraries/lwip-1.4.0/core/tcp_in.c **** static u16_t tcplen;
  68:Libraries/lwip-1.4.0/core/tcp_in.c **** 
  69:Libraries/lwip-1.4.0/core/tcp_in.c **** static u8_t recv_flags;
  70:Libraries/lwip-1.4.0/core/tcp_in.c **** static struct pbuf *recv_data;
  71:Libraries/lwip-1.4.0/core/tcp_in.c **** 
  72:Libraries/lwip-1.4.0/core/tcp_in.c **** struct tcp_pcb *tcp_input_pcb;
  73:Libraries/lwip-1.4.0/core/tcp_in.c **** 
  74:Libraries/lwip-1.4.0/core/tcp_in.c **** /* Forward declarations. */
  75:Libraries/lwip-1.4.0/core/tcp_in.c **** static err_t tcp_process(struct tcp_pcb *pcb);
  76:Libraries/lwip-1.4.0/core/tcp_in.c **** static void tcp_receive(struct tcp_pcb *pcb);
  77:Libraries/lwip-1.4.0/core/tcp_in.c **** static void tcp_parseopt(struct tcp_pcb *pcb);
  78:Libraries/lwip-1.4.0/core/tcp_in.c **** 
  79:Libraries/lwip-1.4.0/core/tcp_in.c **** static err_t tcp_listen_input(struct tcp_pcb_listen *pcb);
  80:Libraries/lwip-1.4.0/core/tcp_in.c **** static err_t tcp_timewait_input(struct tcp_pcb *pcb);
  81:Libraries/lwip-1.4.0/core/tcp_in.c **** 
  82:Libraries/lwip-1.4.0/core/tcp_in.c **** /**
  83:Libraries/lwip-1.4.0/core/tcp_in.c ****  * The initial input processing of TCP. It verifies the TCP header, demultiplexes
  84:Libraries/lwip-1.4.0/core/tcp_in.c ****  * the segment between the PCBs and passes it on to tcp_process(), which implements
  85:Libraries/lwip-1.4.0/core/tcp_in.c ****  * the TCP finite state machine. This function is called by the IP layer (in
  86:Libraries/lwip-1.4.0/core/tcp_in.c ****  * ip_input()).
  87:Libraries/lwip-1.4.0/core/tcp_in.c ****  *
  88:Libraries/lwip-1.4.0/core/tcp_in.c ****  * @param p received TCP segment to process (p->payload pointing to the IP header)
  89:Libraries/lwip-1.4.0/core/tcp_in.c ****  * @param inp network interface on which this segment was received
  90:Libraries/lwip-1.4.0/core/tcp_in.c ****  */
  91:Libraries/lwip-1.4.0/core/tcp_in.c **** void
  92:Libraries/lwip-1.4.0/core/tcp_in.c **** tcp_input(struct pbuf *p, struct netif *inp)
  93:Libraries/lwip-1.4.0/core/tcp_in.c **** {
  81              		.loc 1 93 0
  82              		.cfi_startproc
  83              		@ args = 0, pretend = 0, frame = 32
  84              		@ frame_needed = 1, uses_anonymous_args = 0
  85 0000 90B5     		push	{r4, r7, lr}
  86              		.cfi_def_cfa_offset 12
  87              		.cfi_offset 4, -12
  88              		.cfi_offset 7, -8
  89              		.cfi_offset 14, -4
  90 0002 8BB0     		sub	sp, sp, #44
  91              		.cfi_def_cfa_offset 56
  92 0004 02AF     		add	r7, sp, #8
  93              		.cfi_def_cfa 7, 48
  94 0006 7860     		str	r0, [r7, #4]
  95 0008 3960     		str	r1, [r7]
  94:Libraries/lwip-1.4.0/core/tcp_in.c ****   struct tcp_pcb *pcb, *prev;
  95:Libraries/lwip-1.4.0/core/tcp_in.c ****   struct tcp_pcb_listen *lpcb;
  96:Libraries/lwip-1.4.0/core/tcp_in.c **** #if SO_REUSE
  97:Libraries/lwip-1.4.0/core/tcp_in.c ****   struct tcp_pcb *lpcb_prev = NULL;
  98:Libraries/lwip-1.4.0/core/tcp_in.c ****   struct tcp_pcb_listen *lpcb_any = NULL;
  99:Libraries/lwip-1.4.0/core/tcp_in.c **** #endif /* SO_REUSE */
 100:Libraries/lwip-1.4.0/core/tcp_in.c ****   u8_t hdrlen;
 101:Libraries/lwip-1.4.0/core/tcp_in.c ****   err_t err;
 102:Libraries/lwip-1.4.0/core/tcp_in.c **** 
 103:Libraries/lwip-1.4.0/core/tcp_in.c ****   PERF_START;
 104:Libraries/lwip-1.4.0/core/tcp_in.c **** 
 105:Libraries/lwip-1.4.0/core/tcp_in.c ****   TCP_STATS_INC(tcp.recv);
  96              		.loc 1 105 0
  97 000a A54B     		ldr	r3, .L53
  98 000c B3F89230 		ldrh	r3, [r3, #146]
  99 0010 0133     		adds	r3, r3, #1
 100 0012 9AB2     		uxth	r2, r3
 101 0014 A24B     		ldr	r3, .L53
 102 0016 A3F89220 		strh	r2, [r3, #146]	@ movhi
 106:Libraries/lwip-1.4.0/core/tcp_in.c ****   snmp_inc_tcpinsegs();
 107:Libraries/lwip-1.4.0/core/tcp_in.c **** 
 108:Libraries/lwip-1.4.0/core/tcp_in.c ****   iphdr = (struct ip_hdr *)p->payload;
 103              		.loc 1 108 0
 104 001a 7B68     		ldr	r3, [r7, #4]
 105 001c 5B68     		ldr	r3, [r3, #4]
 106 001e A14A     		ldr	r2, .L53+4
 107 0020 1360     		str	r3, [r2]
 109:Libraries/lwip-1.4.0/core/tcp_in.c ****   tcphdr = (struct tcp_hdr *)((u8_t *)p->payload + IPH_HL(iphdr) * 4);
 108              		.loc 1 109 0
 109 0022 7B68     		ldr	r3, [r7, #4]
 110 0024 5C68     		ldr	r4, [r3, #4]
 111 0026 9F4B     		ldr	r3, .L53+4
 112 0028 1B68     		ldr	r3, [r3]
 113 002a 1B88     		ldrh	r3, [r3]	@ unaligned
 114 002c 9BB2     		uxth	r3, r3
 115 002e 1846     		mov	r0, r3
 116 0030 FFF7FEFF 		bl	lwip_ntohs
 117 0034 0346     		mov	r3, r0
 118 0036 1B0A     		lsrs	r3, r3, #8
 119 0038 9BB2     		uxth	r3, r3
 120 003a 03F00F03 		and	r3, r3, #15
 121 003e 9B00     		lsls	r3, r3, #2
 122 0040 2344     		add	r3, r3, r4
 123 0042 994A     		ldr	r2, .L53+8
 124 0044 1360     		str	r3, [r2]
 110:Libraries/lwip-1.4.0/core/tcp_in.c **** 
 111:Libraries/lwip-1.4.0/core/tcp_in.c **** #if TCP_INPUT_DEBUG
 112:Libraries/lwip-1.4.0/core/tcp_in.c ****   tcp_debug_print(tcphdr);
 113:Libraries/lwip-1.4.0/core/tcp_in.c **** #endif
 114:Libraries/lwip-1.4.0/core/tcp_in.c **** 
 115:Libraries/lwip-1.4.0/core/tcp_in.c ****   /* remove header from payload */
 116:Libraries/lwip-1.4.0/core/tcp_in.c ****   if (pbuf_header(p, -((s16_t)(IPH_HL(iphdr) * 4))) || (p->tot_len < sizeof(struct tcp_hdr))) {
 125              		.loc 1 116 0
 126 0046 974B     		ldr	r3, .L53+4
 127 0048 1B68     		ldr	r3, [r3]
 128 004a 1B88     		ldrh	r3, [r3]	@ unaligned
 129 004c 9BB2     		uxth	r3, r3
 130 004e 1846     		mov	r0, r3
 131 0050 FFF7FEFF 		bl	lwip_ntohs
 132 0054 0346     		mov	r3, r0
 133 0056 1B0A     		lsrs	r3, r3, #8
 134 0058 9BB2     		uxth	r3, r3
 135 005a 03F00F03 		and	r3, r3, #15
 136 005e 9BB2     		uxth	r3, r3
 137 0060 9B00     		lsls	r3, r3, #2
 138 0062 9BB2     		uxth	r3, r3
 139 0064 5B42     		negs	r3, r3
 140 0066 9BB2     		uxth	r3, r3
 141 0068 1BB2     		sxth	r3, r3
 142 006a 1946     		mov	r1, r3
 143 006c 7868     		ldr	r0, [r7, #4]
 144 006e FFF7FEFF 		bl	pbuf_header
 145 0072 0346     		mov	r3, r0
 146 0074 002B     		cmp	r3, #0
 147 0076 03D1     		bne	.L2
 148              		.loc 1 116 0 is_stmt 0 discriminator 1
 149 0078 7B68     		ldr	r3, [r7, #4]
 150 007a 1B89     		ldrh	r3, [r3, #8]
 151 007c 132B     		cmp	r3, #19
 152 007e 13D8     		bhi	.L3
 153              	.L2:
 117:Libraries/lwip-1.4.0/core/tcp_in.c ****     /* drop short packets */
 118:Libraries/lwip-1.4.0/core/tcp_in.c ****     LWIP_DEBUGF(TCP_INPUT_DEBUG, ("tcp_input: short packet (%"U16_F" bytes) discarded\n", p->tot_le
 119:Libraries/lwip-1.4.0/core/tcp_in.c ****     TCP_STATS_INC(tcp.lenerr);
 154              		.loc 1 119 0 is_stmt 1
 155 0080 874B     		ldr	r3, .L53
 156 0082 B3F89A30 		ldrh	r3, [r3, #154]
 157 0086 0133     		adds	r3, r3, #1
 158 0088 9AB2     		uxth	r2, r3
 159 008a 854B     		ldr	r3, .L53
 160 008c A3F89A20 		strh	r2, [r3, #154]	@ movhi
 120:Libraries/lwip-1.4.0/core/tcp_in.c ****     TCP_STATS_INC(tcp.drop);
 161              		.loc 1 120 0
 162 0090 834B     		ldr	r3, .L53
 163 0092 B3F89630 		ldrh	r3, [r3, #150]
 164 0096 0133     		adds	r3, r3, #1
 165 0098 9AB2     		uxth	r2, r3
 166 009a 814B     		ldr	r3, .L53
 167 009c A3F89620 		strh	r2, [r3, #150]	@ movhi
 121:Libraries/lwip-1.4.0/core/tcp_in.c ****     snmp_inc_tcpinerrs();
 122:Libraries/lwip-1.4.0/core/tcp_in.c ****     pbuf_free(p);
 168              		.loc 1 122 0
 169 00a0 7868     		ldr	r0, [r7, #4]
 170 00a2 FFF7FEFF 		bl	pbuf_free
 123:Libraries/lwip-1.4.0/core/tcp_in.c ****     return;
 171              		.loc 1 123 0
 172 00a6 0AE3     		b	.L1
 173              	.L3:
 124:Libraries/lwip-1.4.0/core/tcp_in.c ****   }
 125:Libraries/lwip-1.4.0/core/tcp_in.c **** 
 126:Libraries/lwip-1.4.0/core/tcp_in.c ****   /* Don't even process incoming broadcasts/multicasts. */
 127:Libraries/lwip-1.4.0/core/tcp_in.c ****   if (ip_addr_isbroadcast(&current_iphdr_dest, inp) ||
 174              		.loc 1 127 0
 175 00a8 804B     		ldr	r3, .L53+12
 176 00aa 1B68     		ldr	r3, [r3]
 177 00ac 3968     		ldr	r1, [r7]
 178 00ae 1846     		mov	r0, r3
 179 00b0 FFF7FEFF 		bl	ip4_addr_isbroadcast
 180 00b4 0346     		mov	r3, r0
 181 00b6 002B     		cmp	r3, #0
 182 00b8 05D1     		bne	.L5
 128:Libraries/lwip-1.4.0/core/tcp_in.c ****       ip_addr_ismulticast(&current_iphdr_dest)) {
 183              		.loc 1 128 0 discriminator 1
 184 00ba 7C4B     		ldr	r3, .L53+12
 185 00bc 1B68     		ldr	r3, [r3]
 186 00be 03F0F003 		and	r3, r3, #240
 127:Libraries/lwip-1.4.0/core/tcp_in.c ****       ip_addr_ismulticast(&current_iphdr_dest)) {
 187              		.loc 1 127 0 discriminator 1
 188 00c2 E02B     		cmp	r3, #224
 189 00c4 13D1     		bne	.L6
 190              	.L5:
 129:Libraries/lwip-1.4.0/core/tcp_in.c ****     TCP_STATS_INC(tcp.proterr);
 191              		.loc 1 129 0
 192 00c6 764B     		ldr	r3, .L53
 193 00c8 B3F8A030 		ldrh	r3, [r3, #160]
 194 00cc 0133     		adds	r3, r3, #1
 195 00ce 9AB2     		uxth	r2, r3
 196 00d0 734B     		ldr	r3, .L53
 197 00d2 A3F8A020 		strh	r2, [r3, #160]	@ movhi
 130:Libraries/lwip-1.4.0/core/tcp_in.c ****     TCP_STATS_INC(tcp.drop);
 198              		.loc 1 130 0
 199 00d6 724B     		ldr	r3, .L53
 200 00d8 B3F89630 		ldrh	r3, [r3, #150]
 201 00dc 0133     		adds	r3, r3, #1
 202 00de 9AB2     		uxth	r2, r3
 203 00e0 6F4B     		ldr	r3, .L53
 204 00e2 A3F89620 		strh	r2, [r3, #150]	@ movhi
 131:Libraries/lwip-1.4.0/core/tcp_in.c ****     snmp_inc_tcpinerrs();
 132:Libraries/lwip-1.4.0/core/tcp_in.c ****     pbuf_free(p);
 205              		.loc 1 132 0
 206 00e6 7868     		ldr	r0, [r7, #4]
 207 00e8 FFF7FEFF 		bl	pbuf_free
 133:Libraries/lwip-1.4.0/core/tcp_in.c ****     return;
 208              		.loc 1 133 0
 209 00ec E7E2     		b	.L1
 210              	.L6:
 134:Libraries/lwip-1.4.0/core/tcp_in.c ****   }
 135:Libraries/lwip-1.4.0/core/tcp_in.c **** 
 136:Libraries/lwip-1.4.0/core/tcp_in.c **** #if CHECKSUM_CHECK_TCP
 137:Libraries/lwip-1.4.0/core/tcp_in.c ****   /* Verify TCP checksum. */
 138:Libraries/lwip-1.4.0/core/tcp_in.c ****   if (inet_chksum_pseudo(p, ip_current_src_addr(), ip_current_dest_addr(),
 211              		.loc 1 138 0
 212 00ee 7B68     		ldr	r3, [r7, #4]
 213 00f0 1B89     		ldrh	r3, [r3, #8]
 214 00f2 0093     		str	r3, [sp]
 215 00f4 0623     		movs	r3, #6
 216 00f6 6D4A     		ldr	r2, .L53+12
 217 00f8 6D49     		ldr	r1, .L53+16
 218 00fa 7868     		ldr	r0, [r7, #4]
 219 00fc FFF7FEFF 		bl	inet_chksum_pseudo
 220 0100 0346     		mov	r3, r0
 221 0102 002B     		cmp	r3, #0
 222 0104 13D0     		beq	.L7
 139:Libraries/lwip-1.4.0/core/tcp_in.c ****       IP_PROTO_TCP, p->tot_len) != 0) {
 140:Libraries/lwip-1.4.0/core/tcp_in.c ****       LWIP_DEBUGF(TCP_INPUT_DEBUG, ("tcp_input: packet discarded due to failing checksum 0x%04"X16_
 141:Libraries/lwip-1.4.0/core/tcp_in.c ****         inet_chksum_pseudo(p, ip_current_src_addr(), ip_current_dest_addr(),
 142:Libraries/lwip-1.4.0/core/tcp_in.c ****       IP_PROTO_TCP, p->tot_len)));
 143:Libraries/lwip-1.4.0/core/tcp_in.c **** #if TCP_DEBUG
 144:Libraries/lwip-1.4.0/core/tcp_in.c ****     tcp_debug_print(tcphdr);
 145:Libraries/lwip-1.4.0/core/tcp_in.c **** #endif /* TCP_DEBUG */
 146:Libraries/lwip-1.4.0/core/tcp_in.c ****     TCP_STATS_INC(tcp.chkerr);
 223              		.loc 1 146 0
 224 0106 664B     		ldr	r3, .L53
 225 0108 B3F89830 		ldrh	r3, [r3, #152]
 226 010c 0133     		adds	r3, r3, #1
 227 010e 9AB2     		uxth	r2, r3
 228 0110 634B     		ldr	r3, .L53
 229 0112 A3F89820 		strh	r2, [r3, #152]	@ movhi
 147:Libraries/lwip-1.4.0/core/tcp_in.c ****     TCP_STATS_INC(tcp.drop);
 230              		.loc 1 147 0
 231 0116 624B     		ldr	r3, .L53
 232 0118 B3F89630 		ldrh	r3, [r3, #150]
 233 011c 0133     		adds	r3, r3, #1
 234 011e 9AB2     		uxth	r2, r3
 235 0120 5F4B     		ldr	r3, .L53
 236 0122 A3F89620 		strh	r2, [r3, #150]	@ movhi
 148:Libraries/lwip-1.4.0/core/tcp_in.c ****     snmp_inc_tcpinerrs();
 149:Libraries/lwip-1.4.0/core/tcp_in.c ****     pbuf_free(p);
 237              		.loc 1 149 0
 238 0126 7868     		ldr	r0, [r7, #4]
 239 0128 FFF7FEFF 		bl	pbuf_free
 150:Libraries/lwip-1.4.0/core/tcp_in.c ****     return;
 240              		.loc 1 150 0
 241 012c C7E2     		b	.L1
 242              	.L7:
 151:Libraries/lwip-1.4.0/core/tcp_in.c ****   }
 152:Libraries/lwip-1.4.0/core/tcp_in.c **** #endif
 153:Libraries/lwip-1.4.0/core/tcp_in.c **** 
 154:Libraries/lwip-1.4.0/core/tcp_in.c ****   /* Move the payload pointer in the pbuf so that it points to the
 155:Libraries/lwip-1.4.0/core/tcp_in.c ****      TCP data instead of the TCP header. */
 156:Libraries/lwip-1.4.0/core/tcp_in.c ****   hdrlen = TCPH_HDRLEN(tcphdr);
 243              		.loc 1 156 0
 244 012e 5E4B     		ldr	r3, .L53+8
 245 0130 1B68     		ldr	r3, [r3]
 246 0132 9B89     		ldrh	r3, [r3, #12]	@ unaligned
 247 0134 9BB2     		uxth	r3, r3
 248 0136 1846     		mov	r0, r3
 249 0138 FFF7FEFF 		bl	lwip_ntohs
 250 013c 0346     		mov	r3, r0
 251 013e 1B0B     		lsrs	r3, r3, #12
 252 0140 9BB2     		uxth	r3, r3
 253 0142 FB73     		strb	r3, [r7, #15]
 157:Libraries/lwip-1.4.0/core/tcp_in.c ****   if(pbuf_header(p, -(hdrlen * 4))){
 254              		.loc 1 157 0
 255 0144 FB7B     		ldrb	r3, [r7, #15]	@ zero_extendqisi2
 256 0146 9BB2     		uxth	r3, r3
 257 0148 1A46     		mov	r2, r3	@ movhi
 258 014a 9203     		lsls	r2, r2, #14
 259 014c D31A     		subs	r3, r2, r3
 260 014e 9B00     		lsls	r3, r3, #2
 261 0150 9BB2     		uxth	r3, r3
 262 0152 1BB2     		sxth	r3, r3
 263 0154 1946     		mov	r1, r3
 264 0156 7868     		ldr	r0, [r7, #4]
 265 0158 FFF7FEFF 		bl	pbuf_header
 266 015c 0346     		mov	r3, r0
 267 015e 002B     		cmp	r3, #0
 268 0160 13D0     		beq	.L8
 158:Libraries/lwip-1.4.0/core/tcp_in.c ****     /* drop short packets */
 159:Libraries/lwip-1.4.0/core/tcp_in.c ****     LWIP_DEBUGF(TCP_INPUT_DEBUG, ("tcp_input: short packet\n"));
 160:Libraries/lwip-1.4.0/core/tcp_in.c ****     TCP_STATS_INC(tcp.lenerr);
 269              		.loc 1 160 0
 270 0162 4F4B     		ldr	r3, .L53
 271 0164 B3F89A30 		ldrh	r3, [r3, #154]
 272 0168 0133     		adds	r3, r3, #1
 273 016a 9AB2     		uxth	r2, r3
 274 016c 4C4B     		ldr	r3, .L53
 275 016e A3F89A20 		strh	r2, [r3, #154]	@ movhi
 161:Libraries/lwip-1.4.0/core/tcp_in.c ****     TCP_STATS_INC(tcp.drop);
 276              		.loc 1 161 0
 277 0172 4B4B     		ldr	r3, .L53
 278 0174 B3F89630 		ldrh	r3, [r3, #150]
 279 0178 0133     		adds	r3, r3, #1
 280 017a 9AB2     		uxth	r2, r3
 281 017c 484B     		ldr	r3, .L53
 282 017e A3F89620 		strh	r2, [r3, #150]	@ movhi
 162:Libraries/lwip-1.4.0/core/tcp_in.c ****     snmp_inc_tcpinerrs();
 163:Libraries/lwip-1.4.0/core/tcp_in.c ****     pbuf_free(p);
 283              		.loc 1 163 0
 284 0182 7868     		ldr	r0, [r7, #4]
 285 0184 FFF7FEFF 		bl	pbuf_free
 164:Libraries/lwip-1.4.0/core/tcp_in.c ****     return;
 286              		.loc 1 164 0
 287 0188 99E2     		b	.L1
 288              	.L8:
 165:Libraries/lwip-1.4.0/core/tcp_in.c ****   }
 166:Libraries/lwip-1.4.0/core/tcp_in.c **** 
 167:Libraries/lwip-1.4.0/core/tcp_in.c ****   /* Convert fields in TCP header to host byte order. */
 168:Libraries/lwip-1.4.0/core/tcp_in.c ****   tcphdr->src = ntohs(tcphdr->src);
 289              		.loc 1 168 0
 290 018a 474B     		ldr	r3, .L53+8
 291 018c 1C68     		ldr	r4, [r3]
 292 018e 464B     		ldr	r3, .L53+8
 293 0190 1B68     		ldr	r3, [r3]
 294 0192 1B88     		ldrh	r3, [r3]	@ unaligned
 295 0194 9BB2     		uxth	r3, r3
 296 0196 1846     		mov	r0, r3
 297 0198 FFF7FEFF 		bl	lwip_ntohs
 298 019c 0346     		mov	r3, r0
 299 019e 2380     		strh	r3, [r4]	@ unaligned
 169:Libraries/lwip-1.4.0/core/tcp_in.c ****   tcphdr->dest = ntohs(tcphdr->dest);
 300              		.loc 1 169 0
 301 01a0 414B     		ldr	r3, .L53+8
 302 01a2 1C68     		ldr	r4, [r3]
 303 01a4 404B     		ldr	r3, .L53+8
 304 01a6 1B68     		ldr	r3, [r3]
 305 01a8 5B88     		ldrh	r3, [r3, #2]	@ unaligned
 306 01aa 9BB2     		uxth	r3, r3
 307 01ac 1846     		mov	r0, r3
 308 01ae FFF7FEFF 		bl	lwip_ntohs
 309 01b2 0346     		mov	r3, r0
 310 01b4 6380     		strh	r3, [r4, #2]	@ unaligned
 170:Libraries/lwip-1.4.0/core/tcp_in.c ****   seqno = tcphdr->seqno = ntohl(tcphdr->seqno);
 311              		.loc 1 170 0
 312 01b6 3C4B     		ldr	r3, .L53+8
 313 01b8 1C68     		ldr	r4, [r3]
 314 01ba 3B4B     		ldr	r3, .L53+8
 315 01bc 1B68     		ldr	r3, [r3]
 316 01be 5B68     		ldr	r3, [r3, #4]	@ unaligned
 317 01c0 1846     		mov	r0, r3
 318 01c2 FFF7FEFF 		bl	lwip_ntohl
 319 01c6 0346     		mov	r3, r0
 320 01c8 6360     		str	r3, [r4, #4]	@ unaligned
 321 01ca 6368     		ldr	r3, [r4, #4]	@ unaligned
 322 01cc 394A     		ldr	r2, .L53+20
 323 01ce 1360     		str	r3, [r2]
 171:Libraries/lwip-1.4.0/core/tcp_in.c ****   ackno = tcphdr->ackno = ntohl(tcphdr->ackno);
 324              		.loc 1 171 0
 325 01d0 354B     		ldr	r3, .L53+8
 326 01d2 1C68     		ldr	r4, [r3]
 327 01d4 344B     		ldr	r3, .L53+8
 328 01d6 1B68     		ldr	r3, [r3]
 329 01d8 9B68     		ldr	r3, [r3, #8]	@ unaligned
 330 01da 1846     		mov	r0, r3
 331 01dc FFF7FEFF 		bl	lwip_ntohl
 332 01e0 0346     		mov	r3, r0
 333 01e2 A360     		str	r3, [r4, #8]	@ unaligned
 334 01e4 A368     		ldr	r3, [r4, #8]	@ unaligned
 335 01e6 344A     		ldr	r2, .L53+24
 336 01e8 1360     		str	r3, [r2]
 172:Libraries/lwip-1.4.0/core/tcp_in.c ****   tcphdr->wnd = ntohs(tcphdr->wnd);
 337              		.loc 1 172 0
 338 01ea 2F4B     		ldr	r3, .L53+8
 339 01ec 1C68     		ldr	r4, [r3]
 340 01ee 2E4B     		ldr	r3, .L53+8
 341 01f0 1B68     		ldr	r3, [r3]
 342 01f2 DB89     		ldrh	r3, [r3, #14]	@ unaligned
 343 01f4 9BB2     		uxth	r3, r3
 344 01f6 1846     		mov	r0, r3
 345 01f8 FFF7FEFF 		bl	lwip_ntohs
 346 01fc 0346     		mov	r3, r0
 347 01fe E381     		strh	r3, [r4, #14]	@ unaligned
 173:Libraries/lwip-1.4.0/core/tcp_in.c **** 
 174:Libraries/lwip-1.4.0/core/tcp_in.c ****   flags = TCPH_FLAGS(tcphdr);
 348              		.loc 1 174 0
 349 0200 294B     		ldr	r3, .L53+8
 350 0202 1B68     		ldr	r3, [r3]
 351 0204 9B89     		ldrh	r3, [r3, #12]	@ unaligned
 352 0206 9BB2     		uxth	r3, r3
 353 0208 1846     		mov	r0, r3
 354 020a FFF7FEFF 		bl	lwip_ntohs
 355 020e 0346     		mov	r3, r0
 356 0210 DBB2     		uxtb	r3, r3
 357 0212 03F03F03 		and	r3, r3, #63
 358 0216 DAB2     		uxtb	r2, r3
 359 0218 284B     		ldr	r3, .L53+28
 360 021a 1A70     		strb	r2, [r3]
 175:Libraries/lwip-1.4.0/core/tcp_in.c ****   tcplen = p->tot_len + ((flags & (TCP_FIN | TCP_SYN)) ? 1 : 0);
 361              		.loc 1 175 0
 362 021c 7B68     		ldr	r3, [r7, #4]
 363 021e 1A89     		ldrh	r2, [r3, #8]
 364 0220 264B     		ldr	r3, .L53+28
 365 0222 1B78     		ldrb	r3, [r3]	@ zero_extendqisi2
 366 0224 03F00303 		and	r3, r3, #3
 367 0228 002B     		cmp	r3, #0
 368 022a 14BF     		ite	ne
 369 022c 0123     		movne	r3, #1
 370 022e 0023     		moveq	r3, #0
 371 0230 DBB2     		uxtb	r3, r3
 372 0232 9BB2     		uxth	r3, r3
 373 0234 1344     		add	r3, r3, r2
 374 0236 9AB2     		uxth	r2, r3
 375 0238 214B     		ldr	r3, .L53+32
 376 023a 1A80     		strh	r2, [r3]	@ movhi
 176:Libraries/lwip-1.4.0/core/tcp_in.c **** 
 177:Libraries/lwip-1.4.0/core/tcp_in.c ****   /* Demultiplex an incoming segment. First, we check if it is destined
 178:Libraries/lwip-1.4.0/core/tcp_in.c ****      for an active connection. */
 179:Libraries/lwip-1.4.0/core/tcp_in.c ****   prev = NULL;
 377              		.loc 1 179 0
 378 023c 0023     		movs	r3, #0
 379 023e BB61     		str	r3, [r7, #24]
 180:Libraries/lwip-1.4.0/core/tcp_in.c **** 
 181:Libraries/lwip-1.4.0/core/tcp_in.c ****   
 182:Libraries/lwip-1.4.0/core/tcp_in.c ****   for(pcb = tcp_active_pcbs; pcb != NULL; pcb = pcb->next) {
 380              		.loc 1 182 0
 381 0240 204B     		ldr	r3, .L53+36
 382 0242 1B68     		ldr	r3, [r3]
 383 0244 FB61     		str	r3, [r7, #28]
 384 0246 44E0     		b	.L9
 385              	.L13:
 183:Libraries/lwip-1.4.0/core/tcp_in.c ****     LWIP_ASSERT("tcp_input: active pcb->state != CLOSED", pcb->state != CLOSED);
 184:Libraries/lwip-1.4.0/core/tcp_in.c ****     LWIP_ASSERT("tcp_input: active pcb->state != TIME-WAIT", pcb->state != TIME_WAIT);
 185:Libraries/lwip-1.4.0/core/tcp_in.c ****     LWIP_ASSERT("tcp_input: active pcb->state != LISTEN", pcb->state != LISTEN);
 186:Libraries/lwip-1.4.0/core/tcp_in.c ****     if (pcb->remote_port == tcphdr->src &&
 386              		.loc 1 186 0
 387 0248 FB69     		ldr	r3, [r7, #28]
 388 024a DA8B     		ldrh	r2, [r3, #30]
 389 024c 164B     		ldr	r3, .L53+8
 390 024e 1B68     		ldr	r3, [r3]
 391 0250 1B88     		ldrh	r3, [r3]	@ unaligned
 392 0252 9BB2     		uxth	r3, r3
 393 0254 9A42     		cmp	r2, r3
 394 0256 37D1     		bne	.L10
 187:Libraries/lwip-1.4.0/core/tcp_in.c ****        pcb->local_port == tcphdr->dest &&
 395              		.loc 1 187 0 discriminator 1
 396 0258 FB69     		ldr	r3, [r7, #28]
 397 025a 9A8B     		ldrh	r2, [r3, #28]
 398 025c 124B     		ldr	r3, .L53+8
 399 025e 1B68     		ldr	r3, [r3]
 400 0260 5B88     		ldrh	r3, [r3, #2]	@ unaligned
 401 0262 9BB2     		uxth	r3, r3
 186:Libraries/lwip-1.4.0/core/tcp_in.c ****        pcb->local_port == tcphdr->dest &&
 402              		.loc 1 186 0 discriminator 1
 403 0264 9A42     		cmp	r2, r3
 404 0266 2FD1     		bne	.L10
 188:Libraries/lwip-1.4.0/core/tcp_in.c ****        ip_addr_cmp(&(pcb->remote_ip), &current_iphdr_src) &&
 405              		.loc 1 188 0
 406 0268 FB69     		ldr	r3, [r7, #28]
 407 026a 5A68     		ldr	r2, [r3, #4]
 408 026c 104B     		ldr	r3, .L53+16
 409 026e 1B68     		ldr	r3, [r3]
 187:Libraries/lwip-1.4.0/core/tcp_in.c ****        pcb->local_port == tcphdr->dest &&
 410              		.loc 1 187 0
 411 0270 9A42     		cmp	r2, r3
 412 0272 29D1     		bne	.L10
 189:Libraries/lwip-1.4.0/core/tcp_in.c ****        ip_addr_cmp(&(pcb->local_ip), &current_iphdr_dest)) {
 413              		.loc 1 189 0
 414 0274 FB69     		ldr	r3, [r7, #28]
 415 0276 1A68     		ldr	r2, [r3]
 416 0278 0C4B     		ldr	r3, .L53+12
 417 027a 1B68     		ldr	r3, [r3]
 188:Libraries/lwip-1.4.0/core/tcp_in.c ****        ip_addr_cmp(&(pcb->remote_ip), &current_iphdr_src) &&
 418              		.loc 1 188 0
 419 027c 9A42     		cmp	r2, r3
 420 027e 23D1     		bne	.L10
 190:Libraries/lwip-1.4.0/core/tcp_in.c **** 
 191:Libraries/lwip-1.4.0/core/tcp_in.c ****       /* Move this PCB to the front of the list so that subsequent
 192:Libraries/lwip-1.4.0/core/tcp_in.c ****          lookups will be faster (we exploit locality in TCP segment
 193:Libraries/lwip-1.4.0/core/tcp_in.c ****          arrivals). */
 194:Libraries/lwip-1.4.0/core/tcp_in.c ****       LWIP_ASSERT("tcp_input: pcb->next != pcb (before cache)", pcb->next != pcb);
 195:Libraries/lwip-1.4.0/core/tcp_in.c ****       if (prev != NULL) {
 421              		.loc 1 195 0
 422 0280 BB69     		ldr	r3, [r7, #24]
 423 0282 002B     		cmp	r3, #0
 424 0284 29D0     		beq	.L49
 196:Libraries/lwip-1.4.0/core/tcp_in.c ****         prev->next = pcb->next;
 425              		.loc 1 196 0
 426 0286 FB69     		ldr	r3, [r7, #28]
 427 0288 DA68     		ldr	r2, [r3, #12]
 428 028a BB69     		ldr	r3, [r7, #24]
 429 028c DA60     		str	r2, [r3, #12]
 197:Libraries/lwip-1.4.0/core/tcp_in.c ****         pcb->next = tcp_active_pcbs;
 430              		.loc 1 197 0
 431 028e 0D4B     		ldr	r3, .L53+36
 432 0290 1A68     		ldr	r2, [r3]
 433 0292 FB69     		ldr	r3, [r7, #28]
 434 0294 DA60     		str	r2, [r3, #12]
 198:Libraries/lwip-1.4.0/core/tcp_in.c ****         tcp_active_pcbs = pcb;
 435              		.loc 1 198 0
 436 0296 0B4A     		ldr	r2, .L53+36
 437 0298 FB69     		ldr	r3, [r7, #28]
 438 029a 1360     		str	r3, [r2]
 199:Libraries/lwip-1.4.0/core/tcp_in.c ****       }
 200:Libraries/lwip-1.4.0/core/tcp_in.c ****       LWIP_ASSERT("tcp_input: pcb->next != pcb (after cache)", pcb->next != pcb);
 201:Libraries/lwip-1.4.0/core/tcp_in.c ****       break;
 439              		.loc 1 201 0
 440 029c 1DE0     		b	.L49
 441              	.L54:
 442 029e 00BF     		.align	2
 443              	.L53:
 444 02a0 00000000 		.word	lwip_stats
 445 02a4 00000000 		.word	iphdr
 446 02a8 00000000 		.word	tcphdr
 447 02ac 00000000 		.word	current_iphdr_dest
 448 02b0 00000000 		.word	current_iphdr_src
 449 02b4 00000000 		.word	seqno
 450 02b8 00000000 		.word	ackno
 451 02bc 00000000 		.word	flags
 452 02c0 00000000 		.word	tcplen
 453 02c4 00000000 		.word	tcp_active_pcbs
 454              	.L10:
 202:Libraries/lwip-1.4.0/core/tcp_in.c ****     }
 203:Libraries/lwip-1.4.0/core/tcp_in.c ****     prev = pcb;
 455              		.loc 1 203 0 discriminator 2
 456 02c8 FB69     		ldr	r3, [r7, #28]
 457 02ca BB61     		str	r3, [r7, #24]
 182:Libraries/lwip-1.4.0/core/tcp_in.c ****     LWIP_ASSERT("tcp_input: active pcb->state != CLOSED", pcb->state != CLOSED);
 458              		.loc 1 182 0 discriminator 2
 459 02cc FB69     		ldr	r3, [r7, #28]
 460 02ce DB68     		ldr	r3, [r3, #12]
 461 02d0 FB61     		str	r3, [r7, #28]
 462              	.L9:
 182:Libraries/lwip-1.4.0/core/tcp_in.c ****     LWIP_ASSERT("tcp_input: active pcb->state != CLOSED", pcb->state != CLOSED);
 463              		.loc 1 182 0 is_stmt 0 discriminator 1
 464 02d2 FB69     		ldr	r3, [r7, #28]
 465 02d4 002B     		cmp	r3, #0
 466 02d6 B7D1     		bne	.L13
 467 02d8 00E0     		b	.L12
 468              	.L49:
 201:Libraries/lwip-1.4.0/core/tcp_in.c ****     }
 469              		.loc 1 201 0 is_stmt 1
 470 02da 00BF     		nop
 471              	.L12:
 204:Libraries/lwip-1.4.0/core/tcp_in.c ****   }
 205:Libraries/lwip-1.4.0/core/tcp_in.c **** 
 206:Libraries/lwip-1.4.0/core/tcp_in.c ****   if (pcb == NULL) {
 472              		.loc 1 206 0
 473 02dc FB69     		ldr	r3, [r7, #28]
 474 02de 002B     		cmp	r3, #0
 475 02e0 67D1     		bne	.L14
 207:Libraries/lwip-1.4.0/core/tcp_in.c ****     /* If it did not go to an active connection, we check the connections
 208:Libraries/lwip-1.4.0/core/tcp_in.c ****        in the TIME-WAIT state. */
 209:Libraries/lwip-1.4.0/core/tcp_in.c ****     for(pcb = tcp_tw_pcbs; pcb != NULL; pcb = pcb->next) {
 476              		.loc 1 209 0
 477 02e2 934B     		ldr	r3, .L55
 478 02e4 1B68     		ldr	r3, [r3]
 479 02e6 FB61     		str	r3, [r7, #28]
 480 02e8 25E0     		b	.L15
 481              	.L17:
 210:Libraries/lwip-1.4.0/core/tcp_in.c ****       LWIP_ASSERT("tcp_input: TIME-WAIT pcb->state == TIME-WAIT", pcb->state == TIME_WAIT);
 211:Libraries/lwip-1.4.0/core/tcp_in.c ****       if (pcb->remote_port == tcphdr->src &&
 482              		.loc 1 211 0
 483 02ea FB69     		ldr	r3, [r7, #28]
 484 02ec DA8B     		ldrh	r2, [r3, #30]
 485 02ee 914B     		ldr	r3, .L55+4
 486 02f0 1B68     		ldr	r3, [r3]
 487 02f2 1B88     		ldrh	r3, [r3]	@ unaligned
 488 02f4 9BB2     		uxth	r3, r3
 489 02f6 9A42     		cmp	r2, r3
 490 02f8 1AD1     		bne	.L16
 212:Libraries/lwip-1.4.0/core/tcp_in.c ****          pcb->local_port == tcphdr->dest &&
 491              		.loc 1 212 0 discriminator 1
 492 02fa FB69     		ldr	r3, [r7, #28]
 493 02fc 9A8B     		ldrh	r2, [r3, #28]
 494 02fe 8D4B     		ldr	r3, .L55+4
 495 0300 1B68     		ldr	r3, [r3]
 496 0302 5B88     		ldrh	r3, [r3, #2]	@ unaligned
 497 0304 9BB2     		uxth	r3, r3
 211:Libraries/lwip-1.4.0/core/tcp_in.c ****          pcb->local_port == tcphdr->dest &&
 498              		.loc 1 211 0 discriminator 1
 499 0306 9A42     		cmp	r2, r3
 500 0308 12D1     		bne	.L16
 213:Libraries/lwip-1.4.0/core/tcp_in.c ****          ip_addr_cmp(&(pcb->remote_ip), &current_iphdr_src) &&
 501              		.loc 1 213 0
 502 030a FB69     		ldr	r3, [r7, #28]
 503 030c 5A68     		ldr	r2, [r3, #4]
 504 030e 8A4B     		ldr	r3, .L55+8
 505 0310 1B68     		ldr	r3, [r3]
 212:Libraries/lwip-1.4.0/core/tcp_in.c ****          pcb->local_port == tcphdr->dest &&
 506              		.loc 1 212 0
 507 0312 9A42     		cmp	r2, r3
 508 0314 0CD1     		bne	.L16
 214:Libraries/lwip-1.4.0/core/tcp_in.c ****          ip_addr_cmp(&(pcb->local_ip), &current_iphdr_dest)) {
 509              		.loc 1 214 0
 510 0316 FB69     		ldr	r3, [r7, #28]
 511 0318 1A68     		ldr	r2, [r3]
 512 031a 884B     		ldr	r3, .L55+12
 513 031c 1B68     		ldr	r3, [r3]
 213:Libraries/lwip-1.4.0/core/tcp_in.c ****          ip_addr_cmp(&(pcb->remote_ip), &current_iphdr_src) &&
 514              		.loc 1 213 0
 515 031e 9A42     		cmp	r2, r3
 516 0320 06D1     		bne	.L16
 215:Libraries/lwip-1.4.0/core/tcp_in.c ****         /* We don't really care enough to move this PCB to the front
 216:Libraries/lwip-1.4.0/core/tcp_in.c ****            of the list since we are not very likely to receive that
 217:Libraries/lwip-1.4.0/core/tcp_in.c ****            many segments for connections in TIME-WAIT. */
 218:Libraries/lwip-1.4.0/core/tcp_in.c ****         LWIP_DEBUGF(TCP_INPUT_DEBUG, ("tcp_input: packed for TIME_WAITing connection.\n"));
 219:Libraries/lwip-1.4.0/core/tcp_in.c ****         tcp_timewait_input(pcb);
 517              		.loc 1 219 0
 518 0322 F869     		ldr	r0, [r7, #28]
 519 0324 FFF7FEFF 		bl	tcp_timewait_input
 220:Libraries/lwip-1.4.0/core/tcp_in.c ****         pbuf_free(p);
 520              		.loc 1 220 0
 521 0328 7868     		ldr	r0, [r7, #4]
 522 032a FFF7FEFF 		bl	pbuf_free
 221:Libraries/lwip-1.4.0/core/tcp_in.c ****         return;
 523              		.loc 1 221 0
 524 032e C6E1     		b	.L1
 525              	.L16:
 209:Libraries/lwip-1.4.0/core/tcp_in.c ****       LWIP_ASSERT("tcp_input: TIME-WAIT pcb->state == TIME-WAIT", pcb->state == TIME_WAIT);
 526              		.loc 1 209 0 discriminator 2
 527 0330 FB69     		ldr	r3, [r7, #28]
 528 0332 DB68     		ldr	r3, [r3, #12]
 529 0334 FB61     		str	r3, [r7, #28]
 530              	.L15:
 209:Libraries/lwip-1.4.0/core/tcp_in.c ****       LWIP_ASSERT("tcp_input: TIME-WAIT pcb->state == TIME-WAIT", pcb->state == TIME_WAIT);
 531              		.loc 1 209 0 is_stmt 0 discriminator 1
 532 0336 FB69     		ldr	r3, [r7, #28]
 533 0338 002B     		cmp	r3, #0
 534 033a D6D1     		bne	.L17
 222:Libraries/lwip-1.4.0/core/tcp_in.c ****       }
 223:Libraries/lwip-1.4.0/core/tcp_in.c ****     }
 224:Libraries/lwip-1.4.0/core/tcp_in.c **** 
 225:Libraries/lwip-1.4.0/core/tcp_in.c ****     /* Finally, if we still did not get a match, we check all PCBs that
 226:Libraries/lwip-1.4.0/core/tcp_in.c ****        are LISTENing for incoming connections. */
 227:Libraries/lwip-1.4.0/core/tcp_in.c ****     prev = NULL;
 535              		.loc 1 227 0 is_stmt 1
 536 033c 0023     		movs	r3, #0
 537 033e BB61     		str	r3, [r7, #24]
 228:Libraries/lwip-1.4.0/core/tcp_in.c ****     for(lpcb = tcp_listen_pcbs.listen_pcbs; lpcb != NULL; lpcb = lpcb->next) {
 538              		.loc 1 228 0
 539 0340 7F4B     		ldr	r3, .L55+16
 540 0342 1B68     		ldr	r3, [r3]
 541 0344 7B61     		str	r3, [r7, #20]
 542 0346 19E0     		b	.L18
 543              	.L21:
 229:Libraries/lwip-1.4.0/core/tcp_in.c ****       if (lpcb->local_port == tcphdr->dest) {
 544              		.loc 1 229 0
 545 0348 7B69     		ldr	r3, [r7, #20]
 546 034a 9A8B     		ldrh	r2, [r3, #28]
 547 034c 794B     		ldr	r3, .L55+4
 548 034e 1B68     		ldr	r3, [r3]
 549 0350 5B88     		ldrh	r3, [r3, #2]	@ unaligned
 550 0352 9BB2     		uxth	r3, r3
 551 0354 9A42     		cmp	r2, r3
 552 0356 0CD1     		bne	.L19
 230:Libraries/lwip-1.4.0/core/tcp_in.c **** #if SO_REUSE
 231:Libraries/lwip-1.4.0/core/tcp_in.c ****         if (ip_addr_cmp(&(lpcb->local_ip), &current_iphdr_dest)) {
 232:Libraries/lwip-1.4.0/core/tcp_in.c ****           /* found an exact match */
 233:Libraries/lwip-1.4.0/core/tcp_in.c ****           break;
 234:Libraries/lwip-1.4.0/core/tcp_in.c ****         } else if(ip_addr_isany(&(lpcb->local_ip))) {
 235:Libraries/lwip-1.4.0/core/tcp_in.c ****           /* found an ANY-match */
 236:Libraries/lwip-1.4.0/core/tcp_in.c ****           lpcb_any = lpcb;
 237:Libraries/lwip-1.4.0/core/tcp_in.c ****           lpcb_prev = prev;
 238:Libraries/lwip-1.4.0/core/tcp_in.c ****         }
 239:Libraries/lwip-1.4.0/core/tcp_in.c **** #else /* SO_REUSE */
 240:Libraries/lwip-1.4.0/core/tcp_in.c ****         if (ip_addr_cmp(&(lpcb->local_ip), &current_iphdr_dest) ||
 553              		.loc 1 240 0
 554 0358 7B69     		ldr	r3, [r7, #20]
 555 035a 1A68     		ldr	r2, [r3]
 556 035c 774B     		ldr	r3, .L55+12
 557 035e 1B68     		ldr	r3, [r3]
 558 0360 9A42     		cmp	r2, r3
 559 0362 0ED0     		beq	.L20
 241:Libraries/lwip-1.4.0/core/tcp_in.c ****             ip_addr_isany(&(lpcb->local_ip))) {
 560              		.loc 1 241 0 discriminator 1
 561 0364 7B69     		ldr	r3, [r7, #20]
 240:Libraries/lwip-1.4.0/core/tcp_in.c ****             ip_addr_isany(&(lpcb->local_ip))) {
 562              		.loc 1 240 0 discriminator 1
 563 0366 002B     		cmp	r3, #0
 564 0368 0BD0     		beq	.L20
 565              		.loc 1 241 0
 566 036a 7B69     		ldr	r3, [r7, #20]
 567 036c 1B68     		ldr	r3, [r3]
 568 036e 002B     		cmp	r3, #0
 569 0370 07D0     		beq	.L20
 570              	.L19:
 242:Libraries/lwip-1.4.0/core/tcp_in.c ****           /* found a match */
 243:Libraries/lwip-1.4.0/core/tcp_in.c ****           break;
 244:Libraries/lwip-1.4.0/core/tcp_in.c ****         }
 245:Libraries/lwip-1.4.0/core/tcp_in.c **** #endif /* SO_REUSE */
 246:Libraries/lwip-1.4.0/core/tcp_in.c ****       }
 247:Libraries/lwip-1.4.0/core/tcp_in.c ****       prev = (struct tcp_pcb *)lpcb;
 571              		.loc 1 247 0 discriminator 2
 572 0372 7B69     		ldr	r3, [r7, #20]
 573 0374 BB61     		str	r3, [r7, #24]
 228:Libraries/lwip-1.4.0/core/tcp_in.c ****       if (lpcb->local_port == tcphdr->dest) {
 574              		.loc 1 228 0 discriminator 2
 575 0376 7B69     		ldr	r3, [r7, #20]
 576 0378 DB68     		ldr	r3, [r3, #12]
 577 037a 7B61     		str	r3, [r7, #20]
 578              	.L18:
 228:Libraries/lwip-1.4.0/core/tcp_in.c ****       if (lpcb->local_port == tcphdr->dest) {
 579              		.loc 1 228 0 is_stmt 0 discriminator 1
 580 037c 7B69     		ldr	r3, [r7, #20]
 581 037e 002B     		cmp	r3, #0
 582 0380 E2D1     		bne	.L21
 583              	.L20:
 248:Libraries/lwip-1.4.0/core/tcp_in.c ****     }
 249:Libraries/lwip-1.4.0/core/tcp_in.c **** #if SO_REUSE
 250:Libraries/lwip-1.4.0/core/tcp_in.c ****     /* first try specific local IP */
 251:Libraries/lwip-1.4.0/core/tcp_in.c ****     if (lpcb == NULL) {
 252:Libraries/lwip-1.4.0/core/tcp_in.c ****       /* only pass to ANY if no specific local IP has been found */
 253:Libraries/lwip-1.4.0/core/tcp_in.c ****       lpcb = lpcb_any;
 254:Libraries/lwip-1.4.0/core/tcp_in.c ****       prev = lpcb_prev;
 255:Libraries/lwip-1.4.0/core/tcp_in.c ****     }
 256:Libraries/lwip-1.4.0/core/tcp_in.c **** #endif /* SO_REUSE */
 257:Libraries/lwip-1.4.0/core/tcp_in.c ****     if (lpcb != NULL) {
 584              		.loc 1 257 0 is_stmt 1
 585 0382 7B69     		ldr	r3, [r7, #20]
 586 0384 002B     		cmp	r3, #0
 587 0386 14D0     		beq	.L14
 258:Libraries/lwip-1.4.0/core/tcp_in.c ****       /* Move this PCB to the front of the list so that subsequent
 259:Libraries/lwip-1.4.0/core/tcp_in.c ****          lookups will be faster (we exploit locality in TCP segment
 260:Libraries/lwip-1.4.0/core/tcp_in.c ****          arrivals). */
 261:Libraries/lwip-1.4.0/core/tcp_in.c ****       if (prev != NULL) {
 588              		.loc 1 261 0
 589 0388 BB69     		ldr	r3, [r7, #24]
 590 038a 002B     		cmp	r3, #0
 591 038c 0AD0     		beq	.L22
 262:Libraries/lwip-1.4.0/core/tcp_in.c ****         ((struct tcp_pcb_listen *)prev)->next = lpcb->next;
 592              		.loc 1 262 0
 593 038e 7B69     		ldr	r3, [r7, #20]
 594 0390 DA68     		ldr	r2, [r3, #12]
 595 0392 BB69     		ldr	r3, [r7, #24]
 596 0394 DA60     		str	r2, [r3, #12]
 263:Libraries/lwip-1.4.0/core/tcp_in.c ****               /* our successor is the remainder of the listening list */
 264:Libraries/lwip-1.4.0/core/tcp_in.c ****         lpcb->next = tcp_listen_pcbs.listen_pcbs;
 597              		.loc 1 264 0
 598 0396 6A4B     		ldr	r3, .L55+16
 599 0398 1A68     		ldr	r2, [r3]
 600 039a 7B69     		ldr	r3, [r7, #20]
 601 039c DA60     		str	r2, [r3, #12]
 265:Libraries/lwip-1.4.0/core/tcp_in.c ****               /* put this listening pcb at the head of the listening list */
 266:Libraries/lwip-1.4.0/core/tcp_in.c ****         tcp_listen_pcbs.listen_pcbs = lpcb;
 602              		.loc 1 266 0
 603 039e 684A     		ldr	r2, .L55+16
 604 03a0 7B69     		ldr	r3, [r7, #20]
 605 03a2 1360     		str	r3, [r2]
 606              	.L22:
 267:Libraries/lwip-1.4.0/core/tcp_in.c ****       }
 268:Libraries/lwip-1.4.0/core/tcp_in.c ****     
 269:Libraries/lwip-1.4.0/core/tcp_in.c ****       LWIP_DEBUGF(TCP_INPUT_DEBUG, ("tcp_input: packed for LISTENing connection.\n"));
 270:Libraries/lwip-1.4.0/core/tcp_in.c ****       tcp_listen_input(lpcb);
 607              		.loc 1 270 0
 608 03a4 7869     		ldr	r0, [r7, #20]
 609 03a6 FFF7FEFF 		bl	tcp_listen_input
 271:Libraries/lwip-1.4.0/core/tcp_in.c ****       pbuf_free(p);
 610              		.loc 1 271 0
 611 03aa 7868     		ldr	r0, [r7, #4]
 612 03ac FFF7FEFF 		bl	pbuf_free
 272:Libraries/lwip-1.4.0/core/tcp_in.c ****       return;
 613              		.loc 1 272 0
 614 03b0 85E1     		b	.L1
 615              	.L14:
 273:Libraries/lwip-1.4.0/core/tcp_in.c ****     }
 274:Libraries/lwip-1.4.0/core/tcp_in.c ****   }
 275:Libraries/lwip-1.4.0/core/tcp_in.c **** 
 276:Libraries/lwip-1.4.0/core/tcp_in.c **** #if TCP_INPUT_DEBUG
 277:Libraries/lwip-1.4.0/core/tcp_in.c ****   LWIP_DEBUGF(TCP_INPUT_DEBUG, ("+-+-+-+-+-+-+-+-+-+-+-+-+-+- tcp_input: flags "));
 278:Libraries/lwip-1.4.0/core/tcp_in.c ****   tcp_debug_print_flags(TCPH_FLAGS(tcphdr));
 279:Libraries/lwip-1.4.0/core/tcp_in.c ****   LWIP_DEBUGF(TCP_INPUT_DEBUG, ("-+-+-+-+-+-+-+-+-+-+-+-+-+-+\n"));
 280:Libraries/lwip-1.4.0/core/tcp_in.c **** #endif /* TCP_INPUT_DEBUG */
 281:Libraries/lwip-1.4.0/core/tcp_in.c **** 
 282:Libraries/lwip-1.4.0/core/tcp_in.c **** 
 283:Libraries/lwip-1.4.0/core/tcp_in.c ****   if (pcb != NULL) {
 616              		.loc 1 283 0
 617 03b2 FB69     		ldr	r3, [r7, #28]
 618 03b4 002B     		cmp	r3, #0
 619 03b6 00F04D81 		beq	.L23
 284:Libraries/lwip-1.4.0/core/tcp_in.c ****     /* The incoming segment belongs to a connection. */
 285:Libraries/lwip-1.4.0/core/tcp_in.c **** #if TCP_INPUT_DEBUG
 286:Libraries/lwip-1.4.0/core/tcp_in.c **** #if TCP_DEBUG
 287:Libraries/lwip-1.4.0/core/tcp_in.c ****     tcp_debug_print_state(pcb->state);
 288:Libraries/lwip-1.4.0/core/tcp_in.c **** #endif /* TCP_DEBUG */
 289:Libraries/lwip-1.4.0/core/tcp_in.c **** #endif /* TCP_INPUT_DEBUG */
 290:Libraries/lwip-1.4.0/core/tcp_in.c **** 
 291:Libraries/lwip-1.4.0/core/tcp_in.c ****     /* Set up a tcp_seg structure. */
 292:Libraries/lwip-1.4.0/core/tcp_in.c ****     inseg.next = NULL;
 620              		.loc 1 292 0
 621 03ba 624B     		ldr	r3, .L55+20
 622 03bc 0022     		movs	r2, #0
 623 03be 1A60     		str	r2, [r3]
 293:Libraries/lwip-1.4.0/core/tcp_in.c ****     inseg.len = p->tot_len;
 624              		.loc 1 293 0
 625 03c0 7B68     		ldr	r3, [r7, #4]
 626 03c2 1A89     		ldrh	r2, [r3, #8]
 627 03c4 5F4B     		ldr	r3, .L55+20
 628 03c6 1A81     		strh	r2, [r3, #8]	@ movhi
 294:Libraries/lwip-1.4.0/core/tcp_in.c ****     inseg.p = p;
 629              		.loc 1 294 0
 630 03c8 5E4A     		ldr	r2, .L55+20
 631 03ca 7B68     		ldr	r3, [r7, #4]
 632 03cc 5360     		str	r3, [r2, #4]
 295:Libraries/lwip-1.4.0/core/tcp_in.c ****     inseg.tcphdr = tcphdr;
 633              		.loc 1 295 0
 634 03ce 594B     		ldr	r3, .L55+4
 635 03d0 1B68     		ldr	r3, [r3]
 636 03d2 5C4A     		ldr	r2, .L55+20
 637 03d4 D360     		str	r3, [r2, #12]
 296:Libraries/lwip-1.4.0/core/tcp_in.c **** 
 297:Libraries/lwip-1.4.0/core/tcp_in.c ****     recv_data = NULL;
 638              		.loc 1 297 0
 639 03d6 5C4B     		ldr	r3, .L55+24
 640 03d8 0022     		movs	r2, #0
 641 03da 1A60     		str	r2, [r3]
 298:Libraries/lwip-1.4.0/core/tcp_in.c ****     recv_flags = 0;
 642              		.loc 1 298 0
 643 03dc 5B4B     		ldr	r3, .L55+28
 644 03de 0022     		movs	r2, #0
 645 03e0 1A70     		strb	r2, [r3]
 299:Libraries/lwip-1.4.0/core/tcp_in.c **** 
 300:Libraries/lwip-1.4.0/core/tcp_in.c ****     /* If there is data which was previously "refused" by upper layer */
 301:Libraries/lwip-1.4.0/core/tcp_in.c ****     if (pcb->refused_data != NULL) {
 646              		.loc 1 301 0
 647 03e2 FB69     		ldr	r3, [r7, #28]
 648 03e4 D3F88030 		ldr	r3, [r3, #128]
 649 03e8 002B     		cmp	r3, #0
 650 03ea 36D0     		beq	.L24
 302:Libraries/lwip-1.4.0/core/tcp_in.c ****       /* Notify again application with data previously received. */
 303:Libraries/lwip-1.4.0/core/tcp_in.c ****       LWIP_DEBUGF(TCP_INPUT_DEBUG, ("tcp_input: notify kept packet\n"));
 304:Libraries/lwip-1.4.0/core/tcp_in.c ****       TCP_EVENT_RECV(pcb, pcb->refused_data, ERR_OK, err);
 651              		.loc 1 304 0
 652 03ec FB69     		ldr	r3, [r7, #28]
 653 03ee D3F88830 		ldr	r3, [r3, #136]
 654 03f2 002B     		cmp	r3, #0
 655 03f4 0CD0     		beq	.L25
 656              		.loc 1 304 0 is_stmt 0 discriminator 1
 657 03f6 FB69     		ldr	r3, [r7, #28]
 658 03f8 D3F88840 		ldr	r4, [r3, #136]
 659 03fc FB69     		ldr	r3, [r7, #28]
 660 03fe 5869     		ldr	r0, [r3, #20]
 661 0400 FB69     		ldr	r3, [r7, #28]
 662 0402 D3F88020 		ldr	r2, [r3, #128]
 663 0406 0023     		movs	r3, #0
 664 0408 F969     		ldr	r1, [r7, #28]
 665 040a A047     		blx	r4
 666 040c 3861     		str	r0, [r7, #16]
 667 040e 08E0     		b	.L26
 668              	.L25:
 669              		.loc 1 304 0 discriminator 2
 670 0410 FB69     		ldr	r3, [r7, #28]
 671 0412 D3F88020 		ldr	r2, [r3, #128]
 672 0416 0023     		movs	r3, #0
 673 0418 F969     		ldr	r1, [r7, #28]
 674 041a 0020     		movs	r0, #0
 675 041c FFF7FEFF 		bl	tcp_recv_null
 676 0420 3861     		str	r0, [r7, #16]
 677              	.L26:
 305:Libraries/lwip-1.4.0/core/tcp_in.c ****       if (err == ERR_OK) {
 678              		.loc 1 305 0 is_stmt 1
 679 0422 3B69     		ldr	r3, [r7, #16]
 680 0424 002B     		cmp	r3, #0
 681 0426 04D1     		bne	.L27
 306:Libraries/lwip-1.4.0/core/tcp_in.c ****         pcb->refused_data = NULL;
 682              		.loc 1 306 0
 683 0428 FB69     		ldr	r3, [r7, #28]
 684 042a 0022     		movs	r2, #0
 685 042c C3F88020 		str	r2, [r3, #128]
 686 0430 13E0     		b	.L24
 687              	.L27:
 307:Libraries/lwip-1.4.0/core/tcp_in.c ****       } else if ((err == ERR_ABRT) || (tcplen > 0)) {
 688              		.loc 1 307 0
 689 0432 3B69     		ldr	r3, [r7, #16]
 690 0434 13F10A0F 		cmn	r3, #10
 691 0438 03D0     		beq	.L28
 692              		.loc 1 307 0 is_stmt 0 discriminator 1
 693 043a 454B     		ldr	r3, .L55+32
 694 043c 1B88     		ldrh	r3, [r3]
 695 043e 002B     		cmp	r3, #0
 696 0440 0BD0     		beq	.L24
 697              	.L28:
 308:Libraries/lwip-1.4.0/core/tcp_in.c ****         /* if err == ERR_ABRT, 'pcb' is already deallocated */
 309:Libraries/lwip-1.4.0/core/tcp_in.c ****         /* Drop incoming packets because pcb is "full" (only if the incoming
 310:Libraries/lwip-1.4.0/core/tcp_in.c ****            segment contains data). */
 311:Libraries/lwip-1.4.0/core/tcp_in.c ****         LWIP_DEBUGF(TCP_INPUT_DEBUG, ("tcp_input: drop incoming packets, because pcb is \"full\"\n"
 312:Libraries/lwip-1.4.0/core/tcp_in.c ****         TCP_STATS_INC(tcp.drop);
 698              		.loc 1 312 0 is_stmt 1
 699 0442 444B     		ldr	r3, .L55+36
 700 0444 B3F89630 		ldrh	r3, [r3, #150]
 701 0448 0133     		adds	r3, r3, #1
 702 044a 9AB2     		uxth	r2, r3
 703 044c 414B     		ldr	r3, .L55+36
 704 044e A3F89620 		strh	r2, [r3, #150]	@ movhi
 313:Libraries/lwip-1.4.0/core/tcp_in.c ****         snmp_inc_tcpinerrs();
 314:Libraries/lwip-1.4.0/core/tcp_in.c ****         pbuf_free(p);
 705              		.loc 1 314 0
 706 0452 7868     		ldr	r0, [r7, #4]
 707 0454 FFF7FEFF 		bl	pbuf_free
 315:Libraries/lwip-1.4.0/core/tcp_in.c ****         return;
 708              		.loc 1 315 0
 709 0458 31E1     		b	.L1
 710              	.L24:
 316:Libraries/lwip-1.4.0/core/tcp_in.c ****       }
 317:Libraries/lwip-1.4.0/core/tcp_in.c ****     }
 318:Libraries/lwip-1.4.0/core/tcp_in.c ****     tcp_input_pcb = pcb;
 711              		.loc 1 318 0
 712 045a 3F4A     		ldr	r2, .L55+40
 713 045c FB69     		ldr	r3, [r7, #28]
 714 045e 1360     		str	r3, [r2]
 319:Libraries/lwip-1.4.0/core/tcp_in.c ****     err = tcp_process(pcb);
 715              		.loc 1 319 0
 716 0460 F869     		ldr	r0, [r7, #28]
 717 0462 FFF7FEFF 		bl	tcp_process
 718 0466 3861     		str	r0, [r7, #16]
 320:Libraries/lwip-1.4.0/core/tcp_in.c ****     /* A return value of ERR_ABRT means that tcp_abort() was called
 321:Libraries/lwip-1.4.0/core/tcp_in.c ****        and that the pcb has been freed. If so, we don't do anything. */
 322:Libraries/lwip-1.4.0/core/tcp_in.c ****     if (err != ERR_ABRT) {
 719              		.loc 1 322 0
 720 0468 3B69     		ldr	r3, [r7, #16]
 721 046a 13F10A0F 		cmn	r3, #10
 722 046e 00F0DE80 		beq	.L29
 323:Libraries/lwip-1.4.0/core/tcp_in.c ****       if (recv_flags & TF_RESET) {
 723              		.loc 1 323 0
 724 0472 364B     		ldr	r3, .L55+28
 725 0474 1B78     		ldrb	r3, [r3]	@ zero_extendqisi2
 726 0476 03F00803 		and	r3, r3, #8
 727 047a 002B     		cmp	r3, #0
 728 047c 16D0     		beq	.L30
 324:Libraries/lwip-1.4.0/core/tcp_in.c ****         /* TF_RESET means that the connection was reset by the other
 325:Libraries/lwip-1.4.0/core/tcp_in.c ****            end. We then call the error callback to inform the
 326:Libraries/lwip-1.4.0/core/tcp_in.c ****            application that the connection is dead before we
 327:Libraries/lwip-1.4.0/core/tcp_in.c ****            deallocate the PCB. */
 328:Libraries/lwip-1.4.0/core/tcp_in.c ****         TCP_EVENT_ERR(pcb->errf, pcb->callback_arg, ERR_RST);
 729              		.loc 1 328 0
 730 047e FB69     		ldr	r3, [r7, #28]
 731 0480 D3F89430 		ldr	r3, [r3, #148]
 732 0484 002B     		cmp	r3, #0
 733 0486 08D0     		beq	.L31
 734              		.loc 1 328 0 is_stmt 0 discriminator 1
 735 0488 FB69     		ldr	r3, [r7, #28]
 736 048a D3F89430 		ldr	r3, [r3, #148]
 737 048e FA69     		ldr	r2, [r7, #28]
 738 0490 5269     		ldr	r2, [r2, #20]
 739 0492 6FF00A01 		mvn	r1, #10
 740 0496 1046     		mov	r0, r2
 741 0498 9847     		blx	r3
 742              	.L31:
 329:Libraries/lwip-1.4.0/core/tcp_in.c ****         tcp_pcb_remove(&tcp_active_pcbs, pcb);
 743              		.loc 1 329 0 is_stmt 1
 744 049a F969     		ldr	r1, [r7, #28]
 745 049c 2F48     		ldr	r0, .L55+44
 746 049e FFF7FEFF 		bl	tcp_pcb_remove
 330:Libraries/lwip-1.4.0/core/tcp_in.c ****         memp_free(MEMP_TCP_PCB, pcb);
 747              		.loc 1 330 0
 748 04a2 F969     		ldr	r1, [r7, #28]
 749 04a4 0220     		movs	r0, #2
 750 04a6 FFF7FEFF 		bl	memp_free
 751 04aa C0E0     		b	.L29
 752              	.L30:
 331:Libraries/lwip-1.4.0/core/tcp_in.c ****       } else if (recv_flags & TF_CLOSED) {
 753              		.loc 1 331 0
 754 04ac 274B     		ldr	r3, .L55+28
 755 04ae 1B78     		ldrb	r3, [r3]	@ zero_extendqisi2
 756 04b0 03F01003 		and	r3, r3, #16
 757 04b4 002B     		cmp	r3, #0
 758 04b6 08D0     		beq	.L32
 332:Libraries/lwip-1.4.0/core/tcp_in.c ****         /* The connection has been closed and we will deallocate the
 333:Libraries/lwip-1.4.0/core/tcp_in.c ****            PCB. */
 334:Libraries/lwip-1.4.0/core/tcp_in.c ****         tcp_pcb_remove(&tcp_active_pcbs, pcb);
 759              		.loc 1 334 0
 760 04b8 F969     		ldr	r1, [r7, #28]
 761 04ba 2848     		ldr	r0, .L55+44
 762 04bc FFF7FEFF 		bl	tcp_pcb_remove
 335:Libraries/lwip-1.4.0/core/tcp_in.c ****         memp_free(MEMP_TCP_PCB, pcb);
 763              		.loc 1 335 0
 764 04c0 F969     		ldr	r1, [r7, #28]
 765 04c2 0220     		movs	r0, #2
 766 04c4 FFF7FEFF 		bl	memp_free
 767 04c8 B1E0     		b	.L29
 768              	.L32:
 336:Libraries/lwip-1.4.0/core/tcp_in.c ****       } else {
 337:Libraries/lwip-1.4.0/core/tcp_in.c ****         err = ERR_OK;
 769              		.loc 1 337 0
 770 04ca 0023     		movs	r3, #0
 771 04cc 3B61     		str	r3, [r7, #16]
 338:Libraries/lwip-1.4.0/core/tcp_in.c ****         /* If the application has registered a "sent" function to be
 339:Libraries/lwip-1.4.0/core/tcp_in.c ****            called when new send buffer space is available, we call it
 340:Libraries/lwip-1.4.0/core/tcp_in.c ****            now. */
 341:Libraries/lwip-1.4.0/core/tcp_in.c ****         if (pcb->acked > 0) {
 772              		.loc 1 341 0
 773 04ce FB69     		ldr	r3, [r7, #28]
 774 04d0 B3F86C30 		ldrh	r3, [r3, #108]
 775 04d4 002B     		cmp	r3, #0
 776 04d6 17D0     		beq	.L33
 342:Libraries/lwip-1.4.0/core/tcp_in.c ****           TCP_EVENT_SENT(pcb, pcb->acked, err);
 777              		.loc 1 342 0
 778 04d8 FB69     		ldr	r3, [r7, #28]
 779 04da D3F88430 		ldr	r3, [r3, #132]
 780 04de 002B     		cmp	r3, #0
 781 04e0 0BD0     		beq	.L34
 782              		.loc 1 342 0 is_stmt 0 discriminator 1
 783 04e2 FB69     		ldr	r3, [r7, #28]
 784 04e4 D3F88430 		ldr	r3, [r3, #132]
 785 04e8 FA69     		ldr	r2, [r7, #28]
 786 04ea 5069     		ldr	r0, [r2, #20]
 787 04ec FA69     		ldr	r2, [r7, #28]
 788 04ee B2F86C20 		ldrh	r2, [r2, #108]
 789 04f2 F969     		ldr	r1, [r7, #28]
 790 04f4 9847     		blx	r3
 791 04f6 3861     		str	r0, [r7, #16]
 792 04f8 01E0     		b	.L35
 793              	.L34:
 794              		.loc 1 342 0 discriminator 2
 795 04fa 0023     		movs	r3, #0
 796 04fc 3B61     		str	r3, [r7, #16]
 797              	.L35:
 343:Libraries/lwip-1.4.0/core/tcp_in.c ****           if (err == ERR_ABRT) {
 798              		.loc 1 343 0 is_stmt 1
 799 04fe 3B69     		ldr	r3, [r7, #16]
 800 0500 13F10A0F 		cmn	r3, #10
 801 0504 00F08E80 		beq	.L50
 802              	.L33:
 344:Libraries/lwip-1.4.0/core/tcp_in.c ****             goto aborted;
 345:Libraries/lwip-1.4.0/core/tcp_in.c ****           }
 346:Libraries/lwip-1.4.0/core/tcp_in.c ****         }
 347:Libraries/lwip-1.4.0/core/tcp_in.c **** 
 348:Libraries/lwip-1.4.0/core/tcp_in.c ****         if (recv_data != NULL) {
 803              		.loc 1 348 0
 804 0508 0F4B     		ldr	r3, .L55+24
 805 050a 1B68     		ldr	r3, [r3]
 806 050c 002B     		cmp	r3, #0
 807 050e 5BD0     		beq	.L36
 349:Libraries/lwip-1.4.0/core/tcp_in.c ****           LWIP_ASSERT("pcb->refused_data == NULL", pcb->refused_data == NULL);
 350:Libraries/lwip-1.4.0/core/tcp_in.c ****           if (pcb->flags & TF_RXCLOSED) {
 808              		.loc 1 350 0
 809 0510 FB69     		ldr	r3, [r7, #28]
 810 0512 93F82030 		ldrb	r3, [r3, #32]	@ zero_extendqisi2
 811 0516 03F01003 		and	r3, r3, #16
 812 051a 002B     		cmp	r3, #0
 813 051c 20D0     		beq	.L37
 351:Libraries/lwip-1.4.0/core/tcp_in.c ****             /* received data although already closed -> abort (send RST) to
 352:Libraries/lwip-1.4.0/core/tcp_in.c ****                notify the remote host that not all data has been processed */
 353:Libraries/lwip-1.4.0/core/tcp_in.c ****             pbuf_free(recv_data);
 814              		.loc 1 353 0
 815 051e 0A4B     		ldr	r3, .L55+24
 816 0520 1B68     		ldr	r3, [r3]
 817 0522 1846     		mov	r0, r3
 818 0524 FFF7FEFF 		bl	pbuf_free
 354:Libraries/lwip-1.4.0/core/tcp_in.c ****             tcp_abort(pcb);
 819              		.loc 1 354 0
 820 0528 F869     		ldr	r0, [r7, #28]
 821 052a FFF7FEFF 		bl	tcp_abort
 355:Libraries/lwip-1.4.0/core/tcp_in.c ****             goto aborted;
 822              		.loc 1 355 0
 823 052e 7EE0     		b	.L29
 824              	.L56:
 825              		.align	2
 826              	.L55:
 827 0530 00000000 		.word	tcp_tw_pcbs
 828 0534 00000000 		.word	tcphdr
 829 0538 00000000 		.word	current_iphdr_src
 830 053c 00000000 		.word	current_iphdr_dest
 831 0540 00000000 		.word	tcp_listen_pcbs
 832 0544 00000000 		.word	inseg
 833 0548 00000000 		.word	recv_data
 834 054c 00000000 		.word	recv_flags
 835 0550 00000000 		.word	tcplen
 836 0554 00000000 		.word	lwip_stats
 837 0558 00000000 		.word	tcp_input_pcb
 838 055c 00000000 		.word	tcp_active_pcbs
 839              	.L37:
 356:Libraries/lwip-1.4.0/core/tcp_in.c ****           }
 357:Libraries/lwip-1.4.0/core/tcp_in.c ****           if (flags & TCP_PSH) {
 840              		.loc 1 357 0
 841 0560 584B     		ldr	r3, .L57
 842 0562 1B78     		ldrb	r3, [r3]	@ zero_extendqisi2
 843 0564 03F00803 		and	r3, r3, #8
 844 0568 002B     		cmp	r3, #0
 845 056a 08D0     		beq	.L38
 358:Libraries/lwip-1.4.0/core/tcp_in.c ****             recv_data->flags |= PBUF_FLAG_PUSH;
 846              		.loc 1 358 0
 847 056c 564B     		ldr	r3, .L57+4
 848 056e 1B68     		ldr	r3, [r3]
 849 0570 554A     		ldr	r2, .L57+4
 850 0572 1268     		ldr	r2, [r2]
 851 0574 527B     		ldrb	r2, [r2, #13]	@ zero_extendqisi2
 852 0576 42F00102 		orr	r2, r2, #1
 853 057a D2B2     		uxtb	r2, r2
 854 057c 5A73     		strb	r2, [r3, #13]
 855              	.L38:
 359:Libraries/lwip-1.4.0/core/tcp_in.c ****           }
 360:Libraries/lwip-1.4.0/core/tcp_in.c **** 
 361:Libraries/lwip-1.4.0/core/tcp_in.c ****           /* Notify application that data has been received. */
 362:Libraries/lwip-1.4.0/core/tcp_in.c ****           TCP_EVENT_RECV(pcb, recv_data, ERR_OK, err);
 856              		.loc 1 362 0
 857 057e FB69     		ldr	r3, [r7, #28]
 858 0580 D3F88830 		ldr	r3, [r3, #136]
 859 0584 002B     		cmp	r3, #0
 860 0586 0BD0     		beq	.L39
 861              		.loc 1 362 0 is_stmt 0 discriminator 1
 862 0588 FB69     		ldr	r3, [r7, #28]
 863 058a D3F88840 		ldr	r4, [r3, #136]
 864 058e FB69     		ldr	r3, [r7, #28]
 865 0590 5869     		ldr	r0, [r3, #20]
 866 0592 4D4B     		ldr	r3, .L57+4
 867 0594 1A68     		ldr	r2, [r3]
 868 0596 0023     		movs	r3, #0
 869 0598 F969     		ldr	r1, [r7, #28]
 870 059a A047     		blx	r4
 871 059c 3861     		str	r0, [r7, #16]
 872 059e 07E0     		b	.L40
 873              	.L39:
 874              		.loc 1 362 0 discriminator 2
 875 05a0 494B     		ldr	r3, .L57+4
 876 05a2 1A68     		ldr	r2, [r3]
 877 05a4 0023     		movs	r3, #0
 878 05a6 F969     		ldr	r1, [r7, #28]
 879 05a8 0020     		movs	r0, #0
 880 05aa FFF7FEFF 		bl	tcp_recv_null
 881 05ae 3861     		str	r0, [r7, #16]
 882              	.L40:
 363:Libraries/lwip-1.4.0/core/tcp_in.c ****           if (err == ERR_ABRT) {
 883              		.loc 1 363 0 is_stmt 1
 884 05b0 3B69     		ldr	r3, [r7, #16]
 885 05b2 13F10A0F 		cmn	r3, #10
 886 05b6 37D0     		beq	.L51
 364:Libraries/lwip-1.4.0/core/tcp_in.c ****             goto aborted;
 365:Libraries/lwip-1.4.0/core/tcp_in.c ****           }
 366:Libraries/lwip-1.4.0/core/tcp_in.c **** 
 367:Libraries/lwip-1.4.0/core/tcp_in.c ****           /* If the upper layer can't receive this data, store it */
 368:Libraries/lwip-1.4.0/core/tcp_in.c ****           if (err != ERR_OK) {
 887              		.loc 1 368 0
 888 05b8 3B69     		ldr	r3, [r7, #16]
 889 05ba 002B     		cmp	r3, #0
 890 05bc 04D0     		beq	.L36
 369:Libraries/lwip-1.4.0/core/tcp_in.c ****             pcb->refused_data = recv_data;
 891              		.loc 1 369 0
 892 05be 424B     		ldr	r3, .L57+4
 893 05c0 1A68     		ldr	r2, [r3]
 894 05c2 FB69     		ldr	r3, [r7, #28]
 895 05c4 C3F88020 		str	r2, [r3, #128]
 896              	.L36:
 370:Libraries/lwip-1.4.0/core/tcp_in.c ****             LWIP_DEBUGF(TCP_INPUT_DEBUG, ("tcp_input: keep incoming packet, because pcb is \"full\"
 371:Libraries/lwip-1.4.0/core/tcp_in.c ****           }
 372:Libraries/lwip-1.4.0/core/tcp_in.c ****         }
 373:Libraries/lwip-1.4.0/core/tcp_in.c **** 
 374:Libraries/lwip-1.4.0/core/tcp_in.c ****         /* If a FIN segment was received, we call the callback
 375:Libraries/lwip-1.4.0/core/tcp_in.c ****            function with a NULL buffer to indicate EOF. */
 376:Libraries/lwip-1.4.0/core/tcp_in.c ****         if (recv_flags & TF_GOT_FIN) {
 897              		.loc 1 376 0
 898 05c8 404B     		ldr	r3, .L57+8
 899 05ca 1B78     		ldrb	r3, [r3]	@ zero_extendqisi2
 900 05cc 03F02003 		and	r3, r3, #32
 901 05d0 002B     		cmp	r3, #0
 902 05d2 20D0     		beq	.L42
 377:Libraries/lwip-1.4.0/core/tcp_in.c ****           /* correct rcv_wnd as the application won't call tcp_recved()
 378:Libraries/lwip-1.4.0/core/tcp_in.c ****              for the FIN's seqno */
 379:Libraries/lwip-1.4.0/core/tcp_in.c ****           if (pcb->rcv_wnd != TCP_WND) {
 903              		.loc 1 379 0
 904 05d4 FB69     		ldr	r3, [r7, #28]
 905 05d6 1B8D     		ldrh	r3, [r3, #40]
 906 05d8 B3F5066F 		cmp	r3, #2144
 907 05dc 05D0     		beq	.L43
 380:Libraries/lwip-1.4.0/core/tcp_in.c ****             pcb->rcv_wnd++;
 908              		.loc 1 380 0
 909 05de FB69     		ldr	r3, [r7, #28]
 910 05e0 1B8D     		ldrh	r3, [r3, #40]
 911 05e2 0133     		adds	r3, r3, #1
 912 05e4 9AB2     		uxth	r2, r3
 913 05e6 FB69     		ldr	r3, [r7, #28]
 914 05e8 1A85     		strh	r2, [r3, #40]	@ movhi
 915              	.L43:
 381:Libraries/lwip-1.4.0/core/tcp_in.c ****           }
 382:Libraries/lwip-1.4.0/core/tcp_in.c ****           TCP_EVENT_CLOSED(pcb, err);
 916              		.loc 1 382 0
 917 05ea FB69     		ldr	r3, [r7, #28]
 918 05ec D3F88830 		ldr	r3, [r3, #136]
 919 05f0 002B     		cmp	r3, #0
 920 05f2 0AD0     		beq	.L44
 921              		.loc 1 382 0 is_stmt 0 discriminator 1
 922 05f4 FB69     		ldr	r3, [r7, #28]
 923 05f6 D3F88840 		ldr	r4, [r3, #136]
 924 05fa FB69     		ldr	r3, [r7, #28]
 925 05fc 5869     		ldr	r0, [r3, #20]
 926 05fe 0023     		movs	r3, #0
 927 0600 0022     		movs	r2, #0
 928 0602 F969     		ldr	r1, [r7, #28]
 929 0604 A047     		blx	r4
 930 0606 3861     		str	r0, [r7, #16]
 931 0608 01E0     		b	.L45
 932              	.L44:
 933              		.loc 1 382 0 discriminator 2
 934 060a 0023     		movs	r3, #0
 935 060c 3B61     		str	r3, [r7, #16]
 936              	.L45:
 383:Libraries/lwip-1.4.0/core/tcp_in.c ****           if (err == ERR_ABRT) {
 937              		.loc 1 383 0 is_stmt 1
 938 060e 3B69     		ldr	r3, [r7, #16]
 939 0610 13F10A0F 		cmn	r3, #10
 940 0614 0AD0     		beq	.L52
 941              	.L42:
 384:Libraries/lwip-1.4.0/core/tcp_in.c ****             goto aborted;
 385:Libraries/lwip-1.4.0/core/tcp_in.c ****           }
 386:Libraries/lwip-1.4.0/core/tcp_in.c ****         }
 387:Libraries/lwip-1.4.0/core/tcp_in.c **** 
 388:Libraries/lwip-1.4.0/core/tcp_in.c ****         tcp_input_pcb = NULL;
 942              		.loc 1 388 0
 943 0616 2E4B     		ldr	r3, .L57+12
 944 0618 0022     		movs	r2, #0
 945 061a 1A60     		str	r2, [r3]
 389:Libraries/lwip-1.4.0/core/tcp_in.c ****         tcp_output(pcb);//here!
 946              		.loc 1 389 0
 947 061c F869     		ldr	r0, [r7, #28]
 948 061e FFF7FEFF 		bl	tcp_output
 949 0622 04E0     		b	.L29
 950              	.L50:
 344:Libraries/lwip-1.4.0/core/tcp_in.c ****           }
 951              		.loc 1 344 0
 952 0624 00BF     		nop
 953 0626 02E0     		b	.L29
 954              	.L51:
 364:Libraries/lwip-1.4.0/core/tcp_in.c ****           }
 955              		.loc 1 364 0
 956 0628 00BF     		nop
 957 062a 00E0     		b	.L29
 958              	.L52:
 384:Libraries/lwip-1.4.0/core/tcp_in.c ****           }
 959              		.loc 1 384 0
 960 062c 00BF     		nop
 961              	.L29:
 390:Libraries/lwip-1.4.0/core/tcp_in.c **** 
 391:Libraries/lwip-1.4.0/core/tcp_in.c **** #if TCP_INPUT_DEBUG
 392:Libraries/lwip-1.4.0/core/tcp_in.c **** #if TCP_DEBUG
 393:Libraries/lwip-1.4.0/core/tcp_in.c ****         tcp_debug_print_state(pcb->state);
 394:Libraries/lwip-1.4.0/core/tcp_in.c **** #endif /* TCP_DEBUG */
 395:Libraries/lwip-1.4.0/core/tcp_in.c **** #endif /* TCP_INPUT_DEBUG */
 396:Libraries/lwip-1.4.0/core/tcp_in.c ****       }
 397:Libraries/lwip-1.4.0/core/tcp_in.c ****     }
 398:Libraries/lwip-1.4.0/core/tcp_in.c ****     /* Jump target if pcb has been aborted in a callback (by calling tcp_abort()).
 399:Libraries/lwip-1.4.0/core/tcp_in.c ****        Below this line, 'pcb' may not be dereferenced! */
 400:Libraries/lwip-1.4.0/core/tcp_in.c **** aborted:
 401:Libraries/lwip-1.4.0/core/tcp_in.c ****   	tcp_input_pcb = NULL;
 962              		.loc 1 401 0
 963 062e 284B     		ldr	r3, .L57+12
 964 0630 0022     		movs	r2, #0
 965 0632 1A60     		str	r2, [r3]
 402:Libraries/lwip-1.4.0/core/tcp_in.c ****     recv_data = NULL;
 966              		.loc 1 402 0
 967 0634 244B     		ldr	r3, .L57+4
 968 0636 0022     		movs	r2, #0
 969 0638 1A60     		str	r2, [r3]
 403:Libraries/lwip-1.4.0/core/tcp_in.c **** 
 404:Libraries/lwip-1.4.0/core/tcp_in.c ****     /* give up our reference to inseg.p */
 405:Libraries/lwip-1.4.0/core/tcp_in.c ****     if (inseg.p != NULL)
 970              		.loc 1 405 0
 971 063a 264B     		ldr	r3, .L57+16
 972 063c 5B68     		ldr	r3, [r3, #4]
 973 063e 002B     		cmp	r3, #0
 974 0640 3DD0     		beq	.L1
 406:Libraries/lwip-1.4.0/core/tcp_in.c ****     {
 407:Libraries/lwip-1.4.0/core/tcp_in.c ****       pbuf_free(inseg.p);
 975              		.loc 1 407 0
 976 0642 244B     		ldr	r3, .L57+16
 977 0644 5B68     		ldr	r3, [r3, #4]
 978 0646 1846     		mov	r0, r3
 979 0648 FFF7FEFF 		bl	pbuf_free
 408:Libraries/lwip-1.4.0/core/tcp_in.c ****       inseg.p = NULL;
 980              		.loc 1 408 0
 981 064c 214B     		ldr	r3, .L57+16
 982 064e 0022     		movs	r2, #0
 983 0650 5A60     		str	r2, [r3, #4]
 984 0652 34E0     		b	.L1
 985              	.L23:
 409:Libraries/lwip-1.4.0/core/tcp_in.c ****     }
 410:Libraries/lwip-1.4.0/core/tcp_in.c ****   } else {
 411:Libraries/lwip-1.4.0/core/tcp_in.c **** 
 412:Libraries/lwip-1.4.0/core/tcp_in.c ****     /* If no matching PCB was found, send a TCP RST (reset) to the
 413:Libraries/lwip-1.4.0/core/tcp_in.c ****        sender. */
 414:Libraries/lwip-1.4.0/core/tcp_in.c ****     LWIP_DEBUGF(TCP_RST_DEBUG, ("tcp_input: no PCB match found, resetting.\n"));
 415:Libraries/lwip-1.4.0/core/tcp_in.c ****     if (!(TCPH_FLAGS(tcphdr) & TCP_RST)) {
 986              		.loc 1 415 0
 987 0654 204B     		ldr	r3, .L57+20
 988 0656 1B68     		ldr	r3, [r3]
 989 0658 9B89     		ldrh	r3, [r3, #12]	@ unaligned
 990 065a 9BB2     		uxth	r3, r3
 991 065c 1846     		mov	r0, r3
 992 065e FFF7FEFF 		bl	lwip_ntohs
 993 0662 0346     		mov	r3, r0
 994 0664 03F00403 		and	r3, r3, #4
 995 0668 002B     		cmp	r3, #0
 996 066a 25D1     		bne	.L48
 416:Libraries/lwip-1.4.0/core/tcp_in.c ****       TCP_STATS_INC(tcp.proterr);
 997              		.loc 1 416 0
 998 066c 1B4B     		ldr	r3, .L57+24
 999 066e B3F8A030 		ldrh	r3, [r3, #160]
 1000 0672 0133     		adds	r3, r3, #1
 1001 0674 9AB2     		uxth	r2, r3
 1002 0676 194B     		ldr	r3, .L57+24
 1003 0678 A3F8A020 		strh	r2, [r3, #160]	@ movhi
 417:Libraries/lwip-1.4.0/core/tcp_in.c ****       TCP_STATS_INC(tcp.drop);
 1004              		.loc 1 417 0
 1005 067c 174B     		ldr	r3, .L57+24
 1006 067e B3F89630 		ldrh	r3, [r3, #150]
 1007 0682 0133     		adds	r3, r3, #1
 1008 0684 9AB2     		uxth	r2, r3
 1009 0686 154B     		ldr	r3, .L57+24
 1010 0688 A3F89620 		strh	r2, [r3, #150]	@ movhi
 418:Libraries/lwip-1.4.0/core/tcp_in.c ****       tcp_rst(ackno, seqno + tcplen,
 1011              		.loc 1 418 0
 1012 068c 144B     		ldr	r3, .L57+28
 1013 068e 1868     		ldr	r0, [r3]
 1014 0690 144B     		ldr	r3, .L57+32
 1015 0692 1B88     		ldrh	r3, [r3]
 1016 0694 1A46     		mov	r2, r3
 1017 0696 144B     		ldr	r3, .L57+36
 1018 0698 1B68     		ldr	r3, [r3]
 1019 069a D118     		adds	r1, r2, r3
 419:Libraries/lwip-1.4.0/core/tcp_in.c ****         ip_current_dest_addr(), ip_current_src_addr(),
 420:Libraries/lwip-1.4.0/core/tcp_in.c ****         tcphdr->dest, tcphdr->src);
 1020              		.loc 1 420 0
 1021 069c 0E4B     		ldr	r3, .L57+20
 1022 069e 1B68     		ldr	r3, [r3]
 418:Libraries/lwip-1.4.0/core/tcp_in.c ****       tcp_rst(ackno, seqno + tcplen,
 1023              		.loc 1 418 0
 1024 06a0 5B88     		ldrh	r3, [r3, #2]	@ unaligned
 1025 06a2 9BB2     		uxth	r3, r3
 1026              		.loc 1 420 0
 1027 06a4 0C4A     		ldr	r2, .L57+20
 1028 06a6 1268     		ldr	r2, [r2]
 418:Libraries/lwip-1.4.0/core/tcp_in.c ****       tcp_rst(ackno, seqno + tcplen,
 1029              		.loc 1 418 0
 1030 06a8 1288     		ldrh	r2, [r2]	@ unaligned
 1031 06aa 92B2     		uxth	r2, r2
 1032 06ac 0192     		str	r2, [sp, #4]
 1033 06ae 0093     		str	r3, [sp]
 1034 06b0 0E4B     		ldr	r3, .L57+40
 1035 06b2 0F4A     		ldr	r2, .L57+44
 1036 06b4 FFF7FEFF 		bl	tcp_rst
 1037              	.L48:
 421:Libraries/lwip-1.4.0/core/tcp_in.c ****     }
 422:Libraries/lwip-1.4.0/core/tcp_in.c ****     pbuf_free(p);
 1038              		.loc 1 422 0
 1039 06b8 7868     		ldr	r0, [r7, #4]
 1040 06ba FFF7FEFF 		bl	pbuf_free
 1041              	.L1:
 423:Libraries/lwip-1.4.0/core/tcp_in.c ****   }
 424:Libraries/lwip-1.4.0/core/tcp_in.c **** 
 425:Libraries/lwip-1.4.0/core/tcp_in.c ****   LWIP_ASSERT("tcp_input: tcp_pcbs_sane()", tcp_pcbs_sane());
 426:Libraries/lwip-1.4.0/core/tcp_in.c ****   PERF_STOP("tcp_input");
 427:Libraries/lwip-1.4.0/core/tcp_in.c **** }
 1042              		.loc 1 427 0
 1043 06be 2437     		adds	r7, r7, #36
 1044              		.cfi_def_cfa_offset 12
 1045 06c0 BD46     		mov	sp, r7
 1046              		.cfi_def_cfa_register 13
 1047              		@ sp needed
 1048 06c2 90BD     		pop	{r4, r7, pc}
 1049              	.L58:
 1050              		.align	2
 1051              	.L57:
 1052 06c4 00000000 		.word	flags
 1053 06c8 00000000 		.word	recv_data
 1054 06cc 00000000 		.word	recv_flags
 1055 06d0 00000000 		.word	tcp_input_pcb
 1056 06d4 00000000 		.word	inseg
 1057 06d8 00000000 		.word	tcphdr
 1058 06dc 00000000 		.word	lwip_stats
 1059 06e0 00000000 		.word	ackno
 1060 06e4 00000000 		.word	tcplen
 1061 06e8 00000000 		.word	seqno
 1062 06ec 00000000 		.word	current_iphdr_src
 1063 06f0 00000000 		.word	current_iphdr_dest
 1064              		.cfi_endproc
 1065              	.LFE17:
 1067              		.section	.text.tcp_listen_input,"ax",%progbits
 1068              		.align	2
 1069              		.thumb
 1070              		.thumb_func
 1072              	tcp_listen_input:
 1073              	.LFB18:
 428:Libraries/lwip-1.4.0/core/tcp_in.c **** 
 429:Libraries/lwip-1.4.0/core/tcp_in.c **** /**
 430:Libraries/lwip-1.4.0/core/tcp_in.c ****  * Called by tcp_input() when a segment arrives for a listening
 431:Libraries/lwip-1.4.0/core/tcp_in.c ****  * connection (from tcp_input()).
 432:Libraries/lwip-1.4.0/core/tcp_in.c ****  *
 433:Libraries/lwip-1.4.0/core/tcp_in.c ****  * @param pcb the tcp_pcb_listen for which a segment arrived
 434:Libraries/lwip-1.4.0/core/tcp_in.c ****  * @return ERR_OK if the segment was processed
 435:Libraries/lwip-1.4.0/core/tcp_in.c ****  *         another err_t on error
 436:Libraries/lwip-1.4.0/core/tcp_in.c ****  *
 437:Libraries/lwip-1.4.0/core/tcp_in.c ****  * @note the return value is not (yet?) used in tcp_input()
 438:Libraries/lwip-1.4.0/core/tcp_in.c ****  * @note the segment which arrived is saved in global variables, therefore only the pcb
 439:Libraries/lwip-1.4.0/core/tcp_in.c ****  *       involved is passed as a parameter to this function
 440:Libraries/lwip-1.4.0/core/tcp_in.c ****  */
 441:Libraries/lwip-1.4.0/core/tcp_in.c **** static err_t
 442:Libraries/lwip-1.4.0/core/tcp_in.c **** tcp_listen_input(struct tcp_pcb_listen *pcb)
 443:Libraries/lwip-1.4.0/core/tcp_in.c **** {
 1074              		.loc 1 443 0
 1075              		.cfi_startproc
 1076              		@ args = 0, pretend = 0, frame = 16
 1077              		@ frame_needed = 1, uses_anonymous_args = 0
 1078 0000 80B5     		push	{r7, lr}
 1079              		.cfi_def_cfa_offset 8
 1080              		.cfi_offset 7, -8
 1081              		.cfi_offset 14, -4
 1082 0002 86B0     		sub	sp, sp, #24
 1083              		.cfi_def_cfa_offset 32
 1084 0004 02AF     		add	r7, sp, #8
 1085              		.cfi_def_cfa 7, 24
 1086 0006 7860     		str	r0, [r7, #4]
 444:Libraries/lwip-1.4.0/core/tcp_in.c ****   struct tcp_pcb *npcb;
 445:Libraries/lwip-1.4.0/core/tcp_in.c ****   err_t rc;
 446:Libraries/lwip-1.4.0/core/tcp_in.c **** 
 447:Libraries/lwip-1.4.0/core/tcp_in.c ****   /* In the LISTEN state, we check for incoming SYN segments,
 448:Libraries/lwip-1.4.0/core/tcp_in.c ****      creates a new PCB, and responds with a SYN|ACK. */
 449:Libraries/lwip-1.4.0/core/tcp_in.c ****   if (flags & TCP_ACK) {
 1087              		.loc 1 449 0
 1088 0008 534B     		ldr	r3, .L65
 1089 000a 1B78     		ldrb	r3, [r3]	@ zero_extendqisi2
 1090 000c 03F01003 		and	r3, r3, #16
 1091 0010 002B     		cmp	r3, #0
 1092 0012 17D0     		beq	.L60
 450:Libraries/lwip-1.4.0/core/tcp_in.c ****     /* For incoming segments with the ACK flag set, respond with a
 451:Libraries/lwip-1.4.0/core/tcp_in.c ****        RST. */
 452:Libraries/lwip-1.4.0/core/tcp_in.c ****     LWIP_DEBUGF(TCP_RST_DEBUG, ("tcp_listen_input: ACK in LISTEN, sending reset\n"));
 453:Libraries/lwip-1.4.0/core/tcp_in.c ****     tcp_rst(ackno + 1, seqno + tcplen,
 1093              		.loc 1 453 0
 1094 0014 514B     		ldr	r3, .L65+4
 1095 0016 1B68     		ldr	r3, [r3]
 1096 0018 581C     		adds	r0, r3, #1
 1097 001a 514B     		ldr	r3, .L65+8
 1098 001c 1B88     		ldrh	r3, [r3]
 1099 001e 1A46     		mov	r2, r3
 1100 0020 504B     		ldr	r3, .L65+12
 1101 0022 1B68     		ldr	r3, [r3]
 1102 0024 D118     		adds	r1, r2, r3
 454:Libraries/lwip-1.4.0/core/tcp_in.c ****       ip_current_dest_addr(), ip_current_src_addr(),
 455:Libraries/lwip-1.4.0/core/tcp_in.c ****       tcphdr->dest, tcphdr->src);
 1103              		.loc 1 455 0
 1104 0026 504B     		ldr	r3, .L65+16
 1105 0028 1B68     		ldr	r3, [r3]
 453:Libraries/lwip-1.4.0/core/tcp_in.c ****       ip_current_dest_addr(), ip_current_src_addr(),
 1106              		.loc 1 453 0
 1107 002a 5B88     		ldrh	r3, [r3, #2]	@ unaligned
 1108 002c 9BB2     		uxth	r3, r3
 1109              		.loc 1 455 0
 1110 002e 4E4A     		ldr	r2, .L65+16
 1111 0030 1268     		ldr	r2, [r2]
 453:Libraries/lwip-1.4.0/core/tcp_in.c ****       ip_current_dest_addr(), ip_current_src_addr(),
 1112              		.loc 1 453 0
 1113 0032 1288     		ldrh	r2, [r2]	@ unaligned
 1114 0034 92B2     		uxth	r2, r2
 1115 0036 0192     		str	r2, [sp, #4]
 1116 0038 0093     		str	r3, [sp]
 1117 003a 4C4B     		ldr	r3, .L65+20
 1118 003c 4C4A     		ldr	r2, .L65+24
 1119 003e FFF7FEFF 		bl	tcp_rst
 1120 0042 83E0     		b	.L61
 1121              	.L60:
 456:Libraries/lwip-1.4.0/core/tcp_in.c ****   } else if (flags & TCP_SYN) {
 1122              		.loc 1 456 0
 1123 0044 444B     		ldr	r3, .L65
 1124 0046 1B78     		ldrb	r3, [r3]	@ zero_extendqisi2
 1125 0048 03F00203 		and	r3, r3, #2
 1126 004c 002B     		cmp	r3, #0
 1127 004e 7DD0     		beq	.L61
 457:Libraries/lwip-1.4.0/core/tcp_in.c ****     LWIP_DEBUGF(TCP_DEBUG, ("TCP connection request %"U16_F" -> %"U16_F".\n", tcphdr->src, tcphdr->
 458:Libraries/lwip-1.4.0/core/tcp_in.c **** #if TCP_LISTEN_BACKLOG
 459:Libraries/lwip-1.4.0/core/tcp_in.c ****     if (pcb->accepts_pending >= pcb->backlog) {
 460:Libraries/lwip-1.4.0/core/tcp_in.c ****       LWIP_DEBUGF(TCP_DEBUG, ("tcp_listen_input: listen backlog exceeded for port %"U16_F"\n", tcph
 461:Libraries/lwip-1.4.0/core/tcp_in.c ****       return ERR_ABRT;
 462:Libraries/lwip-1.4.0/core/tcp_in.c ****     }
 463:Libraries/lwip-1.4.0/core/tcp_in.c **** #endif /* TCP_LISTEN_BACKLOG */
 464:Libraries/lwip-1.4.0/core/tcp_in.c ****     npcb = tcp_alloc(pcb->prio);
 1128              		.loc 1 464 0
 1129 0050 7B68     		ldr	r3, [r7, #4]
 1130 0052 5B7C     		ldrb	r3, [r3, #17]	@ zero_extendqisi2
 1131 0054 1846     		mov	r0, r3
 1132 0056 FFF7FEFF 		bl	tcp_alloc
 1133 005a F860     		str	r0, [r7, #12]
 465:Libraries/lwip-1.4.0/core/tcp_in.c ****     /* If a new PCB could not be created (probably due to lack of memory),
 466:Libraries/lwip-1.4.0/core/tcp_in.c ****        we don't do anything, but rely on the sender will retransmit the
 467:Libraries/lwip-1.4.0/core/tcp_in.c ****        SYN at a time when we have more memory available. */
 468:Libraries/lwip-1.4.0/core/tcp_in.c ****     if (npcb == NULL) {
 1134              		.loc 1 468 0
 1135 005c FB68     		ldr	r3, [r7, #12]
 1136 005e 002B     		cmp	r3, #0
 1137 0060 0AD1     		bne	.L62
 469:Libraries/lwip-1.4.0/core/tcp_in.c ****       LWIP_DEBUGF(TCP_DEBUG, ("tcp_listen_input: could not allocate PCB\n"));
 470:Libraries/lwip-1.4.0/core/tcp_in.c ****       TCP_STATS_INC(tcp.memerr);
 1138              		.loc 1 470 0
 1139 0062 444B     		ldr	r3, .L65+28
 1140 0064 B3F89C30 		ldrh	r3, [r3, #156]
 1141 0068 0133     		adds	r3, r3, #1
 1142 006a 9AB2     		uxth	r2, r3
 1143 006c 414B     		ldr	r3, .L65+28
 1144 006e A3F89C20 		strh	r2, [r3, #156]	@ movhi
 471:Libraries/lwip-1.4.0/core/tcp_in.c ****       return ERR_MEM;
 1145              		.loc 1 471 0
 1146 0072 4FF0FF33 		mov	r3, #-1
 1147 0076 6AE0     		b	.L63
 1148              	.L62:
 472:Libraries/lwip-1.4.0/core/tcp_in.c ****     }
 473:Libraries/lwip-1.4.0/core/tcp_in.c **** #if TCP_LISTEN_BACKLOG
 474:Libraries/lwip-1.4.0/core/tcp_in.c ****     pcb->accepts_pending++;
 475:Libraries/lwip-1.4.0/core/tcp_in.c **** #endif /* TCP_LISTEN_BACKLOG */
 476:Libraries/lwip-1.4.0/core/tcp_in.c ****     /* Set up the new PCB. */
 477:Libraries/lwip-1.4.0/core/tcp_in.c ****     ip_addr_copy(npcb->local_ip, current_iphdr_dest);
 1149              		.loc 1 477 0
 1150 0078 3D4B     		ldr	r3, .L65+24
 1151 007a 1A68     		ldr	r2, [r3]
 1152 007c FB68     		ldr	r3, [r7, #12]
 1153 007e 1A60     		str	r2, [r3]
 478:Libraries/lwip-1.4.0/core/tcp_in.c ****     npcb->local_port = pcb->local_port;
 1154              		.loc 1 478 0
 1155 0080 7B68     		ldr	r3, [r7, #4]
 1156 0082 9A8B     		ldrh	r2, [r3, #28]
 1157 0084 FB68     		ldr	r3, [r7, #12]
 1158 0086 9A83     		strh	r2, [r3, #28]	@ movhi
 479:Libraries/lwip-1.4.0/core/tcp_in.c ****     ip_addr_copy(npcb->remote_ip, current_iphdr_src);
 1159              		.loc 1 479 0
 1160 0088 384B     		ldr	r3, .L65+20
 1161 008a 1A68     		ldr	r2, [r3]
 1162 008c FB68     		ldr	r3, [r7, #12]
 1163 008e 5A60     		str	r2, [r3, #4]
 480:Libraries/lwip-1.4.0/core/tcp_in.c ****     npcb->remote_port = tcphdr->src;
 1164              		.loc 1 480 0
 1165 0090 354B     		ldr	r3, .L65+16
 1166 0092 1B68     		ldr	r3, [r3]
 1167 0094 1B88     		ldrh	r3, [r3]	@ unaligned
 1168 0096 9AB2     		uxth	r2, r3
 1169 0098 FB68     		ldr	r3, [r7, #12]
 1170 009a DA83     		strh	r2, [r3, #30]	@ movhi
 481:Libraries/lwip-1.4.0/core/tcp_in.c ****     npcb->state = SYN_RCVD;
 1171              		.loc 1 481 0
 1172 009c FB68     		ldr	r3, [r7, #12]
 1173 009e 0322     		movs	r2, #3
 1174 00a0 1A74     		strb	r2, [r3, #16]
 482:Libraries/lwip-1.4.0/core/tcp_in.c ****     npcb->rcv_nxt = seqno + 1;
 1175              		.loc 1 482 0
 1176 00a2 304B     		ldr	r3, .L65+12
 1177 00a4 1B68     		ldr	r3, [r3]
 1178 00a6 5A1C     		adds	r2, r3, #1
 1179 00a8 FB68     		ldr	r3, [r7, #12]
 1180 00aa 5A62     		str	r2, [r3, #36]
 483:Libraries/lwip-1.4.0/core/tcp_in.c ****     npcb->rcv_ann_right_edge = npcb->rcv_nxt;
 1181              		.loc 1 483 0
 1182 00ac FB68     		ldr	r3, [r7, #12]
 1183 00ae 5A6A     		ldr	r2, [r3, #36]
 1184 00b0 FB68     		ldr	r3, [r7, #12]
 1185 00b2 DA62     		str	r2, [r3, #44]
 484:Libraries/lwip-1.4.0/core/tcp_in.c ****     npcb->snd_wnd = tcphdr->wnd;
 1186              		.loc 1 484 0
 1187 00b4 2C4B     		ldr	r3, .L65+16
 1188 00b6 1B68     		ldr	r3, [r3]
 1189 00b8 DB89     		ldrh	r3, [r3, #14]	@ unaligned
 1190 00ba 9AB2     		uxth	r2, r3
 1191 00bc FB68     		ldr	r3, [r7, #12]
 1192 00be A3F85C20 		strh	r2, [r3, #92]	@ movhi
 485:Libraries/lwip-1.4.0/core/tcp_in.c ****     npcb->ssthresh = npcb->snd_wnd;
 1193              		.loc 1 485 0
 1194 00c2 FB68     		ldr	r3, [r7, #12]
 1195 00c4 B3F85C20 		ldrh	r2, [r3, #92]
 1196 00c8 FB68     		ldr	r3, [r7, #12]
 1197 00ca A3F85420 		strh	r2, [r3, #84]	@ movhi
 486:Libraries/lwip-1.4.0/core/tcp_in.c ****     npcb->snd_wl1 = seqno - 1;/* initialise to seqno-1 to force window update */
 1198              		.loc 1 486 0
 1199 00ce 254B     		ldr	r3, .L65+12
 1200 00d0 1B68     		ldr	r3, [r3]
 1201 00d2 5A1E     		subs	r2, r3, #1
 1202 00d4 FB68     		ldr	r3, [r7, #12]
 1203 00d6 1A66     		str	r2, [r3, #96]
 487:Libraries/lwip-1.4.0/core/tcp_in.c ****     npcb->callback_arg = pcb->callback_arg;
 1204              		.loc 1 487 0
 1205 00d8 7B68     		ldr	r3, [r7, #4]
 1206 00da 5A69     		ldr	r2, [r3, #20]
 1207 00dc FB68     		ldr	r3, [r7, #12]
 1208 00de 5A61     		str	r2, [r3, #20]
 488:Libraries/lwip-1.4.0/core/tcp_in.c **** #if LWIP_CALLBACK_API
 489:Libraries/lwip-1.4.0/core/tcp_in.c ****     npcb->accept = pcb->accept;
 1209              		.loc 1 489 0
 1210 00e0 7B68     		ldr	r3, [r7, #4]
 1211 00e2 9A69     		ldr	r2, [r3, #24]
 1212 00e4 FB68     		ldr	r3, [r7, #12]
 1213 00e6 9A61     		str	r2, [r3, #24]
 490:Libraries/lwip-1.4.0/core/tcp_in.c **** #endif /* LWIP_CALLBACK_API */
 491:Libraries/lwip-1.4.0/core/tcp_in.c ****     /* inherit socket options */
 492:Libraries/lwip-1.4.0/core/tcp_in.c ****     npcb->so_options = pcb->so_options & SOF_INHERITED;
 1214              		.loc 1 492 0
 1215 00e8 7B68     		ldr	r3, [r7, #4]
 1216 00ea 1B7A     		ldrb	r3, [r3, #8]	@ zero_extendqisi2
 1217 00ec 23F07303 		bic	r3, r3, #115
 1218 00f0 DAB2     		uxtb	r2, r3
 1219 00f2 FB68     		ldr	r3, [r7, #12]
 1220 00f4 1A72     		strb	r2, [r3, #8]
 493:Libraries/lwip-1.4.0/core/tcp_in.c ****     /* Register the new PCB so that we can begin receiving segments
 494:Libraries/lwip-1.4.0/core/tcp_in.c ****        for it. */
 495:Libraries/lwip-1.4.0/core/tcp_in.c ****     TCP_REG(&tcp_active_pcbs, npcb);
 1221              		.loc 1 495 0
 1222 00f6 204B     		ldr	r3, .L65+32
 1223 00f8 1A68     		ldr	r2, [r3]
 1224 00fa FB68     		ldr	r3, [r7, #12]
 1225 00fc DA60     		str	r2, [r3, #12]
 1226 00fe 1E4A     		ldr	r2, .L65+32
 1227 0100 FB68     		ldr	r3, [r7, #12]
 1228 0102 1360     		str	r3, [r2]
 1229 0104 FFF7FEFF 		bl	tcp_timer_needed
 496:Libraries/lwip-1.4.0/core/tcp_in.c **** 
 497:Libraries/lwip-1.4.0/core/tcp_in.c ****     /* Parse any options in the SYN. */
 498:Libraries/lwip-1.4.0/core/tcp_in.c ****     tcp_parseopt(npcb);
 1230              		.loc 1 498 0
 1231 0108 F868     		ldr	r0, [r7, #12]
 1232 010a FFF7FEFF 		bl	tcp_parseopt
 499:Libraries/lwip-1.4.0/core/tcp_in.c **** #if TCP_CALCULATE_EFF_SEND_MSS
 500:Libraries/lwip-1.4.0/core/tcp_in.c ****     npcb->mss = tcp_eff_send_mss(npcb->mss, &(npcb->remote_ip));
 1233              		.loc 1 500 0
 1234 010e FB68     		ldr	r3, [r7, #12]
 1235 0110 1A8F     		ldrh	r2, [r3, #56]
 1236 0112 FB68     		ldr	r3, [r7, #12]
 1237 0114 0433     		adds	r3, r3, #4
 1238 0116 1946     		mov	r1, r3
 1239 0118 1046     		mov	r0, r2
 1240 011a FFF7FEFF 		bl	tcp_eff_send_mss
 1241 011e 0346     		mov	r3, r0
 1242 0120 1A46     		mov	r2, r3
 1243 0122 FB68     		ldr	r3, [r7, #12]
 1244 0124 1A87     		strh	r2, [r3, #56]	@ movhi
 501:Libraries/lwip-1.4.0/core/tcp_in.c **** #endif /* TCP_CALCULATE_EFF_SEND_MSS */
 502:Libraries/lwip-1.4.0/core/tcp_in.c **** 
 503:Libraries/lwip-1.4.0/core/tcp_in.c ****     snmp_inc_tcppassiveopens();
 504:Libraries/lwip-1.4.0/core/tcp_in.c **** 
 505:Libraries/lwip-1.4.0/core/tcp_in.c ****     /* Send a SYN|ACK together with the MSS option. */
 506:Libraries/lwip-1.4.0/core/tcp_in.c ****     rc = tcp_enqueue_flags(npcb, TCP_SYN | TCP_ACK);
 1245              		.loc 1 506 0
 1246 0126 1221     		movs	r1, #18
 1247 0128 F868     		ldr	r0, [r7, #12]
 1248 012a FFF7FEFF 		bl	tcp_enqueue_flags
 1249 012e B860     		str	r0, [r7, #8]
 507:Libraries/lwip-1.4.0/core/tcp_in.c ****     if (rc != ERR_OK) {
 1250              		.loc 1 507 0
 1251 0130 BB68     		ldr	r3, [r7, #8]
 1252 0132 002B     		cmp	r3, #0
 1253 0134 05D0     		beq	.L64
 508:Libraries/lwip-1.4.0/core/tcp_in.c ****       tcp_abandon(npcb, 0);
 1254              		.loc 1 508 0
 1255 0136 0021     		movs	r1, #0
 1256 0138 F868     		ldr	r0, [r7, #12]
 1257 013a FFF7FEFF 		bl	tcp_abandon
 509:Libraries/lwip-1.4.0/core/tcp_in.c ****       return rc;
 1258              		.loc 1 509 0
 1259 013e BB68     		ldr	r3, [r7, #8]
 1260 0140 05E0     		b	.L63
 1261              	.L64:
 510:Libraries/lwip-1.4.0/core/tcp_in.c ****     }
 511:Libraries/lwip-1.4.0/core/tcp_in.c ****     return tcp_output(npcb);
 1262              		.loc 1 511 0
 1263 0142 F868     		ldr	r0, [r7, #12]
 1264 0144 FFF7FEFF 		bl	tcp_output
 1265 0148 0346     		mov	r3, r0
 1266 014a 00E0     		b	.L63
 1267              	.L61:
 512:Libraries/lwip-1.4.0/core/tcp_in.c ****   }
 513:Libraries/lwip-1.4.0/core/tcp_in.c ****   return ERR_OK;
 1268              		.loc 1 513 0
 1269 014c 0023     		movs	r3, #0
 1270              	.L63:
 514:Libraries/lwip-1.4.0/core/tcp_in.c **** }
 1271              		.loc 1 514 0
 1272 014e 1846     		mov	r0, r3
 1273 0150 1037     		adds	r7, r7, #16
 1274              		.cfi_def_cfa_offset 8
 1275 0152 BD46     		mov	sp, r7
 1276              		.cfi_def_cfa_register 13
 1277              		@ sp needed
 1278 0154 80BD     		pop	{r7, pc}
 1279              	.L66:
 1280 0156 00BF     		.align	2
 1281              	.L65:
 1282 0158 00000000 		.word	flags
 1283 015c 00000000 		.word	ackno
 1284 0160 00000000 		.word	tcplen
 1285 0164 00000000 		.word	seqno
 1286 0168 00000000 		.word	tcphdr
 1287 016c 00000000 		.word	current_iphdr_src
 1288 0170 00000000 		.word	current_iphdr_dest
 1289 0174 00000000 		.word	lwip_stats
 1290 0178 00000000 		.word	tcp_active_pcbs
 1291              		.cfi_endproc
 1292              	.LFE18:
 1294              		.section	.text.tcp_timewait_input,"ax",%progbits
 1295              		.align	2
 1296              		.thumb
 1297              		.thumb_func
 1299              	tcp_timewait_input:
 1300              	.LFB19:
 515:Libraries/lwip-1.4.0/core/tcp_in.c **** 
 516:Libraries/lwip-1.4.0/core/tcp_in.c **** /**
 517:Libraries/lwip-1.4.0/core/tcp_in.c ****  * Called by tcp_input() when a segment arrives for a connection in
 518:Libraries/lwip-1.4.0/core/tcp_in.c ****  * TIME_WAIT.
 519:Libraries/lwip-1.4.0/core/tcp_in.c ****  *
 520:Libraries/lwip-1.4.0/core/tcp_in.c ****  * @param pcb the tcp_pcb for which a segment arrived
 521:Libraries/lwip-1.4.0/core/tcp_in.c ****  *
 522:Libraries/lwip-1.4.0/core/tcp_in.c ****  * @note the segment which arrived is saved in global variables, therefore only the pcb
 523:Libraries/lwip-1.4.0/core/tcp_in.c ****  *       involved is passed as a parameter to this function
 524:Libraries/lwip-1.4.0/core/tcp_in.c ****  */
 525:Libraries/lwip-1.4.0/core/tcp_in.c **** static err_t
 526:Libraries/lwip-1.4.0/core/tcp_in.c **** tcp_timewait_input(struct tcp_pcb *pcb)
 527:Libraries/lwip-1.4.0/core/tcp_in.c **** {
 1301              		.loc 1 527 0
 1302              		.cfi_startproc
 1303              		@ args = 0, pretend = 0, frame = 8
 1304              		@ frame_needed = 1, uses_anonymous_args = 0
 1305 0000 80B5     		push	{r7, lr}
 1306              		.cfi_def_cfa_offset 8
 1307              		.cfi_offset 7, -8
 1308              		.cfi_offset 14, -4
 1309 0002 84B0     		sub	sp, sp, #16
 1310              		.cfi_def_cfa_offset 24
 1311 0004 02AF     		add	r7, sp, #8
 1312              		.cfi_def_cfa 7, 16
 1313 0006 7860     		str	r0, [r7, #4]
 528:Libraries/lwip-1.4.0/core/tcp_in.c ****   /* RFC 1337: in TIME_WAIT, ignore RST and ACK FINs + any 'acceptable' segments */
 529:Libraries/lwip-1.4.0/core/tcp_in.c ****   /* RFC 793 3.9 Event Processing - Segment Arrives:
 530:Libraries/lwip-1.4.0/core/tcp_in.c ****    * - first check sequence number - we skip that one in TIME_WAIT (always
 531:Libraries/lwip-1.4.0/core/tcp_in.c ****    *   acceptable since we only send ACKs)
 532:Libraries/lwip-1.4.0/core/tcp_in.c ****    * - second check the RST bit (... return) */
 533:Libraries/lwip-1.4.0/core/tcp_in.c ****   if (flags & TCP_RST)  {
 1314              		.loc 1 533 0
 1315 0008 2B4B     		ldr	r3, .L73
 1316 000a 1B78     		ldrb	r3, [r3]	@ zero_extendqisi2
 1317 000c 03F00403 		and	r3, r3, #4
 1318 0010 002B     		cmp	r3, #0
 1319 0012 01D0     		beq	.L68
 534:Libraries/lwip-1.4.0/core/tcp_in.c ****     return ERR_OK;
 1320              		.loc 1 534 0
 1321 0014 0023     		movs	r3, #0
 1322 0016 4BE0     		b	.L69
 1323              	.L68:
 535:Libraries/lwip-1.4.0/core/tcp_in.c ****   }
 536:Libraries/lwip-1.4.0/core/tcp_in.c ****   /* - fourth, check the SYN bit, */
 537:Libraries/lwip-1.4.0/core/tcp_in.c ****   if (flags & TCP_SYN) {
 1324              		.loc 1 537 0
 1325 0018 274B     		ldr	r3, .L73
 1326 001a 1B78     		ldrb	r3, [r3]	@ zero_extendqisi2
 1327 001c 03F00203 		and	r3, r3, #2
 1328 0020 002B     		cmp	r3, #0
 1329 0022 28D0     		beq	.L70
 538:Libraries/lwip-1.4.0/core/tcp_in.c ****     /* If an incoming segment is not acceptable, an acknowledgment
 539:Libraries/lwip-1.4.0/core/tcp_in.c ****        should be sent in reply */
 540:Libraries/lwip-1.4.0/core/tcp_in.c ****     if (TCP_SEQ_BETWEEN(seqno, pcb->rcv_nxt, pcb->rcv_nxt+pcb->rcv_wnd)) {
 1330              		.loc 1 540 0
 1331 0024 254B     		ldr	r3, .L73+4
 1332 0026 1A68     		ldr	r2, [r3]
 1333 0028 7B68     		ldr	r3, [r7, #4]
 1334 002a 5B6A     		ldr	r3, [r3, #36]
 1335 002c D31A     		subs	r3, r2, r3
 1336 002e 002B     		cmp	r3, #0
 1337 0030 2BDB     		blt	.L71
 1338              		.loc 1 540 0 is_stmt 0 discriminator 1
 1339 0032 224B     		ldr	r3, .L73+4
 1340 0034 1A68     		ldr	r2, [r3]
 1341 0036 7B68     		ldr	r3, [r7, #4]
 1342 0038 5B6A     		ldr	r3, [r3, #36]
 1343 003a 7968     		ldr	r1, [r7, #4]
 1344 003c 098D     		ldrh	r1, [r1, #40]
 1345 003e 0B44     		add	r3, r3, r1
 1346 0040 D31A     		subs	r3, r2, r3
 1347 0042 002B     		cmp	r3, #0
 1348 0044 21DC     		bgt	.L71
 541:Libraries/lwip-1.4.0/core/tcp_in.c ****       /* If the SYN is in the window it is an error, send a reset */
 542:Libraries/lwip-1.4.0/core/tcp_in.c ****       tcp_rst(ackno, seqno + tcplen, ip_current_dest_addr(), ip_current_src_addr(),
 1349              		.loc 1 542 0 is_stmt 1
 1350 0046 1E4B     		ldr	r3, .L73+8
 1351 0048 1868     		ldr	r0, [r3]
 1352 004a 1E4B     		ldr	r3, .L73+12
 1353 004c 1B88     		ldrh	r3, [r3]
 1354 004e 1A46     		mov	r2, r3
 1355 0050 1A4B     		ldr	r3, .L73+4
 1356 0052 1B68     		ldr	r3, [r3]
 1357 0054 D118     		adds	r1, r2, r3
 543:Libraries/lwip-1.4.0/core/tcp_in.c ****         tcphdr->dest, tcphdr->src);
 1358              		.loc 1 543 0
 1359 0056 1C4B     		ldr	r3, .L73+16
 1360 0058 1B68     		ldr	r3, [r3]
 542:Libraries/lwip-1.4.0/core/tcp_in.c ****         tcphdr->dest, tcphdr->src);
 1361              		.loc 1 542 0
 1362 005a 5B88     		ldrh	r3, [r3, #2]	@ unaligned
 1363 005c 9BB2     		uxth	r3, r3
 1364              		.loc 1 543 0
 1365 005e 1A4A     		ldr	r2, .L73+16
 1366 0060 1268     		ldr	r2, [r2]
 542:Libraries/lwip-1.4.0/core/tcp_in.c ****         tcphdr->dest, tcphdr->src);
 1367              		.loc 1 542 0
 1368 0062 1288     		ldrh	r2, [r2]	@ unaligned
 1369 0064 92B2     		uxth	r2, r2
 1370 0066 0192     		str	r2, [sp, #4]
 1371 0068 0093     		str	r3, [sp]
 1372 006a 184B     		ldr	r3, .L73+20
 1373 006c 184A     		ldr	r2, .L73+24
 1374 006e FFF7FEFF 		bl	tcp_rst
 544:Libraries/lwip-1.4.0/core/tcp_in.c ****       return ERR_OK;
 1375              		.loc 1 544 0
 1376 0072 0023     		movs	r3, #0
 1377 0074 1CE0     		b	.L69
 1378              	.L70:
 545:Libraries/lwip-1.4.0/core/tcp_in.c ****     }
 546:Libraries/lwip-1.4.0/core/tcp_in.c ****   } else if (flags & TCP_FIN) {
 1379              		.loc 1 546 0
 1380 0076 104B     		ldr	r3, .L73
 1381 0078 1B78     		ldrb	r3, [r3]	@ zero_extendqisi2
 1382 007a 03F00103 		and	r3, r3, #1
 1383 007e 002B     		cmp	r3, #0
 1384 0080 03D0     		beq	.L71
 547:Libraries/lwip-1.4.0/core/tcp_in.c ****     /* - eighth, check the FIN bit: Remain in the TIME-WAIT state.
 548:Libraries/lwip-1.4.0/core/tcp_in.c ****          Restart the 2 MSL time-wait timeout.*/
 549:Libraries/lwip-1.4.0/core/tcp_in.c ****     pcb->tmr = tcp_ticks;
 1385              		.loc 1 549 0
 1386 0082 144B     		ldr	r3, .L73+28
 1387 0084 1A68     		ldr	r2, [r3]
 1388 0086 7B68     		ldr	r3, [r7, #4]
 1389 0088 1A63     		str	r2, [r3, #48]
 1390              	.L71:
 550:Libraries/lwip-1.4.0/core/tcp_in.c ****   }
 551:Libraries/lwip-1.4.0/core/tcp_in.c **** 
 552:Libraries/lwip-1.4.0/core/tcp_in.c ****   if ((tcplen > 0))  {
 1391              		.loc 1 552 0
 1392 008a 0E4B     		ldr	r3, .L73+12
 1393 008c 1B88     		ldrh	r3, [r3]
 1394 008e 002B     		cmp	r3, #0
 1395 0090 0DD0     		beq	.L72
 553:Libraries/lwip-1.4.0/core/tcp_in.c ****     /* Acknowledge data, FIN or out-of-window SYN */
 554:Libraries/lwip-1.4.0/core/tcp_in.c ****     pcb->flags |= TF_ACK_NOW;
 1396              		.loc 1 554 0
 1397 0092 7B68     		ldr	r3, [r7, #4]
 1398 0094 93F82030 		ldrb	r3, [r3, #32]	@ zero_extendqisi2
 1399 0098 43F00203 		orr	r3, r3, #2
 1400 009c DAB2     		uxtb	r2, r3
 1401 009e 7B68     		ldr	r3, [r7, #4]
 1402 00a0 83F82020 		strb	r2, [r3, #32]
 555:Libraries/lwip-1.4.0/core/tcp_in.c ****     return tcp_output(pcb);
 1403              		.loc 1 555 0
 1404 00a4 7868     		ldr	r0, [r7, #4]
 1405 00a6 FFF7FEFF 		bl	tcp_output
 1406 00aa 0346     		mov	r3, r0
 1407 00ac 00E0     		b	.L69
 1408              	.L72:
 556:Libraries/lwip-1.4.0/core/tcp_in.c ****   }
 557:Libraries/lwip-1.4.0/core/tcp_in.c ****   return ERR_OK;
 1409              		.loc 1 557 0
 1410 00ae 0023     		movs	r3, #0
 1411              	.L69:
 558:Libraries/lwip-1.4.0/core/tcp_in.c **** }
 1412              		.loc 1 558 0
 1413 00b0 1846     		mov	r0, r3
 1414 00b2 0837     		adds	r7, r7, #8
 1415              		.cfi_def_cfa_offset 8
 1416 00b4 BD46     		mov	sp, r7
 1417              		.cfi_def_cfa_register 13
 1418              		@ sp needed
 1419 00b6 80BD     		pop	{r7, pc}
 1420              	.L74:
 1421              		.align	2
 1422              	.L73:
 1423 00b8 00000000 		.word	flags
 1424 00bc 00000000 		.word	seqno
 1425 00c0 00000000 		.word	ackno
 1426 00c4 00000000 		.word	tcplen
 1427 00c8 00000000 		.word	tcphdr
 1428 00cc 00000000 		.word	current_iphdr_src
 1429 00d0 00000000 		.word	current_iphdr_dest
 1430 00d4 00000000 		.word	tcp_ticks
 1431              		.cfi_endproc
 1432              	.LFE19:
 1434              		.section	.text.tcp_process,"ax",%progbits
 1435              		.align	2
 1436              		.thumb
 1437              		.thumb_func
 1439              	tcp_process:
 1440              	.LFB20:
 559:Libraries/lwip-1.4.0/core/tcp_in.c **** 
 560:Libraries/lwip-1.4.0/core/tcp_in.c **** /**
 561:Libraries/lwip-1.4.0/core/tcp_in.c ****  * Implements the TCP state machine. Called by tcp_input. In some
 562:Libraries/lwip-1.4.0/core/tcp_in.c ****  * states tcp_receive() is called to receive data. The tcp_seg
 563:Libraries/lwip-1.4.0/core/tcp_in.c ****  * argument will be freed by the caller (tcp_input()) unless the
 564:Libraries/lwip-1.4.0/core/tcp_in.c ****  * recv_data pointer in the pcb is set.
 565:Libraries/lwip-1.4.0/core/tcp_in.c ****  *
 566:Libraries/lwip-1.4.0/core/tcp_in.c ****  * @param pcb the tcp_pcb for which a segment arrived
 567:Libraries/lwip-1.4.0/core/tcp_in.c ****  *
 568:Libraries/lwip-1.4.0/core/tcp_in.c ****  * @note the segment which arrived is saved in global variables, therefore only the pcb
 569:Libraries/lwip-1.4.0/core/tcp_in.c ****  *       involved is passed as a parameter to this function
 570:Libraries/lwip-1.4.0/core/tcp_in.c ****  */
 571:Libraries/lwip-1.4.0/core/tcp_in.c **** static err_t
 572:Libraries/lwip-1.4.0/core/tcp_in.c **** tcp_process(struct tcp_pcb *pcb)
 573:Libraries/lwip-1.4.0/core/tcp_in.c **** {
 1441              		.loc 1 573 0
 1442              		.cfi_startproc
 1443              		@ args = 0, pretend = 0, frame = 24
 1444              		@ frame_needed = 1, uses_anonymous_args = 0
 1445 0000 80B5     		push	{r7, lr}
 1446              		.cfi_def_cfa_offset 8
 1447              		.cfi_offset 7, -8
 1448              		.cfi_offset 14, -4
 1449 0002 88B0     		sub	sp, sp, #32
 1450              		.cfi_def_cfa_offset 40
 1451 0004 02AF     		add	r7, sp, #8
 1452              		.cfi_def_cfa 7, 32
 1453 0006 7860     		str	r0, [r7, #4]
 574:Libraries/lwip-1.4.0/core/tcp_in.c ****   struct tcp_seg *rseg;
 575:Libraries/lwip-1.4.0/core/tcp_in.c ****   u8_t acceptable = 0;
 1454              		.loc 1 575 0
 1455 0008 0023     		movs	r3, #0
 1456 000a FB75     		strb	r3, [r7, #23]
 576:Libraries/lwip-1.4.0/core/tcp_in.c ****   err_t err;
 577:Libraries/lwip-1.4.0/core/tcp_in.c **** 
 578:Libraries/lwip-1.4.0/core/tcp_in.c ****   err = ERR_OK;
 1457              		.loc 1 578 0
 1458 000c 0023     		movs	r3, #0
 1459 000e 3B61     		str	r3, [r7, #16]
 579:Libraries/lwip-1.4.0/core/tcp_in.c **** 
 580:Libraries/lwip-1.4.0/core/tcp_in.c ****   /* Process incoming RST segments. */
 581:Libraries/lwip-1.4.0/core/tcp_in.c ****   if (flags & TCP_RST) {
 1460              		.loc 1 581 0
 1461 0010 A44B     		ldr	r3, .L147
 1462 0012 1B78     		ldrb	r3, [r3]	@ zero_extendqisi2
 1463 0014 03F00403 		and	r3, r3, #4
 1464 0018 002B     		cmp	r3, #0
 1465 001a 37D0     		beq	.L76
 582:Libraries/lwip-1.4.0/core/tcp_in.c ****     /* First, determine if the reset is acceptable. */
 583:Libraries/lwip-1.4.0/core/tcp_in.c ****     if (pcb->state == SYN_SENT) {
 1466              		.loc 1 583 0
 1467 001c 7B68     		ldr	r3, [r7, #4]
 1468 001e 1B7C     		ldrb	r3, [r3, #16]	@ zero_extendqisi2
 1469 0020 022B     		cmp	r3, #2
 1470 0022 08D1     		bne	.L77
 584:Libraries/lwip-1.4.0/core/tcp_in.c ****       if (ackno == pcb->snd_nxt) {
 1471              		.loc 1 584 0
 1472 0024 7B68     		ldr	r3, [r7, #4]
 1473 0026 9A6D     		ldr	r2, [r3, #88]
 1474 0028 9F4B     		ldr	r3, .L147+4
 1475 002a 1B68     		ldr	r3, [r3]
 1476 002c 9A42     		cmp	r2, r3
 1477 002e 15D1     		bne	.L79
 585:Libraries/lwip-1.4.0/core/tcp_in.c ****         acceptable = 1;
 1478              		.loc 1 585 0
 1479 0030 0123     		movs	r3, #1
 1480 0032 FB75     		strb	r3, [r7, #23]
 1481 0034 12E0     		b	.L79
 1482              	.L77:
 586:Libraries/lwip-1.4.0/core/tcp_in.c ****       }
 587:Libraries/lwip-1.4.0/core/tcp_in.c ****     } else {
 588:Libraries/lwip-1.4.0/core/tcp_in.c ****       if (TCP_SEQ_BETWEEN(seqno, pcb->rcv_nxt, 
 1483              		.loc 1 588 0
 1484 0036 9D4B     		ldr	r3, .L147+8
 1485 0038 1A68     		ldr	r2, [r3]
 1486 003a 7B68     		ldr	r3, [r7, #4]
 1487 003c 5B6A     		ldr	r3, [r3, #36]
 1488 003e D31A     		subs	r3, r2, r3
 1489 0040 002B     		cmp	r3, #0
 1490 0042 0BDB     		blt	.L79
 1491              		.loc 1 588 0 is_stmt 0 discriminator 1
 1492 0044 994B     		ldr	r3, .L147+8
 1493 0046 1A68     		ldr	r2, [r3]
 1494 0048 7B68     		ldr	r3, [r7, #4]
 1495 004a 5B6A     		ldr	r3, [r3, #36]
 1496 004c 7968     		ldr	r1, [r7, #4]
 1497 004e 098D     		ldrh	r1, [r1, #40]
 1498 0050 0B44     		add	r3, r3, r1
 1499 0052 D31A     		subs	r3, r2, r3
 1500 0054 002B     		cmp	r3, #0
 1501 0056 01DC     		bgt	.L79
 589:Libraries/lwip-1.4.0/core/tcp_in.c ****                           pcb->rcv_nxt+pcb->rcv_wnd)) {
 590:Libraries/lwip-1.4.0/core/tcp_in.c ****         acceptable = 1;
 1502              		.loc 1 590 0 is_stmt 1
 1503 0058 0123     		movs	r3, #1
 1504 005a FB75     		strb	r3, [r7, #23]
 1505              	.L79:
 591:Libraries/lwip-1.4.0/core/tcp_in.c ****       }
 592:Libraries/lwip-1.4.0/core/tcp_in.c ****     }
 593:Libraries/lwip-1.4.0/core/tcp_in.c **** 
 594:Libraries/lwip-1.4.0/core/tcp_in.c ****     if (acceptable) {
 1506              		.loc 1 594 0
 1507 005c FB7D     		ldrb	r3, [r7, #23]	@ zero_extendqisi2
 1508 005e 002B     		cmp	r3, #0
 1509 0060 12D0     		beq	.L80
 595:Libraries/lwip-1.4.0/core/tcp_in.c ****       LWIP_DEBUGF(TCP_INPUT_DEBUG, ("tcp_process: Connection RESET\n"));
 596:Libraries/lwip-1.4.0/core/tcp_in.c ****       LWIP_ASSERT("tcp_input: pcb->state != CLOSED", pcb->state != CLOSED);
 597:Libraries/lwip-1.4.0/core/tcp_in.c ****       recv_flags |= TF_RESET;
 1510              		.loc 1 597 0
 1511 0062 934B     		ldr	r3, .L147+12
 1512 0064 1B78     		ldrb	r3, [r3]	@ zero_extendqisi2
 1513 0066 43F00803 		orr	r3, r3, #8
 1514 006a DAB2     		uxtb	r2, r3
 1515 006c 904B     		ldr	r3, .L147+12
 1516 006e 1A70     		strb	r2, [r3]
 598:Libraries/lwip-1.4.0/core/tcp_in.c ****       pcb->flags &= ~TF_ACK_DELAY;
 1517              		.loc 1 598 0
 1518 0070 7B68     		ldr	r3, [r7, #4]
 1519 0072 93F82030 		ldrb	r3, [r3, #32]	@ zero_extendqisi2
 1520 0076 23F00103 		bic	r3, r3, #1
 1521 007a DAB2     		uxtb	r2, r3
 1522 007c 7B68     		ldr	r3, [r7, #4]
 1523 007e 83F82020 		strb	r2, [r3, #32]
 599:Libraries/lwip-1.4.0/core/tcp_in.c ****       return ERR_RST;
 1524              		.loc 1 599 0
 1525 0082 6FF00A03 		mvn	r3, #10
 1526 0086 0FE3     		b	.L81
 1527              	.L80:
 600:Libraries/lwip-1.4.0/core/tcp_in.c ****     } else {
 601:Libraries/lwip-1.4.0/core/tcp_in.c ****       LWIP_DEBUGF(TCP_INPUT_DEBUG, ("tcp_process: unacceptable reset seqno %"U32_F" rcv_nxt %"U32_F
 602:Libraries/lwip-1.4.0/core/tcp_in.c ****        seqno, pcb->rcv_nxt));
 603:Libraries/lwip-1.4.0/core/tcp_in.c ****       LWIP_DEBUGF(TCP_DEBUG, ("tcp_process: unacceptable reset seqno %"U32_F" rcv_nxt %"U32_F"\n",
 604:Libraries/lwip-1.4.0/core/tcp_in.c ****        seqno, pcb->rcv_nxt));
 605:Libraries/lwip-1.4.0/core/tcp_in.c ****       return ERR_OK;
 1528              		.loc 1 605 0
 1529 0088 0023     		movs	r3, #0
 1530 008a 0DE3     		b	.L81
 1531              	.L76:
 606:Libraries/lwip-1.4.0/core/tcp_in.c ****     }
 607:Libraries/lwip-1.4.0/core/tcp_in.c ****   }
 608:Libraries/lwip-1.4.0/core/tcp_in.c **** 
 609:Libraries/lwip-1.4.0/core/tcp_in.c ****   if ((flags & TCP_SYN) && (pcb->state != SYN_SENT && pcb->state != SYN_RCVD)) { 
 1532              		.loc 1 609 0
 1533 008c 854B     		ldr	r3, .L147
 1534 008e 1B78     		ldrb	r3, [r3]	@ zero_extendqisi2
 1535 0090 03F00203 		and	r3, r3, #2
 1536 0094 002B     		cmp	r3, #0
 1537 0096 12D0     		beq	.L82
 1538              		.loc 1 609 0 is_stmt 0 discriminator 1
 1539 0098 7B68     		ldr	r3, [r7, #4]
 1540 009a 1B7C     		ldrb	r3, [r3, #16]	@ zero_extendqisi2
 1541 009c 022B     		cmp	r3, #2
 1542 009e 0ED0     		beq	.L82
 1543              		.loc 1 609 0 discriminator 2
 1544 00a0 7B68     		ldr	r3, [r7, #4]
 1545 00a2 1B7C     		ldrb	r3, [r3, #16]	@ zero_extendqisi2
 1546 00a4 032B     		cmp	r3, #3
 1547 00a6 0AD0     		beq	.L82
 610:Libraries/lwip-1.4.0/core/tcp_in.c ****     /* Cope with new connection attempt after remote end crashed */
 611:Libraries/lwip-1.4.0/core/tcp_in.c ****     tcp_ack_now(pcb);
 1548              		.loc 1 611 0 is_stmt 1
 1549 00a8 7B68     		ldr	r3, [r7, #4]
 1550 00aa 93F82030 		ldrb	r3, [r3, #32]	@ zero_extendqisi2
 1551 00ae 43F00203 		orr	r3, r3, #2
 1552 00b2 DAB2     		uxtb	r2, r3
 1553 00b4 7B68     		ldr	r3, [r7, #4]
 1554 00b6 83F82020 		strb	r2, [r3, #32]
 612:Libraries/lwip-1.4.0/core/tcp_in.c ****     return ERR_OK;
 1555              		.loc 1 612 0
 1556 00ba 0023     		movs	r3, #0
 1557 00bc F4E2     		b	.L81
 1558              	.L82:
 613:Libraries/lwip-1.4.0/core/tcp_in.c ****   }
 614:Libraries/lwip-1.4.0/core/tcp_in.c ****   
 615:Libraries/lwip-1.4.0/core/tcp_in.c ****   if ((pcb->flags & TF_RXCLOSED) == 0) {
 1559              		.loc 1 615 0
 1560 00be 7B68     		ldr	r3, [r7, #4]
 1561 00c0 93F82030 		ldrb	r3, [r3, #32]	@ zero_extendqisi2
 1562 00c4 03F01003 		and	r3, r3, #16
 1563 00c8 002B     		cmp	r3, #0
 1564 00ca 03D1     		bne	.L83
 616:Libraries/lwip-1.4.0/core/tcp_in.c ****     /* Update the PCB (in)activity timer unless rx is closed (see tcp_shutdown) */
 617:Libraries/lwip-1.4.0/core/tcp_in.c ****     pcb->tmr = tcp_ticks;
 1565              		.loc 1 617 0
 1566 00cc 794B     		ldr	r3, .L147+16
 1567 00ce 1A68     		ldr	r2, [r3]
 1568 00d0 7B68     		ldr	r3, [r7, #4]
 1569 00d2 1A63     		str	r2, [r3, #48]
 1570              	.L83:
 618:Libraries/lwip-1.4.0/core/tcp_in.c ****   }
 619:Libraries/lwip-1.4.0/core/tcp_in.c ****   pcb->keep_cnt_sent = 0;
 1571              		.loc 1 619 0
 1572 00d4 7B68     		ldr	r3, [r7, #4]
 1573 00d6 0022     		movs	r2, #0
 1574 00d8 83F8A120 		strb	r2, [r3, #161]
 620:Libraries/lwip-1.4.0/core/tcp_in.c **** 
 621:Libraries/lwip-1.4.0/core/tcp_in.c ****   tcp_parseopt(pcb);
 1575              		.loc 1 621 0
 1576 00dc 7868     		ldr	r0, [r7, #4]
 1577 00de FFF7FEFF 		bl	tcp_parseopt
 622:Libraries/lwip-1.4.0/core/tcp_in.c **** 
 623:Libraries/lwip-1.4.0/core/tcp_in.c ****   /* Do different things depending on the TCP state. */
 624:Libraries/lwip-1.4.0/core/tcp_in.c ****   switch (pcb->state) {
 1578              		.loc 1 624 0
 1579 00e2 7B68     		ldr	r3, [r7, #4]
 1580 00e4 1B7C     		ldrb	r3, [r3, #16]	@ zero_extendqisi2
 1581 00e6 023B     		subs	r3, r3, #2
 1582 00e8 072B     		cmp	r3, #7
 1583 00ea 00F2CD82 		bhi	.L138
 1584 00ee 01A2     		adr	r2, .L86
 1585 00f0 52F823F0 		ldr	pc, [r2, r3, lsl #2]
 1586              		.p2align 2
 1587              	.L86:
 1588 00f4 15010000 		.word	.L85+1
 1589 00f8 C9020000 		.word	.L87+1
 1590 00fc F3030000 		.word	.L88+1
 1591 0100 21040000 		.word	.L89+1
 1592 0104 0B050000 		.word	.L90+1
 1593 0108 F3030000 		.word	.L88+1
 1594 010c CD050000 		.word	.L91+1
 1595 0110 5B060000 		.word	.L92+1
 1596              		.p2align 1
 1597              	.L85:
 625:Libraries/lwip-1.4.0/core/tcp_in.c ****   case SYN_SENT:
 626:Libraries/lwip-1.4.0/core/tcp_in.c ****     LWIP_DEBUGF(TCP_INPUT_DEBUG, ("SYN-SENT: ackno %"U32_F" pcb->snd_nxt %"U32_F" unacked %"U32_F"\
 627:Libraries/lwip-1.4.0/core/tcp_in.c ****      pcb->snd_nxt, ntohl(pcb->unacked->tcphdr->seqno)));
 628:Libraries/lwip-1.4.0/core/tcp_in.c ****     /* received SYN ACK with expected sequence number? */
 629:Libraries/lwip-1.4.0/core/tcp_in.c ****     if ((flags & TCP_ACK) && (flags & TCP_SYN)
 1598              		.loc 1 629 0
 1599 0114 634B     		ldr	r3, .L147
 1600 0116 1B78     		ldrb	r3, [r3]	@ zero_extendqisi2
 1601 0118 03F01003 		and	r3, r3, #16
 1602 011c 002B     		cmp	r3, #0
 1603 011e 00F0A280 		beq	.L93
 1604              		.loc 1 629 0 is_stmt 0 discriminator 1
 1605 0122 604B     		ldr	r3, .L147
 1606 0124 1B78     		ldrb	r3, [r3]	@ zero_extendqisi2
 1607 0126 03F00203 		and	r3, r3, #2
 1608 012a 002B     		cmp	r3, #0
 1609 012c 00F09B80 		beq	.L93
 630:Libraries/lwip-1.4.0/core/tcp_in.c ****         && ackno == ntohl(pcb->unacked->tcphdr->seqno) + 1) {
 1610              		.loc 1 630 0 is_stmt 1
 1611 0130 7B68     		ldr	r3, [r7, #4]
 1612 0132 9B6F     		ldr	r3, [r3, #120]
 1613 0134 DB68     		ldr	r3, [r3, #12]
 1614 0136 5B68     		ldr	r3, [r3, #4]	@ unaligned
 1615 0138 1846     		mov	r0, r3
 1616 013a FFF7FEFF 		bl	lwip_ntohl
 1617 013e 0346     		mov	r3, r0
 1618 0140 5A1C     		adds	r2, r3, #1
 1619 0142 594B     		ldr	r3, .L147+4
 1620 0144 1B68     		ldr	r3, [r3]
 1621 0146 9A42     		cmp	r2, r3
 1622 0148 40F08D80 		bne	.L93
 631:Libraries/lwip-1.4.0/core/tcp_in.c ****       pcb->snd_buf++;
 1623              		.loc 1 631 0
 1624 014c 7B68     		ldr	r3, [r7, #4]
 1625 014e B3F86E30 		ldrh	r3, [r3, #110]
 1626 0152 0133     		adds	r3, r3, #1
 1627 0154 9AB2     		uxth	r2, r3
 1628 0156 7B68     		ldr	r3, [r7, #4]
 1629 0158 A3F86E20 		strh	r2, [r3, #110]	@ movhi
 632:Libraries/lwip-1.4.0/core/tcp_in.c ****       pcb->rcv_nxt = seqno + 1;
 1630              		.loc 1 632 0
 1631 015c 534B     		ldr	r3, .L147+8
 1632 015e 1B68     		ldr	r3, [r3]
 1633 0160 5A1C     		adds	r2, r3, #1
 1634 0162 7B68     		ldr	r3, [r7, #4]
 1635 0164 5A62     		str	r2, [r3, #36]
 633:Libraries/lwip-1.4.0/core/tcp_in.c ****       pcb->rcv_ann_right_edge = pcb->rcv_nxt;
 1636              		.loc 1 633 0
 1637 0166 7B68     		ldr	r3, [r7, #4]
 1638 0168 5A6A     		ldr	r2, [r3, #36]
 1639 016a 7B68     		ldr	r3, [r7, #4]
 1640 016c DA62     		str	r2, [r3, #44]
 634:Libraries/lwip-1.4.0/core/tcp_in.c ****       pcb->lastack = ackno;
 1641              		.loc 1 634 0
 1642 016e 4E4B     		ldr	r3, .L147+4
 1643 0170 1A68     		ldr	r2, [r3]
 1644 0172 7B68     		ldr	r3, [r7, #4]
 1645 0174 DA64     		str	r2, [r3, #76]
 635:Libraries/lwip-1.4.0/core/tcp_in.c ****       pcb->snd_wnd = tcphdr->wnd;
 1646              		.loc 1 635 0
 1647 0176 504B     		ldr	r3, .L147+20
 1648 0178 1B68     		ldr	r3, [r3]
 1649 017a DB89     		ldrh	r3, [r3, #14]	@ unaligned
 1650 017c 9AB2     		uxth	r2, r3
 1651 017e 7B68     		ldr	r3, [r7, #4]
 1652 0180 A3F85C20 		strh	r2, [r3, #92]	@ movhi
 636:Libraries/lwip-1.4.0/core/tcp_in.c ****       pcb->snd_wl1 = seqno - 1; /* initialise to seqno - 1 to force window update */
 1653              		.loc 1 636 0
 1654 0184 494B     		ldr	r3, .L147+8
 1655 0186 1B68     		ldr	r3, [r3]
 1656 0188 5A1E     		subs	r2, r3, #1
 1657 018a 7B68     		ldr	r3, [r7, #4]
 1658 018c 1A66     		str	r2, [r3, #96]
 637:Libraries/lwip-1.4.0/core/tcp_in.c ****       pcb->state = ESTABLISHED;
 1659              		.loc 1 637 0
 1660 018e 7B68     		ldr	r3, [r7, #4]
 1661 0190 0422     		movs	r2, #4
 1662 0192 1A74     		strb	r2, [r3, #16]
 638:Libraries/lwip-1.4.0/core/tcp_in.c **** 
 639:Libraries/lwip-1.4.0/core/tcp_in.c **** #if TCP_CALCULATE_EFF_SEND_MSS
 640:Libraries/lwip-1.4.0/core/tcp_in.c ****       pcb->mss = tcp_eff_send_mss(pcb->mss, &(pcb->remote_ip));
 1663              		.loc 1 640 0
 1664 0194 7B68     		ldr	r3, [r7, #4]
 1665 0196 1A8F     		ldrh	r2, [r3, #56]
 1666 0198 7B68     		ldr	r3, [r7, #4]
 1667 019a 0433     		adds	r3, r3, #4
 1668 019c 1946     		mov	r1, r3
 1669 019e 1046     		mov	r0, r2
 1670 01a0 FFF7FEFF 		bl	tcp_eff_send_mss
 1671 01a4 0346     		mov	r3, r0
 1672 01a6 1A46     		mov	r2, r3
 1673 01a8 7B68     		ldr	r3, [r7, #4]
 1674 01aa 1A87     		strh	r2, [r3, #56]	@ movhi
 641:Libraries/lwip-1.4.0/core/tcp_in.c **** #endif /* TCP_CALCULATE_EFF_SEND_MSS */
 642:Libraries/lwip-1.4.0/core/tcp_in.c **** 
 643:Libraries/lwip-1.4.0/core/tcp_in.c ****       /* Set ssthresh again after changing pcb->mss (already set in tcp_connect
 644:Libraries/lwip-1.4.0/core/tcp_in.c ****        * but for the default value of pcb->mss) */
 645:Libraries/lwip-1.4.0/core/tcp_in.c ****       pcb->ssthresh = pcb->mss * 10;
 1675              		.loc 1 645 0
 1676 01ac 7B68     		ldr	r3, [r7, #4]
 1677 01ae 1B8F     		ldrh	r3, [r3, #56]
 1678 01b0 1A46     		mov	r2, r3	@ movhi
 1679 01b2 9200     		lsls	r2, r2, #2
 1680 01b4 1344     		add	r3, r3, r2
 1681 01b6 5B00     		lsls	r3, r3, #1
 1682 01b8 9AB2     		uxth	r2, r3
 1683 01ba 7B68     		ldr	r3, [r7, #4]
 1684 01bc A3F85420 		strh	r2, [r3, #84]	@ movhi
 646:Libraries/lwip-1.4.0/core/tcp_in.c **** 
 647:Libraries/lwip-1.4.0/core/tcp_in.c ****       pcb->cwnd = ((pcb->cwnd == 1) ? (pcb->mss * 2) : pcb->mss);
 1685              		.loc 1 647 0
 1686 01c0 7B68     		ldr	r3, [r7, #4]
 1687 01c2 B3F85230 		ldrh	r3, [r3, #82]
 1688 01c6 012B     		cmp	r3, #1
 1689 01c8 04D1     		bne	.L94
 1690              		.loc 1 647 0 is_stmt 0 discriminator 1
 1691 01ca 7B68     		ldr	r3, [r7, #4]
 1692 01cc 1B8F     		ldrh	r3, [r3, #56]
 1693 01ce 5B00     		lsls	r3, r3, #1
 1694 01d0 9BB2     		uxth	r3, r3
 1695 01d2 01E0     		b	.L95
 1696              	.L94:
 1697              		.loc 1 647 0 discriminator 2
 1698 01d4 7B68     		ldr	r3, [r7, #4]
 1699 01d6 1B8F     		ldrh	r3, [r3, #56]
 1700              	.L95:
 1701              		.loc 1 647 0 discriminator 4
 1702 01d8 7A68     		ldr	r2, [r7, #4]
 1703 01da A2F85230 		strh	r3, [r2, #82]	@ movhi
 648:Libraries/lwip-1.4.0/core/tcp_in.c ****       LWIP_ASSERT("pcb->snd_queuelen > 0", (pcb->snd_queuelen > 0));
 649:Libraries/lwip-1.4.0/core/tcp_in.c ****       --pcb->snd_queuelen;
 1704              		.loc 1 649 0 is_stmt 1 discriminator 4
 1705 01de 7B68     		ldr	r3, [r7, #4]
 1706 01e0 B3F87030 		ldrh	r3, [r3, #112]
 1707 01e4 013B     		subs	r3, r3, #1
 1708 01e6 9AB2     		uxth	r2, r3
 1709 01e8 7B68     		ldr	r3, [r7, #4]
 1710 01ea A3F87020 		strh	r2, [r3, #112]	@ movhi
 650:Libraries/lwip-1.4.0/core/tcp_in.c ****       LWIP_DEBUGF(TCP_QLEN_DEBUG, ("tcp_process: SYN-SENT --queuelen %"U16_F"\n", (u16_t)pcb->snd_q
 651:Libraries/lwip-1.4.0/core/tcp_in.c ****       rseg = pcb->unacked;
 1711              		.loc 1 651 0 discriminator 4
 1712 01ee 7B68     		ldr	r3, [r7, #4]
 1713 01f0 9B6F     		ldr	r3, [r3, #120]
 1714 01f2 FB60     		str	r3, [r7, #12]
 652:Libraries/lwip-1.4.0/core/tcp_in.c ****       pcb->unacked = rseg->next;
 1715              		.loc 1 652 0 discriminator 4
 1716 01f4 FB68     		ldr	r3, [r7, #12]
 1717 01f6 1A68     		ldr	r2, [r3]
 1718 01f8 7B68     		ldr	r3, [r7, #4]
 1719 01fa 9A67     		str	r2, [r3, #120]
 653:Libraries/lwip-1.4.0/core/tcp_in.c **** 
 654:Libraries/lwip-1.4.0/core/tcp_in.c ****       /* If there's nothing left to acknowledge, stop the retransmit
 655:Libraries/lwip-1.4.0/core/tcp_in.c ****          timer, otherwise reset it to start again */
 656:Libraries/lwip-1.4.0/core/tcp_in.c ****       if(pcb->unacked == NULL)
 1720              		.loc 1 656 0 discriminator 4
 1721 01fc 7B68     		ldr	r3, [r7, #4]
 1722 01fe 9B6F     		ldr	r3, [r3, #120]
 1723 0200 002B     		cmp	r3, #0
 1724 0202 04D1     		bne	.L96
 657:Libraries/lwip-1.4.0/core/tcp_in.c ****         pcb->rtime = -1;
 1725              		.loc 1 657 0
 1726 0204 7B68     		ldr	r3, [r7, #4]
 1727 0206 4FF6FF72 		movw	r2, #65535
 1728 020a DA86     		strh	r2, [r3, #54]	@ movhi
 1729 020c 06E0     		b	.L97
 1730              	.L96:
 658:Libraries/lwip-1.4.0/core/tcp_in.c ****       else {
 659:Libraries/lwip-1.4.0/core/tcp_in.c ****         pcb->rtime = 0;
 1731              		.loc 1 659 0
 1732 020e 7B68     		ldr	r3, [r7, #4]
 1733 0210 0022     		movs	r2, #0
 1734 0212 DA86     		strh	r2, [r3, #54]	@ movhi
 660:Libraries/lwip-1.4.0/core/tcp_in.c ****         pcb->nrtx = 0;
 1735              		.loc 1 660 0
 1736 0214 7B68     		ldr	r3, [r7, #4]
 1737 0216 0022     		movs	r2, #0
 1738 0218 83F84A20 		strb	r2, [r3, #74]
 1739              	.L97:
 661:Libraries/lwip-1.4.0/core/tcp_in.c ****       }
 662:Libraries/lwip-1.4.0/core/tcp_in.c **** 
 663:Libraries/lwip-1.4.0/core/tcp_in.c ****       tcp_seg_free(rseg);
 1740              		.loc 1 663 0
 1741 021c F868     		ldr	r0, [r7, #12]
 1742 021e FFF7FEFF 		bl	tcp_seg_free
 664:Libraries/lwip-1.4.0/core/tcp_in.c **** 
 665:Libraries/lwip-1.4.0/core/tcp_in.c ****       /* Call the user specified function to call when sucessfully
 666:Libraries/lwip-1.4.0/core/tcp_in.c ****        * connected. */
 667:Libraries/lwip-1.4.0/core/tcp_in.c ****       TCP_EVENT_CONNECTED(pcb, ERR_OK, err);
 1743              		.loc 1 667 0
 1744 0222 7B68     		ldr	r3, [r7, #4]
 1745 0224 D3F88C30 		ldr	r3, [r3, #140]
 1746 0228 002B     		cmp	r3, #0
 1747 022a 09D0     		beq	.L98
 1748              		.loc 1 667 0 is_stmt 0 discriminator 1
 1749 022c 7B68     		ldr	r3, [r7, #4]
 1750 022e D3F88C30 		ldr	r3, [r3, #140]
 1751 0232 7A68     		ldr	r2, [r7, #4]
 1752 0234 5069     		ldr	r0, [r2, #20]
 1753 0236 0022     		movs	r2, #0
 1754 0238 7968     		ldr	r1, [r7, #4]
 1755 023a 9847     		blx	r3
 1756 023c 3861     		str	r0, [r7, #16]
 1757 023e 01E0     		b	.L99
 1758              	.L98:
 1759              		.loc 1 667 0 discriminator 2
 1760 0240 0023     		movs	r3, #0
 1761 0242 3B61     		str	r3, [r7, #16]
 1762              	.L99:
 668:Libraries/lwip-1.4.0/core/tcp_in.c ****       if (err == ERR_ABRT) {
 1763              		.loc 1 668 0 is_stmt 1
 1764 0244 3B69     		ldr	r3, [r7, #16]
 1765 0246 13F10A0F 		cmn	r3, #10
 1766 024a 02D1     		bne	.L100
 669:Libraries/lwip-1.4.0/core/tcp_in.c ****         return ERR_ABRT;
 1767              		.loc 1 669 0
 1768 024c 6FF00903 		mvn	r3, #9
 1769 0250 2AE2     		b	.L81
 1770              	.L100:
 670:Libraries/lwip-1.4.0/core/tcp_in.c ****       }
 671:Libraries/lwip-1.4.0/core/tcp_in.c ****       tcp_ack_now(pcb);
 1771              		.loc 1 671 0
 1772 0252 7B68     		ldr	r3, [r7, #4]
 1773 0254 93F82030 		ldrb	r3, [r3, #32]	@ zero_extendqisi2
 1774 0258 43F00203 		orr	r3, r3, #2
 1775 025c DAB2     		uxtb	r2, r3
 1776 025e 7B68     		ldr	r3, [r7, #4]
 1777 0260 83F82020 		strb	r2, [r3, #32]
 672:Libraries/lwip-1.4.0/core/tcp_in.c ****     }
 673:Libraries/lwip-1.4.0/core/tcp_in.c ****     /* received ACK? possibly a half-open connection */
 674:Libraries/lwip-1.4.0/core/tcp_in.c ****     else if (flags & TCP_ACK) {
 675:Libraries/lwip-1.4.0/core/tcp_in.c ****       /* send a RST to bring the other side in a non-synchronized state. */
 676:Libraries/lwip-1.4.0/core/tcp_in.c ****       tcp_rst(ackno, seqno + tcplen, ip_current_dest_addr(), ip_current_src_addr(),
 677:Libraries/lwip-1.4.0/core/tcp_in.c ****         tcphdr->dest, tcphdr->src);
 678:Libraries/lwip-1.4.0/core/tcp_in.c ****     }
 679:Libraries/lwip-1.4.0/core/tcp_in.c ****     break;
 1778              		.loc 1 679 0
 1779 0264 12E2     		b	.L139
 1780              	.L93:
 674:Libraries/lwip-1.4.0/core/tcp_in.c ****       /* send a RST to bring the other side in a non-synchronized state. */
 1781              		.loc 1 674 0
 1782 0266 0F4B     		ldr	r3, .L147
 1783 0268 1B78     		ldrb	r3, [r3]	@ zero_extendqisi2
 1784 026a 03F01003 		and	r3, r3, #16
 1785 026e 002B     		cmp	r3, #0
 1786 0270 00F00C82 		beq	.L139
 676:Libraries/lwip-1.4.0/core/tcp_in.c ****         tcphdr->dest, tcphdr->src);
 1787              		.loc 1 676 0
 1788 0274 0C4B     		ldr	r3, .L147+4
 1789 0276 1868     		ldr	r0, [r3]
 1790 0278 104B     		ldr	r3, .L147+24
 1791 027a 1B88     		ldrh	r3, [r3]
 1792 027c 1A46     		mov	r2, r3
 1793 027e 0B4B     		ldr	r3, .L147+8
 1794 0280 1B68     		ldr	r3, [r3]
 1795 0282 D118     		adds	r1, r2, r3
 677:Libraries/lwip-1.4.0/core/tcp_in.c ****     }
 1796              		.loc 1 677 0
 1797 0284 0C4B     		ldr	r3, .L147+20
 1798 0286 1B68     		ldr	r3, [r3]
 676:Libraries/lwip-1.4.0/core/tcp_in.c ****         tcphdr->dest, tcphdr->src);
 1799              		.loc 1 676 0
 1800 0288 5B88     		ldrh	r3, [r3, #2]	@ unaligned
 1801 028a 9BB2     		uxth	r3, r3
 677:Libraries/lwip-1.4.0/core/tcp_in.c ****     }
 1802              		.loc 1 677 0
 1803 028c 0A4A     		ldr	r2, .L147+20
 1804 028e 1268     		ldr	r2, [r2]
 676:Libraries/lwip-1.4.0/core/tcp_in.c ****         tcphdr->dest, tcphdr->src);
 1805              		.loc 1 676 0
 1806 0290 1288     		ldrh	r2, [r2]	@ unaligned
 1807 0292 92B2     		uxth	r2, r2
 1808 0294 0192     		str	r2, [sp, #4]
 1809 0296 0093     		str	r3, [sp]
 1810 0298 094B     		ldr	r3, .L147+28
 1811 029a 0A4A     		ldr	r2, .L147+32
 1812 029c FFF7FEFF 		bl	tcp_rst
 1813              		.loc 1 679 0
 1814 02a0 F4E1     		b	.L139
 1815              	.L148:
 1816 02a2 00BF     		.align	2
 1817              	.L147:
 1818 02a4 00000000 		.word	flags
 1819 02a8 00000000 		.word	ackno
 1820 02ac 00000000 		.word	seqno
 1821 02b0 00000000 		.word	recv_flags
 1822 02b4 00000000 		.word	tcp_ticks
 1823 02b8 00000000 		.word	tcphdr
 1824 02bc 00000000 		.word	tcplen
 1825 02c0 00000000 		.word	current_iphdr_src
 1826 02c4 00000000 		.word	current_iphdr_dest
 1827              	.L87:
 680:Libraries/lwip-1.4.0/core/tcp_in.c ****   case SYN_RCVD:
 681:Libraries/lwip-1.4.0/core/tcp_in.c ****     if (flags & TCP_ACK) {
 1828              		.loc 1 681 0
 1829 02c8 A04B     		ldr	r3, .L149
 1830 02ca 1B78     		ldrb	r3, [r3]	@ zero_extendqisi2
 1831 02cc 03F01003 		and	r3, r3, #16
 1832 02d0 002B     		cmp	r3, #0
 1833 02d2 79D0     		beq	.L103
 682:Libraries/lwip-1.4.0/core/tcp_in.c ****       /* expected ACK number? */
 683:Libraries/lwip-1.4.0/core/tcp_in.c ****       if (TCP_SEQ_BETWEEN(ackno, pcb->lastack+1, pcb->snd_nxt)) {
 1834              		.loc 1 683 0
 1835 02d4 9E4B     		ldr	r3, .L149+4
 1836 02d6 1A68     		ldr	r2, [r3]
 1837 02d8 7B68     		ldr	r3, [r7, #4]
 1838 02da DB6C     		ldr	r3, [r3, #76]
 1839 02dc D31A     		subs	r3, r2, r3
 1840 02de 013B     		subs	r3, r3, #1
 1841 02e0 002B     		cmp	r3, #0
 1842 02e2 5ADB     		blt	.L104
 1843              		.loc 1 683 0 is_stmt 0 discriminator 1
 1844 02e4 9A4B     		ldr	r3, .L149+4
 1845 02e6 1A68     		ldr	r2, [r3]
 1846 02e8 7B68     		ldr	r3, [r7, #4]
 1847 02ea 9B6D     		ldr	r3, [r3, #88]
 1848 02ec D31A     		subs	r3, r2, r3
 1849 02ee 002B     		cmp	r3, #0
 1850 02f0 53DC     		bgt	.L104
 1851              	.LBB2:
 684:Libraries/lwip-1.4.0/core/tcp_in.c ****         u16_t old_cwnd;
 685:Libraries/lwip-1.4.0/core/tcp_in.c ****         pcb->state = ESTABLISHED;
 1852              		.loc 1 685 0 is_stmt 1
 1853 02f2 7B68     		ldr	r3, [r7, #4]
 1854 02f4 0422     		movs	r2, #4
 1855 02f6 1A74     		strb	r2, [r3, #16]
 686:Libraries/lwip-1.4.0/core/tcp_in.c ****         LWIP_DEBUGF(TCP_DEBUG, ("TCP connection established %"U16_F" -> %"U16_F".\n", inseg.tcphdr-
 687:Libraries/lwip-1.4.0/core/tcp_in.c **** #if LWIP_CALLBACK_API
 688:Libraries/lwip-1.4.0/core/tcp_in.c ****         LWIP_ASSERT("pcb->accept != NULL", pcb->accept != NULL);
 689:Libraries/lwip-1.4.0/core/tcp_in.c **** #endif
 690:Libraries/lwip-1.4.0/core/tcp_in.c ****         /* Call the accept function. i.e acceptTCP()*/
 691:Libraries/lwip-1.4.0/core/tcp_in.c ****         TCP_EVENT_ACCEPT(pcb, ERR_OK, err);
 1856              		.loc 1 691 0
 1857 02f8 7B68     		ldr	r3, [r7, #4]
 1858 02fa 9B69     		ldr	r3, [r3, #24]
 1859 02fc 002B     		cmp	r3, #0
 1860 02fe 08D0     		beq	.L105
 1861              		.loc 1 691 0 is_stmt 0 discriminator 1
 1862 0300 7B68     		ldr	r3, [r7, #4]
 1863 0302 9B69     		ldr	r3, [r3, #24]
 1864 0304 7A68     		ldr	r2, [r7, #4]
 1865 0306 5069     		ldr	r0, [r2, #20]
 1866 0308 0022     		movs	r2, #0
 1867 030a 7968     		ldr	r1, [r7, #4]
 1868 030c 9847     		blx	r3
 1869 030e 3861     		str	r0, [r7, #16]
 1870 0310 02E0     		b	.L106
 1871              	.L105:
 1872              		.loc 1 691 0 discriminator 2
 1873 0312 6FF00D03 		mvn	r3, #13
 1874 0316 3B61     		str	r3, [r7, #16]
 1875              	.L106:
 692:Libraries/lwip-1.4.0/core/tcp_in.c ****         if (err != ERR_OK) {
 1876              		.loc 1 692 0 is_stmt 1
 1877 0318 3B69     		ldr	r3, [r7, #16]
 1878 031a 002B     		cmp	r3, #0
 1879 031c 09D0     		beq	.L107
 693:Libraries/lwip-1.4.0/core/tcp_in.c ****           /* If the accept function returns with an error, we abort
 694:Libraries/lwip-1.4.0/core/tcp_in.c ****            * the connection. */
 695:Libraries/lwip-1.4.0/core/tcp_in.c ****           /* Already aborted? */
 696:Libraries/lwip-1.4.0/core/tcp_in.c ****           if (err != ERR_ABRT) {
 1880              		.loc 1 696 0
 1881 031e 3B69     		ldr	r3, [r7, #16]
 1882 0320 13F10A0F 		cmn	r3, #10
 1883 0324 02D0     		beq	.L108
 697:Libraries/lwip-1.4.0/core/tcp_in.c ****             tcp_abort(pcb);
 1884              		.loc 1 697 0
 1885 0326 7868     		ldr	r0, [r7, #4]
 1886 0328 FFF7FEFF 		bl	tcp_abort
 1887              	.L108:
 698:Libraries/lwip-1.4.0/core/tcp_in.c ****           }
 699:Libraries/lwip-1.4.0/core/tcp_in.c ****           return ERR_ABRT;
 1888              		.loc 1 699 0
 1889 032c 6FF00903 		mvn	r3, #9
 1890 0330 BAE1     		b	.L81
 1891              	.L107:
 700:Libraries/lwip-1.4.0/core/tcp_in.c ****         }
 701:Libraries/lwip-1.4.0/core/tcp_in.c ****         old_cwnd = pcb->cwnd;
 1892              		.loc 1 701 0
 1893 0332 7B68     		ldr	r3, [r7, #4]
 1894 0334 B3F85230 		ldrh	r3, [r3, #82]	@ movhi
 1895 0338 7B81     		strh	r3, [r7, #10]	@ movhi
 702:Libraries/lwip-1.4.0/core/tcp_in.c ****         /* If there was any data contained within this ACK,
 703:Libraries/lwip-1.4.0/core/tcp_in.c ****          * we'd better pass it on to the application as well. */
 704:Libraries/lwip-1.4.0/core/tcp_in.c ****         tcp_receive(pcb);
 1896              		.loc 1 704 0
 1897 033a 7868     		ldr	r0, [r7, #4]
 1898 033c FFF7FEFF 		bl	tcp_receive
 705:Libraries/lwip-1.4.0/core/tcp_in.c **** 
 706:Libraries/lwip-1.4.0/core/tcp_in.c ****         /* Prevent ACK for SYN to generate a sent event */
 707:Libraries/lwip-1.4.0/core/tcp_in.c ****         if (pcb->acked != 0) {
 1899              		.loc 1 707 0
 1900 0340 7B68     		ldr	r3, [r7, #4]
 1901 0342 B3F86C30 		ldrh	r3, [r3, #108]
 1902 0346 002B     		cmp	r3, #0
 1903 0348 07D0     		beq	.L109
 708:Libraries/lwip-1.4.0/core/tcp_in.c ****           pcb->acked--;
 1904              		.loc 1 708 0
 1905 034a 7B68     		ldr	r3, [r7, #4]
 1906 034c B3F86C30 		ldrh	r3, [r3, #108]
 1907 0350 013B     		subs	r3, r3, #1
 1908 0352 9AB2     		uxth	r2, r3
 1909 0354 7B68     		ldr	r3, [r7, #4]
 1910 0356 A3F86C20 		strh	r2, [r3, #108]	@ movhi
 1911              	.L109:
 709:Libraries/lwip-1.4.0/core/tcp_in.c ****         }
 710:Libraries/lwip-1.4.0/core/tcp_in.c **** 
 711:Libraries/lwip-1.4.0/core/tcp_in.c ****         pcb->cwnd = ((old_cwnd == 1) ? (pcb->mss * 2) : pcb->mss);
 1912              		.loc 1 711 0
 1913 035a 7B89     		ldrh	r3, [r7, #10]
 1914 035c 012B     		cmp	r3, #1
 1915 035e 04D1     		bne	.L110
 1916              		.loc 1 711 0 is_stmt 0 discriminator 1
 1917 0360 7B68     		ldr	r3, [r7, #4]
 1918 0362 1B8F     		ldrh	r3, [r3, #56]
 1919 0364 5B00     		lsls	r3, r3, #1
 1920 0366 9BB2     		uxth	r3, r3
 1921 0368 01E0     		b	.L111
 1922              	.L110:
 1923              		.loc 1 711 0 discriminator 2
 1924 036a 7B68     		ldr	r3, [r7, #4]
 1925 036c 1B8F     		ldrh	r3, [r3, #56]
 1926              	.L111:
 1927              		.loc 1 711 0 discriminator 4
 1928 036e 7A68     		ldr	r2, [r7, #4]
 1929 0370 A2F85230 		strh	r3, [r2, #82]	@ movhi
 712:Libraries/lwip-1.4.0/core/tcp_in.c **** 
 713:Libraries/lwip-1.4.0/core/tcp_in.c ****         if (recv_flags & TF_GOT_FIN) {
 1930              		.loc 1 713 0 is_stmt 1 discriminator 4
 1931 0374 774B     		ldr	r3, .L149+8
 1932 0376 1B78     		ldrb	r3, [r3]	@ zero_extendqisi2
 1933 0378 03F02003 		and	r3, r3, #32
 1934 037c 002B     		cmp	r3, #0
 1935 037e 36D0     		beq	.L140
 714:Libraries/lwip-1.4.0/core/tcp_in.c ****           tcp_ack_now(pcb);
 1936              		.loc 1 714 0
 1937 0380 7B68     		ldr	r3, [r7, #4]
 1938 0382 93F82030 		ldrb	r3, [r3, #32]	@ zero_extendqisi2
 1939 0386 43F00203 		orr	r3, r3, #2
 1940 038a DAB2     		uxtb	r2, r3
 1941 038c 7B68     		ldr	r3, [r7, #4]
 1942 038e 83F82020 		strb	r2, [r3, #32]
 715:Libraries/lwip-1.4.0/core/tcp_in.c ****           pcb->state = CLOSE_WAIT;
 1943              		.loc 1 715 0
 1944 0392 7B68     		ldr	r3, [r7, #4]
 1945 0394 0722     		movs	r2, #7
 1946 0396 1A74     		strb	r2, [r3, #16]
 1947              	.LBE2:
 683:Libraries/lwip-1.4.0/core/tcp_in.c ****         u16_t old_cwnd;
 1948              		.loc 1 683 0
 1949 0398 29E0     		b	.L140
 1950              	.L104:
 716:Libraries/lwip-1.4.0/core/tcp_in.c ****         }
 717:Libraries/lwip-1.4.0/core/tcp_in.c ****       } else {
 718:Libraries/lwip-1.4.0/core/tcp_in.c ****         /* incorrect ACK number, send RST */
 719:Libraries/lwip-1.4.0/core/tcp_in.c ****         tcp_rst(ackno, seqno + tcplen, ip_current_dest_addr(), ip_current_src_addr(),
 1951              		.loc 1 719 0
 1952 039a 6D4B     		ldr	r3, .L149+4
 1953 039c 1868     		ldr	r0, [r3]
 1954 039e 6E4B     		ldr	r3, .L149+12
 1955 03a0 1B88     		ldrh	r3, [r3]
 1956 03a2 1A46     		mov	r2, r3
 1957 03a4 6D4B     		ldr	r3, .L149+16
 1958 03a6 1B68     		ldr	r3, [r3]
 1959 03a8 D118     		adds	r1, r2, r3
 720:Libraries/lwip-1.4.0/core/tcp_in.c ****                 tcphdr->dest, tcphdr->src);
 1960              		.loc 1 720 0
 1961 03aa 6D4B     		ldr	r3, .L149+20
 1962 03ac 1B68     		ldr	r3, [r3]
 719:Libraries/lwip-1.4.0/core/tcp_in.c ****                 tcphdr->dest, tcphdr->src);
 1963              		.loc 1 719 0
 1964 03ae 5B88     		ldrh	r3, [r3, #2]	@ unaligned
 1965 03b0 9BB2     		uxth	r3, r3
 1966              		.loc 1 720 0
 1967 03b2 6B4A     		ldr	r2, .L149+20
 1968 03b4 1268     		ldr	r2, [r2]
 719:Libraries/lwip-1.4.0/core/tcp_in.c ****                 tcphdr->dest, tcphdr->src);
 1969              		.loc 1 719 0
 1970 03b6 1288     		ldrh	r2, [r2]	@ unaligned
 1971 03b8 92B2     		uxth	r2, r2
 1972 03ba 0192     		str	r2, [sp, #4]
 1973 03bc 0093     		str	r3, [sp]
 1974 03be 694B     		ldr	r3, .L149+24
 1975 03c0 694A     		ldr	r2, .L149+28
 1976 03c2 FFF7FEFF 		bl	tcp_rst
 721:Libraries/lwip-1.4.0/core/tcp_in.c ****       }
 722:Libraries/lwip-1.4.0/core/tcp_in.c ****     } else if ((flags & TCP_SYN) && (seqno == pcb->rcv_nxt - 1)) {
 723:Libraries/lwip-1.4.0/core/tcp_in.c ****       /* Looks like another copy of the SYN - retransmit our SYN-ACK */
 724:Libraries/lwip-1.4.0/core/tcp_in.c ****       tcp_rexmit(pcb);
 725:Libraries/lwip-1.4.0/core/tcp_in.c ****     }
 726:Libraries/lwip-1.4.0/core/tcp_in.c ****     break;
 1977              		.loc 1 726 0
 1978 03c6 63E1     		b	.L141
 1979              	.L103:
 722:Libraries/lwip-1.4.0/core/tcp_in.c ****       /* Looks like another copy of the SYN - retransmit our SYN-ACK */
 1980              		.loc 1 722 0
 1981 03c8 604B     		ldr	r3, .L149
 1982 03ca 1B78     		ldrb	r3, [r3]	@ zero_extendqisi2
 1983 03cc 03F00203 		and	r3, r3, #2
 1984 03d0 002B     		cmp	r3, #0
 1985 03d2 00F05D81 		beq	.L141
 722:Libraries/lwip-1.4.0/core/tcp_in.c ****       /* Looks like another copy of the SYN - retransmit our SYN-ACK */
 1986              		.loc 1 722 0 is_stmt 0 discriminator 1
 1987 03d6 7B68     		ldr	r3, [r7, #4]
 1988 03d8 5B6A     		ldr	r3, [r3, #36]
 1989 03da 5A1E     		subs	r2, r3, #1
 1990 03dc 5F4B     		ldr	r3, .L149+16
 1991 03de 1B68     		ldr	r3, [r3]
 1992 03e0 9A42     		cmp	r2, r3
 1993 03e2 40F05581 		bne	.L141
 724:Libraries/lwip-1.4.0/core/tcp_in.c ****     }
 1994              		.loc 1 724 0 is_stmt 1
 1995 03e6 7868     		ldr	r0, [r7, #4]
 1996 03e8 FFF7FEFF 		bl	tcp_rexmit
 1997              		.loc 1 726 0
 1998 03ec 50E1     		b	.L141
 1999              	.L140:
 683:Libraries/lwip-1.4.0/core/tcp_in.c ****         u16_t old_cwnd;
 2000              		.loc 1 683 0
 2001 03ee 00BF     		nop
 2002              		.loc 1 726 0
 2003 03f0 4EE1     		b	.L141
 2004              	.L88:
 727:Libraries/lwip-1.4.0/core/tcp_in.c ****   case CLOSE_WAIT:
 728:Libraries/lwip-1.4.0/core/tcp_in.c ****     /* FALLTHROUGH */
 729:Libraries/lwip-1.4.0/core/tcp_in.c ****   case ESTABLISHED:
 730:Libraries/lwip-1.4.0/core/tcp_in.c ****     tcp_receive(pcb);
 2005              		.loc 1 730 0
 2006 03f2 7868     		ldr	r0, [r7, #4]
 2007 03f4 FFF7FEFF 		bl	tcp_receive
 731:Libraries/lwip-1.4.0/core/tcp_in.c ****     if (recv_flags & TF_GOT_FIN) { /* passive close */
 2008              		.loc 1 731 0
 2009 03f8 564B     		ldr	r3, .L149+8
 2010 03fa 1B78     		ldrb	r3, [r3]	@ zero_extendqisi2
 2011 03fc 03F02003 		and	r3, r3, #32
 2012 0400 002B     		cmp	r3, #0
 2013 0402 00F04781 		beq	.L142
 732:Libraries/lwip-1.4.0/core/tcp_in.c ****       tcp_ack_now(pcb);
 2014              		.loc 1 732 0
 2015 0406 7B68     		ldr	r3, [r7, #4]
 2016 0408 93F82030 		ldrb	r3, [r3, #32]	@ zero_extendqisi2
 2017 040c 43F00203 		orr	r3, r3, #2
 2018 0410 DAB2     		uxtb	r2, r3
 2019 0412 7B68     		ldr	r3, [r7, #4]
 2020 0414 83F82020 		strb	r2, [r3, #32]
 733:Libraries/lwip-1.4.0/core/tcp_in.c ****       pcb->state = CLOSE_WAIT;
 2021              		.loc 1 733 0
 2022 0418 7B68     		ldr	r3, [r7, #4]
 2023 041a 0722     		movs	r2, #7
 2024 041c 1A74     		strb	r2, [r3, #16]
 734:Libraries/lwip-1.4.0/core/tcp_in.c ****     }
 735:Libraries/lwip-1.4.0/core/tcp_in.c ****     break;
 2025              		.loc 1 735 0
 2026 041e 39E1     		b	.L142
 2027              	.L89:
 736:Libraries/lwip-1.4.0/core/tcp_in.c ****   case FIN_WAIT_1:
 737:Libraries/lwip-1.4.0/core/tcp_in.c ****     tcp_receive(pcb);
 2028              		.loc 1 737 0
 2029 0420 7868     		ldr	r0, [r7, #4]
 2030 0422 FFF7FEFF 		bl	tcp_receive
 738:Libraries/lwip-1.4.0/core/tcp_in.c ****     if (recv_flags & TF_GOT_FIN) {
 2031              		.loc 1 738 0
 2032 0426 4B4B     		ldr	r3, .L149+8
 2033 0428 1B78     		ldrb	r3, [r3]	@ zero_extendqisi2
 2034 042a 03F02003 		and	r3, r3, #32
 2035 042e 002B     		cmp	r3, #0
 2036 0430 59D0     		beq	.L116
 739:Libraries/lwip-1.4.0/core/tcp_in.c ****       if ((flags & TCP_ACK) && (ackno == pcb->snd_nxt)) {
 2037              		.loc 1 739 0
 2038 0432 464B     		ldr	r3, .L149
 2039 0434 1B78     		ldrb	r3, [r3]	@ zero_extendqisi2
 2040 0436 03F01003 		and	r3, r3, #16
 2041 043a 002B     		cmp	r3, #0
 2042 043c 46D0     		beq	.L117
 2043              		.loc 1 739 0 is_stmt 0 discriminator 1
 2044 043e 7B68     		ldr	r3, [r7, #4]
 2045 0440 9A6D     		ldr	r2, [r3, #88]
 2046 0442 434B     		ldr	r3, .L149+4
 2047 0444 1B68     		ldr	r3, [r3]
 2048 0446 9A42     		cmp	r2, r3
 2049 0448 40D1     		bne	.L117
 740:Libraries/lwip-1.4.0/core/tcp_in.c ****         LWIP_DEBUGF(TCP_DEBUG,
 741:Libraries/lwip-1.4.0/core/tcp_in.c ****           ("TCP connection closed: FIN_WAIT_1 %"U16_F" -> %"U16_F".\n", inseg.tcphdr->src, inseg.tc
 742:Libraries/lwip-1.4.0/core/tcp_in.c ****         tcp_ack_now(pcb);
 2050              		.loc 1 742 0 is_stmt 1
 2051 044a 7B68     		ldr	r3, [r7, #4]
 2052 044c 93F82030 		ldrb	r3, [r3, #32]	@ zero_extendqisi2
 2053 0450 43F00203 		orr	r3, r3, #2
 2054 0454 DAB2     		uxtb	r2, r3
 2055 0456 7B68     		ldr	r3, [r7, #4]
 2056 0458 83F82020 		strb	r2, [r3, #32]
 743:Libraries/lwip-1.4.0/core/tcp_in.c ****         tcp_pcb_purge(pcb);
 2057              		.loc 1 743 0
 2058 045c 7868     		ldr	r0, [r7, #4]
 2059 045e FFF7FEFF 		bl	tcp_pcb_purge
 744:Libraries/lwip-1.4.0/core/tcp_in.c ****         TCP_RMV(&tcp_active_pcbs, pcb);
 2060              		.loc 1 744 0
 2061 0462 424B     		ldr	r3, .L149+32
 2062 0464 1A68     		ldr	r2, [r3]
 2063 0466 7B68     		ldr	r3, [r7, #4]
 2064 0468 9A42     		cmp	r2, r3
 2065 046a 05D1     		bne	.L118
 2066              		.loc 1 744 0 is_stmt 0 discriminator 1
 2067 046c 3F4B     		ldr	r3, .L149+32
 2068 046e 1B68     		ldr	r3, [r3]
 2069 0470 DB68     		ldr	r3, [r3, #12]
 2070 0472 3E4A     		ldr	r2, .L149+32
 2071 0474 1360     		str	r3, [r2]
 2072 0476 19E0     		b	.L119
 2073              	.L118:
 2074              		.loc 1 744 0 discriminator 2
 2075 0478 3C4B     		ldr	r3, .L149+32
 2076 047a 1B68     		ldr	r3, [r3]
 2077 047c 3C4A     		ldr	r2, .L149+36
 2078 047e 1360     		str	r3, [r2]
 2079 0480 10E0     		b	.L120
 2080              	.L122:
 2081              		.loc 1 744 0 discriminator 9
 2082 0482 3B4B     		ldr	r3, .L149+36
 2083 0484 1B68     		ldr	r3, [r3]
 2084 0486 DA68     		ldr	r2, [r3, #12]
 2085 0488 7B68     		ldr	r3, [r7, #4]
 2086 048a 9A42     		cmp	r2, r3
 2087 048c 05D1     		bne	.L121
 2088              		.loc 1 744 0 discriminator 5
 2089 048e 384B     		ldr	r3, .L149+36
 2090 0490 1B68     		ldr	r3, [r3]
 2091 0492 7A68     		ldr	r2, [r7, #4]
 2092 0494 D268     		ldr	r2, [r2, #12]
 2093 0496 DA60     		str	r2, [r3, #12]
 2094 0498 08E0     		b	.L119
 2095              	.L121:
 2096              		.loc 1 744 0 discriminator 6
 2097 049a 354B     		ldr	r3, .L149+36
 2098 049c 1B68     		ldr	r3, [r3]
 2099 049e DB68     		ldr	r3, [r3, #12]
 2100 04a0 334A     		ldr	r2, .L149+36
 2101 04a2 1360     		str	r3, [r2]
 2102              	.L120:
 2103              		.loc 1 744 0 discriminator 8
 2104 04a4 324B     		ldr	r3, .L149+36
 2105 04a6 1B68     		ldr	r3, [r3]
 2106 04a8 002B     		cmp	r3, #0
 2107 04aa EAD1     		bne	.L122
 2108              	.L119:
 2109              		.loc 1 744 0 discriminator 10
 2110 04ac 7B68     		ldr	r3, [r7, #4]
 2111 04ae 0022     		movs	r2, #0
 2112 04b0 DA60     		str	r2, [r3, #12]
 745:Libraries/lwip-1.4.0/core/tcp_in.c ****         pcb->state = TIME_WAIT;
 2113              		.loc 1 745 0 is_stmt 1 discriminator 10
 2114 04b2 7B68     		ldr	r3, [r7, #4]
 2115 04b4 0A22     		movs	r2, #10
 2116 04b6 1A74     		strb	r2, [r3, #16]
 746:Libraries/lwip-1.4.0/core/tcp_in.c ****         TCP_REG(&tcp_tw_pcbs, pcb);
 2117              		.loc 1 746 0 discriminator 10
 2118 04b8 2E4B     		ldr	r3, .L149+40
 2119 04ba 1A68     		ldr	r2, [r3]
 2120 04bc 7B68     		ldr	r3, [r7, #4]
 2121 04be DA60     		str	r2, [r3, #12]
 2122 04c0 2C4A     		ldr	r2, .L149+40
 2123 04c2 7B68     		ldr	r3, [r7, #4]
 2124 04c4 1360     		str	r3, [r2]
 2125 04c6 FFF7FEFF 		bl	tcp_timer_needed
 747:Libraries/lwip-1.4.0/core/tcp_in.c ****       } else {
 748:Libraries/lwip-1.4.0/core/tcp_in.c ****         tcp_ack_now(pcb);
 749:Libraries/lwip-1.4.0/core/tcp_in.c ****         pcb->state = CLOSING;
 750:Libraries/lwip-1.4.0/core/tcp_in.c ****       }
 751:Libraries/lwip-1.4.0/core/tcp_in.c ****     } else if ((flags & TCP_ACK) && (ackno == pcb->snd_nxt)) {
 752:Libraries/lwip-1.4.0/core/tcp_in.c ****       pcb->state = FIN_WAIT_2;
 753:Libraries/lwip-1.4.0/core/tcp_in.c ****     }
 754:Libraries/lwip-1.4.0/core/tcp_in.c ****     break;
 2126              		.loc 1 754 0 discriminator 10
 2127 04ca E5E0     		b	.L143
 2128              	.L117:
 748:Libraries/lwip-1.4.0/core/tcp_in.c ****         pcb->state = CLOSING;
 2129              		.loc 1 748 0
 2130 04cc 7B68     		ldr	r3, [r7, #4]
 2131 04ce 93F82030 		ldrb	r3, [r3, #32]	@ zero_extendqisi2
 2132 04d2 43F00203 		orr	r3, r3, #2
 2133 04d6 DAB2     		uxtb	r2, r3
 2134 04d8 7B68     		ldr	r3, [r7, #4]
 2135 04da 83F82020 		strb	r2, [r3, #32]
 749:Libraries/lwip-1.4.0/core/tcp_in.c ****       }
 2136              		.loc 1 749 0
 2137 04de 7B68     		ldr	r3, [r7, #4]
 2138 04e0 0822     		movs	r2, #8
 2139 04e2 1A74     		strb	r2, [r3, #16]
 2140              		.loc 1 754 0
 2141 04e4 D8E0     		b	.L143
 2142              	.L116:
 751:Libraries/lwip-1.4.0/core/tcp_in.c ****       pcb->state = FIN_WAIT_2;
 2143              		.loc 1 751 0
 2144 04e6 194B     		ldr	r3, .L149
 2145 04e8 1B78     		ldrb	r3, [r3]	@ zero_extendqisi2
 2146 04ea 03F01003 		and	r3, r3, #16
 2147 04ee 002B     		cmp	r3, #0
 2148 04f0 00F0D280 		beq	.L143
 751:Libraries/lwip-1.4.0/core/tcp_in.c ****       pcb->state = FIN_WAIT_2;
 2149              		.loc 1 751 0 is_stmt 0 discriminator 1
 2150 04f4 7B68     		ldr	r3, [r7, #4]
 2151 04f6 9A6D     		ldr	r2, [r3, #88]
 2152 04f8 154B     		ldr	r3, .L149+4
 2153 04fa 1B68     		ldr	r3, [r3]
 2154 04fc 9A42     		cmp	r2, r3
 2155 04fe 40F0CB80 		bne	.L143
 752:Libraries/lwip-1.4.0/core/tcp_in.c ****     }
 2156              		.loc 1 752 0 is_stmt 1
 2157 0502 7B68     		ldr	r3, [r7, #4]
 2158 0504 0622     		movs	r2, #6
 2159 0506 1A74     		strb	r2, [r3, #16]
 2160              		.loc 1 754 0
 2161 0508 C6E0     		b	.L143
 2162              	.L90:
 755:Libraries/lwip-1.4.0/core/tcp_in.c ****   case FIN_WAIT_2:
 756:Libraries/lwip-1.4.0/core/tcp_in.c ****     tcp_receive(pcb);
 2163              		.loc 1 756 0
 2164 050a 7868     		ldr	r0, [r7, #4]
 2165 050c FFF7FEFF 		bl	tcp_receive
 757:Libraries/lwip-1.4.0/core/tcp_in.c ****     if (recv_flags & TF_GOT_FIN) {
 2166              		.loc 1 757 0
 2167 0510 104B     		ldr	r3, .L149+8
 2168 0512 1B78     		ldrb	r3, [r3]	@ zero_extendqisi2
 2169 0514 03F02003 		and	r3, r3, #32
 2170 0518 002B     		cmp	r3, #0
 2171 051a 00F0BF80 		beq	.L144
 758:Libraries/lwip-1.4.0/core/tcp_in.c ****       LWIP_DEBUGF(TCP_DEBUG, ("TCP connection closed: FIN_WAIT_2 %"U16_F" -> %"U16_F".\n", inseg.tc
 759:Libraries/lwip-1.4.0/core/tcp_in.c ****       tcp_ack_now(pcb);
 2172              		.loc 1 759 0
 2173 051e 7B68     		ldr	r3, [r7, #4]
 2174 0520 93F82030 		ldrb	r3, [r3, #32]	@ zero_extendqisi2
 2175 0524 43F00203 		orr	r3, r3, #2
 2176 0528 DAB2     		uxtb	r2, r3
 2177 052a 7B68     		ldr	r3, [r7, #4]
 2178 052c 83F82020 		strb	r2, [r3, #32]
 760:Libraries/lwip-1.4.0/core/tcp_in.c ****       tcp_pcb_purge(pcb);
 2179              		.loc 1 760 0
 2180 0530 7868     		ldr	r0, [r7, #4]
 2181 0532 FFF7FEFF 		bl	tcp_pcb_purge
 761:Libraries/lwip-1.4.0/core/tcp_in.c ****       TCP_RMV(&tcp_active_pcbs, pcb);
 2182              		.loc 1 761 0
 2183 0536 0D4B     		ldr	r3, .L149+32
 2184 0538 1A68     		ldr	r2, [r3]
 2185 053a 7B68     		ldr	r3, [r7, #4]
 2186 053c 9A42     		cmp	r2, r3
 2187 053e 1BD1     		bne	.L126
 2188              		.loc 1 761 0 is_stmt 0 discriminator 1
 2189 0540 0A4B     		ldr	r3, .L149+32
 2190 0542 1B68     		ldr	r3, [r3]
 2191 0544 DB68     		ldr	r3, [r3, #12]
 2192 0546 094A     		ldr	r2, .L149+32
 2193 0548 1360     		str	r3, [r2]
 2194 054a 2FE0     		b	.L127
 2195              	.L150:
 2196              		.align	2
 2197              	.L149:
 2198 054c 00000000 		.word	flags
 2199 0550 00000000 		.word	ackno
 2200 0554 00000000 		.word	recv_flags
 2201 0558 00000000 		.word	tcplen
 2202 055c 00000000 		.word	seqno
 2203 0560 00000000 		.word	tcphdr
 2204 0564 00000000 		.word	current_iphdr_src
 2205 0568 00000000 		.word	current_iphdr_dest
 2206 056c 00000000 		.word	tcp_active_pcbs
 2207 0570 00000000 		.word	tcp_tmp_pcb
 2208 0574 00000000 		.word	tcp_tw_pcbs
 2209              	.L126:
 2210              		.loc 1 761 0 discriminator 2
 2211 0578 4D4B     		ldr	r3, .L151
 2212 057a 1B68     		ldr	r3, [r3]
 2213 057c 4D4A     		ldr	r2, .L151+4
 2214 057e 1360     		str	r3, [r2]
 2215 0580 10E0     		b	.L128
 2216              	.L130:
 2217              		.loc 1 761 0 discriminator 9
 2218 0582 4C4B     		ldr	r3, .L151+4
 2219 0584 1B68     		ldr	r3, [r3]
 2220 0586 DA68     		ldr	r2, [r3, #12]
 2221 0588 7B68     		ldr	r3, [r7, #4]
 2222 058a 9A42     		cmp	r2, r3
 2223 058c 05D1     		bne	.L129
 2224              		.loc 1 761 0 discriminator 5
 2225 058e 494B     		ldr	r3, .L151+4
 2226 0590 1B68     		ldr	r3, [r3]
 2227 0592 7A68     		ldr	r2, [r7, #4]
 2228 0594 D268     		ldr	r2, [r2, #12]
 2229 0596 DA60     		str	r2, [r3, #12]
 2230 0598 08E0     		b	.L127
 2231              	.L129:
 2232              		.loc 1 761 0 discriminator 6
 2233 059a 464B     		ldr	r3, .L151+4
 2234 059c 1B68     		ldr	r3, [r3]
 2235 059e DB68     		ldr	r3, [r3, #12]
 2236 05a0 444A     		ldr	r2, .L151+4
 2237 05a2 1360     		str	r3, [r2]
 2238              	.L128:
 2239              		.loc 1 761 0 discriminator 8
 2240 05a4 434B     		ldr	r3, .L151+4
 2241 05a6 1B68     		ldr	r3, [r3]
 2242 05a8 002B     		cmp	r3, #0
 2243 05aa EAD1     		bne	.L130
 2244              	.L127:
 2245              		.loc 1 761 0 discriminator 10
 2246 05ac 7B68     		ldr	r3, [r7, #4]
 2247 05ae 0022     		movs	r2, #0
 2248 05b0 DA60     		str	r2, [r3, #12]
 762:Libraries/lwip-1.4.0/core/tcp_in.c ****       pcb->state = TIME_WAIT;
 2249              		.loc 1 762 0 is_stmt 1 discriminator 10
 2250 05b2 7B68     		ldr	r3, [r7, #4]
 2251 05b4 0A22     		movs	r2, #10
 2252 05b6 1A74     		strb	r2, [r3, #16]
 763:Libraries/lwip-1.4.0/core/tcp_in.c ****       TCP_REG(&tcp_tw_pcbs, pcb);
 2253              		.loc 1 763 0 discriminator 10
 2254 05b8 3F4B     		ldr	r3, .L151+8
 2255 05ba 1A68     		ldr	r2, [r3]
 2256 05bc 7B68     		ldr	r3, [r7, #4]
 2257 05be DA60     		str	r2, [r3, #12]
 2258 05c0 3D4A     		ldr	r2, .L151+8
 2259 05c2 7B68     		ldr	r3, [r7, #4]
 2260 05c4 1360     		str	r3, [r2]
 2261 05c6 FFF7FEFF 		bl	tcp_timer_needed
 764:Libraries/lwip-1.4.0/core/tcp_in.c ****     }
 765:Libraries/lwip-1.4.0/core/tcp_in.c ****     break;
 2262              		.loc 1 765 0 discriminator 10
 2263 05ca 67E0     		b	.L144
 2264              	.L91:
 766:Libraries/lwip-1.4.0/core/tcp_in.c ****   case CLOSING:
 767:Libraries/lwip-1.4.0/core/tcp_in.c ****     tcp_receive(pcb);
 2265              		.loc 1 767 0
 2266 05cc 7868     		ldr	r0, [r7, #4]
 2267 05ce FFF7FEFF 		bl	tcp_receive
 768:Libraries/lwip-1.4.0/core/tcp_in.c ****     if (flags & TCP_ACK && ackno == pcb->snd_nxt) {
 2268              		.loc 1 768 0
 2269 05d2 3A4B     		ldr	r3, .L151+12
 2270 05d4 1B78     		ldrb	r3, [r3]	@ zero_extendqisi2
 2271 05d6 03F01003 		and	r3, r3, #16
 2272 05da 002B     		cmp	r3, #0
 2273 05dc 60D0     		beq	.L145
 2274              		.loc 1 768 0 is_stmt 0 discriminator 1
 2275 05de 7B68     		ldr	r3, [r7, #4]
 2276 05e0 9A6D     		ldr	r2, [r3, #88]
 2277 05e2 374B     		ldr	r3, .L151+16
 2278 05e4 1B68     		ldr	r3, [r3]
 2279 05e6 9A42     		cmp	r2, r3
 2280 05e8 5AD1     		bne	.L145
 769:Libraries/lwip-1.4.0/core/tcp_in.c ****       LWIP_DEBUGF(TCP_DEBUG, ("TCP connection closed: CLOSING %"U16_F" -> %"U16_F".\n", inseg.tcphd
 770:Libraries/lwip-1.4.0/core/tcp_in.c ****       tcp_pcb_purge(pcb);
 2281              		.loc 1 770 0 is_stmt 1
 2282 05ea 7868     		ldr	r0, [r7, #4]
 2283 05ec FFF7FEFF 		bl	tcp_pcb_purge
 771:Libraries/lwip-1.4.0/core/tcp_in.c ****       TCP_RMV(&tcp_active_pcbs, pcb);
 2284              		.loc 1 771 0
 2285 05f0 2F4B     		ldr	r3, .L151
 2286 05f2 1A68     		ldr	r2, [r3]
 2287 05f4 7B68     		ldr	r3, [r7, #4]
 2288 05f6 9A42     		cmp	r2, r3
 2289 05f8 05D1     		bne	.L132
 2290              		.loc 1 771 0 is_stmt 0 discriminator 1
 2291 05fa 2D4B     		ldr	r3, .L151
 2292 05fc 1B68     		ldr	r3, [r3]
 2293 05fe DB68     		ldr	r3, [r3, #12]
 2294 0600 2B4A     		ldr	r2, .L151
 2295 0602 1360     		str	r3, [r2]
 2296 0604 19E0     		b	.L133
 2297              	.L132:
 2298              		.loc 1 771 0 discriminator 2
 2299 0606 2A4B     		ldr	r3, .L151
 2300 0608 1B68     		ldr	r3, [r3]
 2301 060a 2A4A     		ldr	r2, .L151+4
 2302 060c 1360     		str	r3, [r2]
 2303 060e 10E0     		b	.L134
 2304              	.L136:
 2305              		.loc 1 771 0 discriminator 9
 2306 0610 284B     		ldr	r3, .L151+4
 2307 0612 1B68     		ldr	r3, [r3]
 2308 0614 DA68     		ldr	r2, [r3, #12]
 2309 0616 7B68     		ldr	r3, [r7, #4]
 2310 0618 9A42     		cmp	r2, r3
 2311 061a 05D1     		bne	.L135
 2312              		.loc 1 771 0 discriminator 5
 2313 061c 254B     		ldr	r3, .L151+4
 2314 061e 1B68     		ldr	r3, [r3]
 2315 0620 7A68     		ldr	r2, [r7, #4]
 2316 0622 D268     		ldr	r2, [r2, #12]
 2317 0624 DA60     		str	r2, [r3, #12]
 2318 0626 08E0     		b	.L133
 2319              	.L135:
 2320              		.loc 1 771 0 discriminator 6
 2321 0628 224B     		ldr	r3, .L151+4
 2322 062a 1B68     		ldr	r3, [r3]
 2323 062c DB68     		ldr	r3, [r3, #12]
 2324 062e 214A     		ldr	r2, .L151+4
 2325 0630 1360     		str	r3, [r2]
 2326              	.L134:
 2327              		.loc 1 771 0 discriminator 8
 2328 0632 204B     		ldr	r3, .L151+4
 2329 0634 1B68     		ldr	r3, [r3]
 2330 0636 002B     		cmp	r3, #0
 2331 0638 EAD1     		bne	.L136
 2332              	.L133:
 2333              		.loc 1 771 0 discriminator 10
 2334 063a 7B68     		ldr	r3, [r7, #4]
 2335 063c 0022     		movs	r2, #0
 2336 063e DA60     		str	r2, [r3, #12]
 772:Libraries/lwip-1.4.0/core/tcp_in.c ****       pcb->state = TIME_WAIT;
 2337              		.loc 1 772 0 is_stmt 1 discriminator 10
 2338 0640 7B68     		ldr	r3, [r7, #4]
 2339 0642 0A22     		movs	r2, #10
 2340 0644 1A74     		strb	r2, [r3, #16]
 773:Libraries/lwip-1.4.0/core/tcp_in.c ****       TCP_REG(&tcp_tw_pcbs, pcb);
 2341              		.loc 1 773 0 discriminator 10
 2342 0646 1C4B     		ldr	r3, .L151+8
 2343 0648 1A68     		ldr	r2, [r3]
 2344 064a 7B68     		ldr	r3, [r7, #4]
 2345 064c DA60     		str	r2, [r3, #12]
 2346 064e 1A4A     		ldr	r2, .L151+8
 2347 0650 7B68     		ldr	r3, [r7, #4]
 2348 0652 1360     		str	r3, [r2]
 2349 0654 FFF7FEFF 		bl	tcp_timer_needed
 774:Libraries/lwip-1.4.0/core/tcp_in.c ****     }
 775:Libraries/lwip-1.4.0/core/tcp_in.c ****     break;
 2350              		.loc 1 775 0 discriminator 10
 2351 0658 22E0     		b	.L145
 2352              	.L92:
 776:Libraries/lwip-1.4.0/core/tcp_in.c ****   case LAST_ACK:
 777:Libraries/lwip-1.4.0/core/tcp_in.c ****     tcp_receive(pcb);
 2353              		.loc 1 777 0
 2354 065a 7868     		ldr	r0, [r7, #4]
 2355 065c FFF7FEFF 		bl	tcp_receive
 778:Libraries/lwip-1.4.0/core/tcp_in.c ****     if (flags & TCP_ACK && ackno == pcb->snd_nxt) {
 2356              		.loc 1 778 0
 2357 0660 164B     		ldr	r3, .L151+12
 2358 0662 1B78     		ldrb	r3, [r3]	@ zero_extendqisi2
 2359 0664 03F01003 		and	r3, r3, #16
 2360 0668 002B     		cmp	r3, #0
 2361 066a 1BD0     		beq	.L146
 2362              		.loc 1 778 0 is_stmt 0 discriminator 1
 2363 066c 7B68     		ldr	r3, [r7, #4]
 2364 066e 9A6D     		ldr	r2, [r3, #88]
 2365 0670 134B     		ldr	r3, .L151+16
 2366 0672 1B68     		ldr	r3, [r3]
 2367 0674 9A42     		cmp	r2, r3
 2368 0676 15D1     		bne	.L146
 779:Libraries/lwip-1.4.0/core/tcp_in.c ****       LWIP_DEBUGF(TCP_DEBUG, ("TCP connection closed: LAST_ACK %"U16_F" -> %"U16_F".\n", inseg.tcph
 780:Libraries/lwip-1.4.0/core/tcp_in.c ****       /* bugfix #21699: don't set pcb->state to CLOSED here or we risk leaking segments */
 781:Libraries/lwip-1.4.0/core/tcp_in.c ****       recv_flags |= TF_CLOSED;
 2369              		.loc 1 781 0 is_stmt 1
 2370 0678 124B     		ldr	r3, .L151+20
 2371 067a 1B78     		ldrb	r3, [r3]	@ zero_extendqisi2
 2372 067c 43F01003 		orr	r3, r3, #16
 2373 0680 DAB2     		uxtb	r2, r3
 2374 0682 104B     		ldr	r3, .L151+20
 2375 0684 1A70     		strb	r2, [r3]
 782:Libraries/lwip-1.4.0/core/tcp_in.c ****     }
 783:Libraries/lwip-1.4.0/core/tcp_in.c ****     break;
 2376              		.loc 1 783 0
 2377 0686 0DE0     		b	.L146
 2378              	.L138:
 784:Libraries/lwip-1.4.0/core/tcp_in.c ****   default:
 785:Libraries/lwip-1.4.0/core/tcp_in.c ****     break;
 2379              		.loc 1 785 0
 2380 0688 00BF     		nop
 2381 068a 0CE0     		b	.L102
 2382              	.L139:
 679:Libraries/lwip-1.4.0/core/tcp_in.c ****   case SYN_RCVD:
 2383              		.loc 1 679 0
 2384 068c 00BF     		nop
 2385 068e 0AE0     		b	.L102
 2386              	.L141:
 726:Libraries/lwip-1.4.0/core/tcp_in.c ****   case CLOSE_WAIT:
 2387              		.loc 1 726 0
 2388 0690 00BF     		nop
 2389 0692 08E0     		b	.L102
 2390              	.L142:
 735:Libraries/lwip-1.4.0/core/tcp_in.c ****   case FIN_WAIT_1:
 2391              		.loc 1 735 0
 2392 0694 00BF     		nop
 2393 0696 06E0     		b	.L102
 2394              	.L143:
 754:Libraries/lwip-1.4.0/core/tcp_in.c ****   case FIN_WAIT_2:
 2395              		.loc 1 754 0
 2396 0698 00BF     		nop
 2397 069a 04E0     		b	.L102
 2398              	.L144:
 765:Libraries/lwip-1.4.0/core/tcp_in.c ****   case CLOSING:
 2399              		.loc 1 765 0
 2400 069c 00BF     		nop
 2401 069e 02E0     		b	.L102
 2402              	.L145:
 775:Libraries/lwip-1.4.0/core/tcp_in.c ****   case LAST_ACK:
 2403              		.loc 1 775 0
 2404 06a0 00BF     		nop
 2405 06a2 00E0     		b	.L102
 2406              	.L146:
 783:Libraries/lwip-1.4.0/core/tcp_in.c ****   default:
 2407              		.loc 1 783 0
 2408 06a4 00BF     		nop
 2409              	.L102:
 786:Libraries/lwip-1.4.0/core/tcp_in.c ****   }
 787:Libraries/lwip-1.4.0/core/tcp_in.c ****   return ERR_OK;
 2410              		.loc 1 787 0
 2411 06a6 0023     		movs	r3, #0
 2412              	.L81:
 788:Libraries/lwip-1.4.0/core/tcp_in.c **** }
 2413              		.loc 1 788 0
 2414 06a8 1846     		mov	r0, r3
 2415 06aa 1837     		adds	r7, r7, #24
 2416              		.cfi_def_cfa_offset 8
 2417 06ac BD46     		mov	sp, r7
 2418              		.cfi_def_cfa_register 13
 2419              		@ sp needed
 2420 06ae 80BD     		pop	{r7, pc}
 2421              	.L152:
 2422              		.align	2
 2423              	.L151:
 2424 06b0 00000000 		.word	tcp_active_pcbs
 2425 06b4 00000000 		.word	tcp_tmp_pcb
 2426 06b8 00000000 		.word	tcp_tw_pcbs
 2427 06bc 00000000 		.word	flags
 2428 06c0 00000000 		.word	ackno
 2429 06c4 00000000 		.word	recv_flags
 2430              		.cfi_endproc
 2431              	.LFE20:
 2433              		.section	.text.tcp_oos_insert_segment,"ax",%progbits
 2434              		.align	2
 2435              		.thumb
 2436              		.thumb_func
 2438              	tcp_oos_insert_segment:
 2439              	.LFB21:
 789:Libraries/lwip-1.4.0/core/tcp_in.c **** 
 790:Libraries/lwip-1.4.0/core/tcp_in.c **** #if TCP_QUEUE_OOSEQ
 791:Libraries/lwip-1.4.0/core/tcp_in.c **** /**
 792:Libraries/lwip-1.4.0/core/tcp_in.c ****  * Insert segment into the list (segments covered with new one will be deleted)
 793:Libraries/lwip-1.4.0/core/tcp_in.c ****  *
 794:Libraries/lwip-1.4.0/core/tcp_in.c ****  * Called from tcp_receive()
 795:Libraries/lwip-1.4.0/core/tcp_in.c ****  */
 796:Libraries/lwip-1.4.0/core/tcp_in.c **** static void
 797:Libraries/lwip-1.4.0/core/tcp_in.c **** tcp_oos_insert_segment(struct tcp_seg *cseg, struct tcp_seg *next)
 798:Libraries/lwip-1.4.0/core/tcp_in.c **** {
 2440              		.loc 1 798 0
 2441              		.cfi_startproc
 2442              		@ args = 0, pretend = 0, frame = 16
 2443              		@ frame_needed = 1, uses_anonymous_args = 0
 2444 0000 B0B5     		push	{r4, r5, r7, lr}
 2445              		.cfi_def_cfa_offset 16
 2446              		.cfi_offset 4, -16
 2447              		.cfi_offset 5, -12
 2448              		.cfi_offset 7, -8
 2449              		.cfi_offset 14, -4
 2450 0002 84B0     		sub	sp, sp, #16
 2451              		.cfi_def_cfa_offset 32
 2452 0004 00AF     		add	r7, sp, #0
 2453              		.cfi_def_cfa_register 7
 2454 0006 7860     		str	r0, [r7, #4]
 2455 0008 3960     		str	r1, [r7]
 799:Libraries/lwip-1.4.0/core/tcp_in.c ****   struct tcp_seg *old_seg;
 800:Libraries/lwip-1.4.0/core/tcp_in.c **** 
 801:Libraries/lwip-1.4.0/core/tcp_in.c ****   if (TCPH_FLAGS(cseg->tcphdr) & TCP_FIN) {
 2456              		.loc 1 801 0
 2457 000a 7B68     		ldr	r3, [r7, #4]
 2458 000c DB68     		ldr	r3, [r3, #12]
 2459 000e 9B89     		ldrh	r3, [r3, #12]	@ unaligned
 2460 0010 9BB2     		uxth	r3, r3
 2461 0012 1846     		mov	r0, r3
 2462 0014 FFF7FEFF 		bl	lwip_ntohs
 2463 0018 0346     		mov	r3, r0
 2464 001a 03F00103 		and	r3, r3, #1
 2465 001e 002B     		cmp	r3, #0
 2466 0020 26D0     		beq	.L156
 802:Libraries/lwip-1.4.0/core/tcp_in.c ****     /* received segment overlaps all following segments */
 803:Libraries/lwip-1.4.0/core/tcp_in.c ****     tcp_segs_free(next);
 2467              		.loc 1 803 0
 2468 0022 3868     		ldr	r0, [r7]
 2469 0024 FFF7FEFF 		bl	tcp_segs_free
 804:Libraries/lwip-1.4.0/core/tcp_in.c ****     next = NULL;
 2470              		.loc 1 804 0
 2471 0028 0023     		movs	r3, #0
 2472 002a 3B60     		str	r3, [r7]
 2473 002c 54E0     		b	.L155
 2474              	.L159:
 805:Libraries/lwip-1.4.0/core/tcp_in.c ****   }
 806:Libraries/lwip-1.4.0/core/tcp_in.c ****   else {
 807:Libraries/lwip-1.4.0/core/tcp_in.c ****     /* delete some following segments
 808:Libraries/lwip-1.4.0/core/tcp_in.c ****        oos queue may have segments with FIN flag */
 809:Libraries/lwip-1.4.0/core/tcp_in.c ****     while (next &&
 810:Libraries/lwip-1.4.0/core/tcp_in.c ****            TCP_SEQ_GEQ((seqno + cseg->len),
 811:Libraries/lwip-1.4.0/core/tcp_in.c ****                       (next->tcphdr->seqno + next->len))) {
 812:Libraries/lwip-1.4.0/core/tcp_in.c ****       /* cseg with FIN already processed */
 813:Libraries/lwip-1.4.0/core/tcp_in.c ****       if (TCPH_FLAGS(next->tcphdr) & TCP_FIN) {
 2475              		.loc 1 813 0
 2476 002e 3B68     		ldr	r3, [r7]
 2477 0030 DB68     		ldr	r3, [r3, #12]
 2478 0032 9B89     		ldrh	r3, [r3, #12]	@ unaligned
 2479 0034 9BB2     		uxth	r3, r3
 2480 0036 1846     		mov	r0, r3
 2481 0038 FFF7FEFF 		bl	lwip_ntohs
 2482 003c 0346     		mov	r3, r0
 2483 003e 03F00103 		and	r3, r3, #1
 2484 0042 002B     		cmp	r3, #0
 2485 0044 0CD0     		beq	.L157
 814:Libraries/lwip-1.4.0/core/tcp_in.c ****         TCPH_SET_FLAG(cseg->tcphdr, TCP_FIN);
 2486              		.loc 1 814 0
 2487 0046 7B68     		ldr	r3, [r7, #4]
 2488 0048 DC68     		ldr	r4, [r3, #12]
 2489 004a 7B68     		ldr	r3, [r7, #4]
 2490 004c DB68     		ldr	r3, [r3, #12]
 2491 004e 9B89     		ldrh	r3, [r3, #12]	@ unaligned
 2492 0050 9DB2     		uxth	r5, r3
 2493 0052 0120     		movs	r0, #1
 2494 0054 FFF7FEFF 		bl	lwip_htons
 2495 0058 0346     		mov	r3, r0
 2496 005a 2B43     		orrs	r3, r3, r5
 2497 005c 9BB2     		uxth	r3, r3
 2498 005e A381     		strh	r3, [r4, #12]	@ unaligned
 2499              	.L157:
 815:Libraries/lwip-1.4.0/core/tcp_in.c ****       }
 816:Libraries/lwip-1.4.0/core/tcp_in.c ****       old_seg = next;
 2500              		.loc 1 816 0
 2501 0060 3B68     		ldr	r3, [r7]
 2502 0062 FB60     		str	r3, [r7, #12]
 817:Libraries/lwip-1.4.0/core/tcp_in.c ****       next = next->next;
 2503              		.loc 1 817 0
 2504 0064 3B68     		ldr	r3, [r7]
 2505 0066 1B68     		ldr	r3, [r3]
 2506 0068 3B60     		str	r3, [r7]
 818:Libraries/lwip-1.4.0/core/tcp_in.c ****       tcp_seg_free(old_seg);
 2507              		.loc 1 818 0
 2508 006a F868     		ldr	r0, [r7, #12]
 2509 006c FFF7FEFF 		bl	tcp_seg_free
 2510              	.L156:
 809:Libraries/lwip-1.4.0/core/tcp_in.c ****            TCP_SEQ_GEQ((seqno + cseg->len),
 2511              		.loc 1 809 0
 2512 0070 3B68     		ldr	r3, [r7]
 2513 0072 002B     		cmp	r3, #0
 2514 0074 0ED0     		beq	.L158
 810:Libraries/lwip-1.4.0/core/tcp_in.c ****                       (next->tcphdr->seqno + next->len))) {
 2515              		.loc 1 810 0 discriminator 1
 2516 0076 7B68     		ldr	r3, [r7, #4]
 2517 0078 1B89     		ldrh	r3, [r3, #8]
 2518 007a 1A46     		mov	r2, r3
 2519 007c 1A4B     		ldr	r3, .L160
 2520 007e 1B68     		ldr	r3, [r3]
 2521 0080 1A44     		add	r2, r2, r3
 2522 0082 3B68     		ldr	r3, [r7]
 2523 0084 DB68     		ldr	r3, [r3, #12]
 2524 0086 5B68     		ldr	r3, [r3, #4]	@ unaligned
 2525 0088 3968     		ldr	r1, [r7]
 2526 008a 0989     		ldrh	r1, [r1, #8]
 2527 008c 0B44     		add	r3, r3, r1
 2528 008e D31A     		subs	r3, r2, r3
 809:Libraries/lwip-1.4.0/core/tcp_in.c ****            TCP_SEQ_GEQ((seqno + cseg->len),
 2529              		.loc 1 809 0 discriminator 1
 2530 0090 002B     		cmp	r3, #0
 2531 0092 CCDA     		bge	.L159
 2532              	.L158:
 819:Libraries/lwip-1.4.0/core/tcp_in.c ****     }
 820:Libraries/lwip-1.4.0/core/tcp_in.c ****     if (next &&
 2533              		.loc 1 820 0
 2534 0094 3B68     		ldr	r3, [r7]
 2535 0096 002B     		cmp	r3, #0
 2536 0098 1ED0     		beq	.L155
 821:Libraries/lwip-1.4.0/core/tcp_in.c ****         TCP_SEQ_GT(seqno + cseg->len, next->tcphdr->seqno)) {
 2537              		.loc 1 821 0 discriminator 1
 2538 009a 7B68     		ldr	r3, [r7, #4]
 2539 009c 1B89     		ldrh	r3, [r3, #8]
 2540 009e 1A46     		mov	r2, r3
 2541 00a0 114B     		ldr	r3, .L160
 2542 00a2 1B68     		ldr	r3, [r3]
 2543 00a4 1A44     		add	r2, r2, r3
 2544 00a6 3B68     		ldr	r3, [r7]
 2545 00a8 DB68     		ldr	r3, [r3, #12]
 2546 00aa 5B68     		ldr	r3, [r3, #4]	@ unaligned
 2547 00ac D31A     		subs	r3, r2, r3
 820:Libraries/lwip-1.4.0/core/tcp_in.c ****         TCP_SEQ_GT(seqno + cseg->len, next->tcphdr->seqno)) {
 2548              		.loc 1 820 0 discriminator 1
 2549 00ae 002B     		cmp	r3, #0
 2550 00b0 12DD     		ble	.L155
 822:Libraries/lwip-1.4.0/core/tcp_in.c ****       /* We need to trim the incoming segment. */
 823:Libraries/lwip-1.4.0/core/tcp_in.c ****       cseg->len = (u16_t)(next->tcphdr->seqno - seqno);
 2551              		.loc 1 823 0
 2552 00b2 3B68     		ldr	r3, [r7]
 2553 00b4 DB68     		ldr	r3, [r3, #12]
 2554 00b6 5B68     		ldr	r3, [r3, #4]	@ unaligned
 2555 00b8 9AB2     		uxth	r2, r3
 2556 00ba 0B4B     		ldr	r3, .L160
 2557 00bc 1B68     		ldr	r3, [r3]
 2558 00be 9BB2     		uxth	r3, r3
 2559 00c0 D31A     		subs	r3, r2, r3
 2560 00c2 9AB2     		uxth	r2, r3
 2561 00c4 7B68     		ldr	r3, [r7, #4]
 2562 00c6 1A81     		strh	r2, [r3, #8]	@ movhi
 824:Libraries/lwip-1.4.0/core/tcp_in.c ****       pbuf_realloc(cseg->p, cseg->len);
 2563              		.loc 1 824 0
 2564 00c8 7B68     		ldr	r3, [r7, #4]
 2565 00ca 5A68     		ldr	r2, [r3, #4]
 2566 00cc 7B68     		ldr	r3, [r7, #4]
 2567 00ce 1B89     		ldrh	r3, [r3, #8]
 2568 00d0 1946     		mov	r1, r3
 2569 00d2 1046     		mov	r0, r2
 2570 00d4 FFF7FEFF 		bl	pbuf_realloc
 2571              	.L155:
 825:Libraries/lwip-1.4.0/core/tcp_in.c ****     }
 826:Libraries/lwip-1.4.0/core/tcp_in.c ****   }
 827:Libraries/lwip-1.4.0/core/tcp_in.c ****   cseg->next = next;
 2572              		.loc 1 827 0
 2573 00d8 7B68     		ldr	r3, [r7, #4]
 2574 00da 3A68     		ldr	r2, [r7]
 2575 00dc 1A60     		str	r2, [r3]
 828:Libraries/lwip-1.4.0/core/tcp_in.c **** }
 2576              		.loc 1 828 0
 2577 00de 00BF     		nop
 2578 00e0 1037     		adds	r7, r7, #16
 2579              		.cfi_def_cfa_offset 16
 2580 00e2 BD46     		mov	sp, r7
 2581              		.cfi_def_cfa_register 13
 2582              		@ sp needed
 2583 00e4 B0BD     		pop	{r4, r5, r7, pc}
 2584              	.L161:
 2585 00e6 00BF     		.align	2
 2586              	.L160:
 2587 00e8 00000000 		.word	seqno
 2588              		.cfi_endproc
 2589              	.LFE21:
 2591              		.section	.text.tcp_receive,"ax",%progbits
 2592              		.align	2
 2593              		.thumb
 2594              		.thumb_func
 2596              	tcp_receive:
 2597              	.LFB22:
 829:Libraries/lwip-1.4.0/core/tcp_in.c **** #endif /* TCP_QUEUE_OOSEQ */
 830:Libraries/lwip-1.4.0/core/tcp_in.c **** 
 831:Libraries/lwip-1.4.0/core/tcp_in.c **** /**
 832:Libraries/lwip-1.4.0/core/tcp_in.c ****  * Called by tcp_process. Checks if the given segment is an ACK for outstanding
 833:Libraries/lwip-1.4.0/core/tcp_in.c ****  * data, and if so frees the memory of the buffered data. Next, is places the
 834:Libraries/lwip-1.4.0/core/tcp_in.c ****  * segment on any of the receive queues (pcb->recved or pcb->ooseq). If the segment
 835:Libraries/lwip-1.4.0/core/tcp_in.c ****  * is buffered, the pbuf is referenced by pbuf_ref so that it will not be freed until
 836:Libraries/lwip-1.4.0/core/tcp_in.c ****  * i it has been removed from the buffer.
 837:Libraries/lwip-1.4.0/core/tcp_in.c ****  *
 838:Libraries/lwip-1.4.0/core/tcp_in.c ****  * If the incoming segment constitutes an ACK for a segment that was used for RTT
 839:Libraries/lwip-1.4.0/core/tcp_in.c ****  * estimation, the RTT is estimated here as well.
 840:Libraries/lwip-1.4.0/core/tcp_in.c ****  *
 841:Libraries/lwip-1.4.0/core/tcp_in.c ****  * Called from tcp_process().
 842:Libraries/lwip-1.4.0/core/tcp_in.c ****  */
 843:Libraries/lwip-1.4.0/core/tcp_in.c **** static void
 844:Libraries/lwip-1.4.0/core/tcp_in.c **** tcp_receive(struct tcp_pcb *pcb)
 845:Libraries/lwip-1.4.0/core/tcp_in.c **** {
 2598              		.loc 1 845 0
 2599              		.cfi_startproc
 2600              		@ args = 0, pretend = 0, frame = 48
 2601              		@ frame_needed = 1, uses_anonymous_args = 0
 2602 0000 F0B5     		push	{r4, r5, r6, r7, lr}
 2603              		.cfi_def_cfa_offset 20
 2604              		.cfi_offset 4, -20
 2605              		.cfi_offset 5, -16
 2606              		.cfi_offset 6, -12
 2607              		.cfi_offset 7, -8
 2608              		.cfi_offset 14, -4
 2609 0002 8DB0     		sub	sp, sp, #52
 2610              		.cfi_def_cfa_offset 72
 2611 0004 00AF     		add	r7, sp, #0
 2612              		.cfi_def_cfa_register 7
 2613 0006 7860     		str	r0, [r7, #4]
 846:Libraries/lwip-1.4.0/core/tcp_in.c ****   struct tcp_seg *next;
 847:Libraries/lwip-1.4.0/core/tcp_in.c **** #if TCP_QUEUE_OOSEQ
 848:Libraries/lwip-1.4.0/core/tcp_in.c ****   struct tcp_seg *prev, *cseg;
 849:Libraries/lwip-1.4.0/core/tcp_in.c **** #endif /* TCP_QUEUE_OOSEQ */
 850:Libraries/lwip-1.4.0/core/tcp_in.c ****   struct pbuf *p;
 851:Libraries/lwip-1.4.0/core/tcp_in.c ****   s32_t off;
 852:Libraries/lwip-1.4.0/core/tcp_in.c ****   s16_t m;
 853:Libraries/lwip-1.4.0/core/tcp_in.c ****   u32_t right_wnd_edge;
 854:Libraries/lwip-1.4.0/core/tcp_in.c ****   u16_t new_tot_len;
 855:Libraries/lwip-1.4.0/core/tcp_in.c ****   int found_dupack = 0;
 2614              		.loc 1 855 0
 2615 0008 0023     		movs	r3, #0
 2616 000a BB61     		str	r3, [r7, #24]
 856:Libraries/lwip-1.4.0/core/tcp_in.c **** 
 857:Libraries/lwip-1.4.0/core/tcp_in.c ****   if (flags & TCP_ACK) {
 2617              		.loc 1 857 0
 2618 000c A54B     		ldr	r3, .L252
 2619 000e 1B78     		ldrb	r3, [r3]	@ zero_extendqisi2
 2620 0010 03F01003 		and	r3, r3, #16
 2621 0014 002B     		cmp	r3, #0
 2622 0016 00F09582 		beq	.L163
 858:Libraries/lwip-1.4.0/core/tcp_in.c **** 	  //If there is an ACK flag.
 859:Libraries/lwip-1.4.0/core/tcp_in.c ****     right_wnd_edge = pcb->snd_wnd + pcb->snd_wl2;
 2623              		.loc 1 859 0
 2624 001a 7B68     		ldr	r3, [r7, #4]
 2625 001c B3F85C30 		ldrh	r3, [r3, #92]
 2626 0020 1A46     		mov	r2, r3
 2627 0022 7B68     		ldr	r3, [r7, #4]
 2628 0024 5B6E     		ldr	r3, [r3, #100]
 2629 0026 1344     		add	r3, r3, r2
 2630 0028 7B61     		str	r3, [r7, #20]
 860:Libraries/lwip-1.4.0/core/tcp_in.c **** 
 861:Libraries/lwip-1.4.0/core/tcp_in.c ****     /* Update window. */
 862:Libraries/lwip-1.4.0/core/tcp_in.c ****     if (TCP_SEQ_LT(pcb->snd_wl1, seqno) ||
 2631              		.loc 1 862 0
 2632 002a 7B68     		ldr	r3, [r7, #4]
 2633 002c 1A6E     		ldr	r2, [r3, #96]
 2634 002e 9E4B     		ldr	r3, .L252+4
 2635 0030 1B68     		ldr	r3, [r3]
 2636 0032 D31A     		subs	r3, r2, r3
 2637 0034 002B     		cmp	r3, #0
 2638 0036 1BDB     		blt	.L164
 863:Libraries/lwip-1.4.0/core/tcp_in.c ****        (pcb->snd_wl1 == seqno && TCP_SEQ_LT(pcb->snd_wl2, ackno)) ||
 2639              		.loc 1 863 0 discriminator 1
 2640 0038 7B68     		ldr	r3, [r7, #4]
 2641 003a 1A6E     		ldr	r2, [r3, #96]
 2642 003c 9A4B     		ldr	r3, .L252+4
 2643 003e 1B68     		ldr	r3, [r3]
 862:Libraries/lwip-1.4.0/core/tcp_in.c ****        (pcb->snd_wl1 == seqno && TCP_SEQ_LT(pcb->snd_wl2, ackno)) ||
 2644              		.loc 1 862 0 discriminator 1
 2645 0040 9A42     		cmp	r2, r3
 2646 0042 06D1     		bne	.L165
 2647              		.loc 1 863 0
 2648 0044 7B68     		ldr	r3, [r7, #4]
 2649 0046 5A6E     		ldr	r2, [r3, #100]
 2650 0048 984B     		ldr	r3, .L252+8
 2651 004a 1B68     		ldr	r3, [r3]
 2652 004c D31A     		subs	r3, r2, r3
 2653 004e 002B     		cmp	r3, #0
 2654 0050 0EDB     		blt	.L164
 2655              	.L165:
 864:Libraries/lwip-1.4.0/core/tcp_in.c ****        (pcb->snd_wl2 == ackno && tcphdr->wnd > pcb->snd_wnd)) {
 2656              		.loc 1 864 0 discriminator 1
 2657 0052 7B68     		ldr	r3, [r7, #4]
 2658 0054 5A6E     		ldr	r2, [r3, #100]
 2659 0056 954B     		ldr	r3, .L252+8
 2660 0058 1B68     		ldr	r3, [r3]
 863:Libraries/lwip-1.4.0/core/tcp_in.c ****        (pcb->snd_wl1 == seqno && TCP_SEQ_LT(pcb->snd_wl2, ackno)) ||
 2661              		.loc 1 863 0 discriminator 1
 2662 005a 9A42     		cmp	r2, r3
 2663 005c 25D1     		bne	.L166
 2664              		.loc 1 864 0
 2665 005e 944B     		ldr	r3, .L252+12
 2666 0060 1B68     		ldr	r3, [r3]
 2667 0062 DB89     		ldrh	r3, [r3, #14]	@ unaligned
 2668 0064 9AB2     		uxth	r2, r3
 2669 0066 7B68     		ldr	r3, [r7, #4]
 2670 0068 B3F85C30 		ldrh	r3, [r3, #92]
 2671 006c 9A42     		cmp	r2, r3
 2672 006e 1CD9     		bls	.L166
 2673              	.L164:
 865:Libraries/lwip-1.4.0/core/tcp_in.c ****       pcb->snd_wnd = tcphdr->wnd;
 2674              		.loc 1 865 0
 2675 0070 8F4B     		ldr	r3, .L252+12
 2676 0072 1B68     		ldr	r3, [r3]
 2677 0074 DB89     		ldrh	r3, [r3, #14]	@ unaligned
 2678 0076 9AB2     		uxth	r2, r3
 2679 0078 7B68     		ldr	r3, [r7, #4]
 2680 007a A3F85C20 		strh	r2, [r3, #92]	@ movhi
 866:Libraries/lwip-1.4.0/core/tcp_in.c ****       pcb->snd_wl1 = seqno;
 2681              		.loc 1 866 0
 2682 007e 8A4B     		ldr	r3, .L252+4
 2683 0080 1A68     		ldr	r2, [r3]
 2684 0082 7B68     		ldr	r3, [r7, #4]
 2685 0084 1A66     		str	r2, [r3, #96]
 867:Libraries/lwip-1.4.0/core/tcp_in.c ****       pcb->snd_wl2 = ackno;
 2686              		.loc 1 867 0
 2687 0086 894B     		ldr	r3, .L252+8
 2688 0088 1A68     		ldr	r2, [r3]
 2689 008a 7B68     		ldr	r3, [r7, #4]
 2690 008c 5A66     		str	r2, [r3, #100]
 868:Libraries/lwip-1.4.0/core/tcp_in.c ****       if (pcb->snd_wnd > 0 && pcb->persist_backoff > 0) {
 2691              		.loc 1 868 0
 2692 008e 7B68     		ldr	r3, [r7, #4]
 2693 0090 B3F85C30 		ldrh	r3, [r3, #92]
 2694 0094 002B     		cmp	r3, #0
 2695 0096 08D0     		beq	.L166
 2696              		.loc 1 868 0 is_stmt 0 discriminator 1
 2697 0098 7B68     		ldr	r3, [r7, #4]
 2698 009a 93F8A030 		ldrb	r3, [r3, #160]	@ zero_extendqisi2
 2699 009e 002B     		cmp	r3, #0
 2700 00a0 03D0     		beq	.L166
 869:Libraries/lwip-1.4.0/core/tcp_in.c ****           pcb->persist_backoff = 0;
 2701              		.loc 1 869 0 is_stmt 1
 2702 00a2 7B68     		ldr	r3, [r7, #4]
 2703 00a4 0022     		movs	r2, #0
 2704 00a6 83F8A020 		strb	r2, [r3, #160]
 2705              	.L166:
 870:Libraries/lwip-1.4.0/core/tcp_in.c ****       }
 871:Libraries/lwip-1.4.0/core/tcp_in.c ****       LWIP_DEBUGF(TCP_WND_DEBUG, ("tcp_receive: window update %"U16_F"\n", pcb->snd_wnd));
 872:Libraries/lwip-1.4.0/core/tcp_in.c **** #if TCP_WND_DEBUG
 873:Libraries/lwip-1.4.0/core/tcp_in.c ****     } else {
 874:Libraries/lwip-1.4.0/core/tcp_in.c ****       if (pcb->snd_wnd != tcphdr->wnd) {
 875:Libraries/lwip-1.4.0/core/tcp_in.c ****         LWIP_DEBUGF(TCP_WND_DEBUG, 
 876:Libraries/lwip-1.4.0/core/tcp_in.c ****                     ("tcp_receive: no window update lastack %"U32_F" ackno %"
 877:Libraries/lwip-1.4.0/core/tcp_in.c ****                      U32_F" wl1 %"U32_F" seqno %"U32_F" wl2 %"U32_F"\n",
 878:Libraries/lwip-1.4.0/core/tcp_in.c ****                      pcb->lastack, ackno, pcb->snd_wl1, seqno, pcb->snd_wl2));
 879:Libraries/lwip-1.4.0/core/tcp_in.c ****       }
 880:Libraries/lwip-1.4.0/core/tcp_in.c **** #endif /* TCP_WND_DEBUG */
 881:Libraries/lwip-1.4.0/core/tcp_in.c ****     }
 882:Libraries/lwip-1.4.0/core/tcp_in.c **** 
 883:Libraries/lwip-1.4.0/core/tcp_in.c ****     /* (From Stevens TCP/IP Illustrated Vol II, p970.) Its only a
 884:Libraries/lwip-1.4.0/core/tcp_in.c ****      * duplicate ack if:
 885:Libraries/lwip-1.4.0/core/tcp_in.c ****      * 1) It doesn't ACK new data 
 886:Libraries/lwip-1.4.0/core/tcp_in.c ****      * 2) length of received packet is zero (i.e. no payload) 
 887:Libraries/lwip-1.4.0/core/tcp_in.c ****      * 3) the advertised window hasn't changed 
 888:Libraries/lwip-1.4.0/core/tcp_in.c ****      * 4) There is outstanding unacknowledged data (retransmission timer running)
 889:Libraries/lwip-1.4.0/core/tcp_in.c ****      * 5) The ACK is == biggest ACK sequence number so far seen (snd_una)
 890:Libraries/lwip-1.4.0/core/tcp_in.c ****      * 
 891:Libraries/lwip-1.4.0/core/tcp_in.c ****      * If it passes all five, should process as a dupack: 
 892:Libraries/lwip-1.4.0/core/tcp_in.c ****      * a) dupacks < 3: do nothing 
 893:Libraries/lwip-1.4.0/core/tcp_in.c ****      * b) dupacks == 3: fast retransmit 
 894:Libraries/lwip-1.4.0/core/tcp_in.c ****      * c) dupacks > 3: increase cwnd 
 895:Libraries/lwip-1.4.0/core/tcp_in.c ****      * 
 896:Libraries/lwip-1.4.0/core/tcp_in.c ****      * If it only passes 1-3, should reset dupack counter (and add to
 897:Libraries/lwip-1.4.0/core/tcp_in.c ****      * stats, which we don't do in lwIP)
 898:Libraries/lwip-1.4.0/core/tcp_in.c ****      *
 899:Libraries/lwip-1.4.0/core/tcp_in.c ****      * If it only passes 1, should reset dupack counter
 900:Libraries/lwip-1.4.0/core/tcp_in.c ****      *
 901:Libraries/lwip-1.4.0/core/tcp_in.c ****      */
 902:Libraries/lwip-1.4.0/core/tcp_in.c **** 
 903:Libraries/lwip-1.4.0/core/tcp_in.c ****     /* Clause 1 */
 904:Libraries/lwip-1.4.0/core/tcp_in.c ****     if (TCP_SEQ_LEQ(ackno, pcb->lastack)) {
 2706              		.loc 1 904 0
 2707 00aa 804B     		ldr	r3, .L252+8
 2708 00ac 1A68     		ldr	r2, [r3]
 2709 00ae 7B68     		ldr	r3, [r7, #4]
 2710 00b0 DB6C     		ldr	r3, [r3, #76]
 2711 00b2 D31A     		subs	r3, r2, r3
 2712 00b4 002B     		cmp	r3, #0
 2713 00b6 5BDC     		bgt	.L167
 905:Libraries/lwip-1.4.0/core/tcp_in.c ****       pcb->acked = 0;
 2714              		.loc 1 905 0
 2715 00b8 7B68     		ldr	r3, [r7, #4]
 2716 00ba 0022     		movs	r2, #0
 2717 00bc A3F86C20 		strh	r2, [r3, #108]	@ movhi
 906:Libraries/lwip-1.4.0/core/tcp_in.c ****       /* Clause 2 */
 907:Libraries/lwip-1.4.0/core/tcp_in.c ****       if (tcplen == 0) {
 2718              		.loc 1 907 0
 2719 00c0 7C4B     		ldr	r3, .L252+16
 2720 00c2 1B88     		ldrh	r3, [r3]
 2721 00c4 002B     		cmp	r3, #0
 2722 00c6 4AD1     		bne	.L168
 908:Libraries/lwip-1.4.0/core/tcp_in.c ****         /* Clause 3 */
 909:Libraries/lwip-1.4.0/core/tcp_in.c ****         if (pcb->snd_wl2 + pcb->snd_wnd == right_wnd_edge){
 2723              		.loc 1 909 0
 2724 00c8 7B68     		ldr	r3, [r7, #4]
 2725 00ca 5B6E     		ldr	r3, [r3, #100]
 2726 00cc 7A68     		ldr	r2, [r7, #4]
 2727 00ce B2F85C20 		ldrh	r2, [r2, #92]
 2728 00d2 1A44     		add	r2, r2, r3
 2729 00d4 7B69     		ldr	r3, [r7, #20]
 2730 00d6 9A42     		cmp	r2, r3
 2731 00d8 41D1     		bne	.L168
 910:Libraries/lwip-1.4.0/core/tcp_in.c ****           /* Clause 4 */
 911:Libraries/lwip-1.4.0/core/tcp_in.c ****           if (pcb->rtime >= 0) {
 2732              		.loc 1 911 0
 2733 00da 7B68     		ldr	r3, [r7, #4]
 2734 00dc B3F93630 		ldrsh	r3, [r3, #54]
 2735 00e0 002B     		cmp	r3, #0
 2736 00e2 3CDB     		blt	.L168
 912:Libraries/lwip-1.4.0/core/tcp_in.c ****             /* Clause 5 */
 913:Libraries/lwip-1.4.0/core/tcp_in.c ****             if (pcb->lastack == ackno) {
 2737              		.loc 1 913 0
 2738 00e4 7B68     		ldr	r3, [r7, #4]
 2739 00e6 DA6C     		ldr	r2, [r3, #76]
 2740 00e8 704B     		ldr	r3, .L252+8
 2741 00ea 1B68     		ldr	r3, [r3]
 2742 00ec 9A42     		cmp	r2, r3
 2743 00ee 36D1     		bne	.L168
 914:Libraries/lwip-1.4.0/core/tcp_in.c ****               found_dupack = 1;
 2744              		.loc 1 914 0
 2745 00f0 0123     		movs	r3, #1
 2746 00f2 BB61     		str	r3, [r7, #24]
 915:Libraries/lwip-1.4.0/core/tcp_in.c ****               if (pcb->dupacks + 1 > pcb->dupacks)
 2747              		.loc 1 915 0
 2748 00f4 7B68     		ldr	r3, [r7, #4]
 2749 00f6 93F85030 		ldrb	r3, [r3, #80]	@ zero_extendqisi2
 2750 00fa 0133     		adds	r3, r3, #1
 2751 00fc 7A68     		ldr	r2, [r7, #4]
 2752 00fe 92F85020 		ldrb	r2, [r2, #80]	@ zero_extendqisi2
 2753 0102 9342     		cmp	r3, r2
 2754 0104 07DD     		ble	.L169
 916:Libraries/lwip-1.4.0/core/tcp_in.c ****                 ++pcb->dupacks;
 2755              		.loc 1 916 0
 2756 0106 7B68     		ldr	r3, [r7, #4]
 2757 0108 93F85030 		ldrb	r3, [r3, #80]	@ zero_extendqisi2
 2758 010c 0133     		adds	r3, r3, #1
 2759 010e DAB2     		uxtb	r2, r3
 2760 0110 7B68     		ldr	r3, [r7, #4]
 2761 0112 83F85020 		strb	r2, [r3, #80]
 2762              	.L169:
 917:Libraries/lwip-1.4.0/core/tcp_in.c ****               if (pcb->dupacks > 3) {
 2763              		.loc 1 917 0
 2764 0116 7B68     		ldr	r3, [r7, #4]
 2765 0118 93F85030 		ldrb	r3, [r3, #80]	@ zero_extendqisi2
 2766 011c 032B     		cmp	r3, #3
 2767 011e 16D9     		bls	.L170
 918:Libraries/lwip-1.4.0/core/tcp_in.c ****                 /* Inflate the congestion window, but not if it means that
 919:Libraries/lwip-1.4.0/core/tcp_in.c ****                    the value overflows. */
 920:Libraries/lwip-1.4.0/core/tcp_in.c ****                 if ((u16_t)(pcb->cwnd + pcb->mss) > pcb->cwnd) {
 2768              		.loc 1 920 0
 2769 0120 7B68     		ldr	r3, [r7, #4]
 2770 0122 B3F85220 		ldrh	r2, [r3, #82]
 2771 0126 7B68     		ldr	r3, [r7, #4]
 2772 0128 1B8F     		ldrh	r3, [r3, #56]
 2773 012a 1344     		add	r3, r3, r2
 2774 012c 9AB2     		uxth	r2, r3
 2775 012e 7B68     		ldr	r3, [r7, #4]
 2776 0130 B3F85230 		ldrh	r3, [r3, #82]
 2777 0134 9A42     		cmp	r2, r3
 2778 0136 12D9     		bls	.L168
 921:Libraries/lwip-1.4.0/core/tcp_in.c ****                   pcb->cwnd += pcb->mss;
 2779              		.loc 1 921 0
 2780 0138 7B68     		ldr	r3, [r7, #4]
 2781 013a B3F85220 		ldrh	r2, [r3, #82]
 2782 013e 7B68     		ldr	r3, [r7, #4]
 2783 0140 1B8F     		ldrh	r3, [r3, #56]
 2784 0142 1344     		add	r3, r3, r2
 2785 0144 9AB2     		uxth	r2, r3
 2786 0146 7B68     		ldr	r3, [r7, #4]
 2787 0148 A3F85220 		strh	r2, [r3, #82]	@ movhi
 2788 014c 07E0     		b	.L168
 2789              	.L170:
 922:Libraries/lwip-1.4.0/core/tcp_in.c ****                 }
 923:Libraries/lwip-1.4.0/core/tcp_in.c ****               } else if (pcb->dupacks == 3) {
 2790              		.loc 1 923 0
 2791 014e 7B68     		ldr	r3, [r7, #4]
 2792 0150 93F85030 		ldrb	r3, [r3, #80]	@ zero_extendqisi2
 2793 0154 032B     		cmp	r3, #3
 2794 0156 02D1     		bne	.L168
 924:Libraries/lwip-1.4.0/core/tcp_in.c ****                 /* Do fast retransmit */
 925:Libraries/lwip-1.4.0/core/tcp_in.c ****                 tcp_rexmit_fast(pcb);
 2795              		.loc 1 925 0
 2796 0158 7868     		ldr	r0, [r7, #4]
 2797 015a FFF7FEFF 		bl	tcp_rexmit_fast
 2798              	.L168:
 926:Libraries/lwip-1.4.0/core/tcp_in.c ****               }
 927:Libraries/lwip-1.4.0/core/tcp_in.c ****             }
 928:Libraries/lwip-1.4.0/core/tcp_in.c ****           }
 929:Libraries/lwip-1.4.0/core/tcp_in.c ****         }
 930:Libraries/lwip-1.4.0/core/tcp_in.c ****       }
 931:Libraries/lwip-1.4.0/core/tcp_in.c ****       /* If Clause (1) or more is true, but not a duplicate ack, reset
 932:Libraries/lwip-1.4.0/core/tcp_in.c ****        * count of consecutive duplicate acks */
 933:Libraries/lwip-1.4.0/core/tcp_in.c ****       if (!found_dupack) {
 2799              		.loc 1 933 0
 2800 015e BB69     		ldr	r3, [r7, #24]
 2801 0160 002B     		cmp	r3, #0
 2802 0162 40F06881 		bne	.L185
 934:Libraries/lwip-1.4.0/core/tcp_in.c ****         pcb->dupacks = 0;
 2803              		.loc 1 934 0
 2804 0166 7B68     		ldr	r3, [r7, #4]
 2805 0168 0022     		movs	r2, #0
 2806 016a 83F85020 		strb	r2, [r3, #80]
 2807 016e 62E1     		b	.L185
 2808              	.L167:
 935:Libraries/lwip-1.4.0/core/tcp_in.c ****       }
 936:Libraries/lwip-1.4.0/core/tcp_in.c ****     } else if (TCP_SEQ_BETWEEN(ackno, pcb->lastack+1, pcb->snd_nxt)){
 2809              		.loc 1 936 0
 2810 0170 4E4B     		ldr	r3, .L252+8
 2811 0172 1A68     		ldr	r2, [r3]
 2812 0174 7B68     		ldr	r3, [r7, #4]
 2813 0176 DB6C     		ldr	r3, [r3, #76]
 2814 0178 D31A     		subs	r3, r2, r3
 2815 017a 013B     		subs	r3, r3, #1
 2816 017c 002B     		cmp	r3, #0
 2817 017e C0F21481 		blt	.L174
 2818              		.loc 1 936 0 is_stmt 0 discriminator 1
 2819 0182 4A4B     		ldr	r3, .L252+8
 2820 0184 1A68     		ldr	r2, [r3]
 2821 0186 7B68     		ldr	r3, [r7, #4]
 2822 0188 9B6D     		ldr	r3, [r3, #88]
 2823 018a D31A     		subs	r3, r2, r3
 2824 018c 002B     		cmp	r3, #0
 2825 018e 00F30C81 		bgt	.L174
 937:Libraries/lwip-1.4.0/core/tcp_in.c ****       /* We come here when the ACK acknowledges new data. */
 938:Libraries/lwip-1.4.0/core/tcp_in.c **** 
 939:Libraries/lwip-1.4.0/core/tcp_in.c ****       /* Reset the "IN Fast Retransmit" flag, since we are no longer
 940:Libraries/lwip-1.4.0/core/tcp_in.c ****          in fast retransmit. Also reset the congestion window to the
 941:Libraries/lwip-1.4.0/core/tcp_in.c ****          slow start threshold. */
 942:Libraries/lwip-1.4.0/core/tcp_in.c ****       if (pcb->flags & TF_INFR) {
 2826              		.loc 1 942 0 is_stmt 1
 2827 0192 7B68     		ldr	r3, [r7, #4]
 2828 0194 93F82030 		ldrb	r3, [r3, #32]	@ zero_extendqisi2
 2829 0198 03F00403 		and	r3, r3, #4
 2830 019c 002B     		cmp	r3, #0
 2831 019e 0ED0     		beq	.L175
 943:Libraries/lwip-1.4.0/core/tcp_in.c ****         pcb->flags &= ~TF_INFR;
 2832              		.loc 1 943 0
 2833 01a0 7B68     		ldr	r3, [r7, #4]
 2834 01a2 93F82030 		ldrb	r3, [r3, #32]	@ zero_extendqisi2
 2835 01a6 23F00403 		bic	r3, r3, #4
 2836 01aa DAB2     		uxtb	r2, r3
 2837 01ac 7B68     		ldr	r3, [r7, #4]
 2838 01ae 83F82020 		strb	r2, [r3, #32]
 944:Libraries/lwip-1.4.0/core/tcp_in.c ****         pcb->cwnd = pcb->ssthresh;
 2839              		.loc 1 944 0
 2840 01b2 7B68     		ldr	r3, [r7, #4]
 2841 01b4 B3F85420 		ldrh	r2, [r3, #84]
 2842 01b8 7B68     		ldr	r3, [r7, #4]
 2843 01ba A3F85220 		strh	r2, [r3, #82]	@ movhi
 2844              	.L175:
 945:Libraries/lwip-1.4.0/core/tcp_in.c ****       }
 946:Libraries/lwip-1.4.0/core/tcp_in.c **** 
 947:Libraries/lwip-1.4.0/core/tcp_in.c ****       /* Reset the number of retransmissions. */
 948:Libraries/lwip-1.4.0/core/tcp_in.c ****       pcb->nrtx = 0;
 2845              		.loc 1 948 0
 2846 01be 7B68     		ldr	r3, [r7, #4]
 2847 01c0 0022     		movs	r2, #0
 2848 01c2 83F84A20 		strb	r2, [r3, #74]
 949:Libraries/lwip-1.4.0/core/tcp_in.c **** 
 950:Libraries/lwip-1.4.0/core/tcp_in.c ****       /* Reset the retransmission time-out. */
 951:Libraries/lwip-1.4.0/core/tcp_in.c ****       pcb->rto = (pcb->sa >> 3) + pcb->sv;
 2849              		.loc 1 951 0
 2850 01c6 7B68     		ldr	r3, [r7, #4]
 2851 01c8 B3F94430 		ldrsh	r3, [r3, #68]
 2852 01cc DB10     		asrs	r3, r3, #3
 2853 01ce 1BB2     		sxth	r3, r3
 2854 01d0 9AB2     		uxth	r2, r3
 2855 01d2 7B68     		ldr	r3, [r7, #4]
 2856 01d4 B3F94630 		ldrsh	r3, [r3, #70]
 2857 01d8 9BB2     		uxth	r3, r3
 2858 01da 1344     		add	r3, r3, r2
 2859 01dc 9BB2     		uxth	r3, r3
 2860 01de 1AB2     		sxth	r2, r3
 2861 01e0 7B68     		ldr	r3, [r7, #4]
 2862 01e2 A3F84820 		strh	r2, [r3, #72]	@ movhi
 952:Libraries/lwip-1.4.0/core/tcp_in.c **** 
 953:Libraries/lwip-1.4.0/core/tcp_in.c ****       /* Update the send buffer space. Diff between the two can never exceed 64K? */
 954:Libraries/lwip-1.4.0/core/tcp_in.c ****       pcb->acked = (u16_t)(ackno - pcb->lastack);
 2863              		.loc 1 954 0
 2864 01e6 314B     		ldr	r3, .L252+8
 2865 01e8 1B68     		ldr	r3, [r3]
 2866 01ea 9AB2     		uxth	r2, r3
 2867 01ec 7B68     		ldr	r3, [r7, #4]
 2868 01ee DB6C     		ldr	r3, [r3, #76]
 2869 01f0 9BB2     		uxth	r3, r3
 2870 01f2 D31A     		subs	r3, r2, r3
 2871 01f4 9AB2     		uxth	r2, r3
 2872 01f6 7B68     		ldr	r3, [r7, #4]
 2873 01f8 A3F86C20 		strh	r2, [r3, #108]	@ movhi
 955:Libraries/lwip-1.4.0/core/tcp_in.c **** 
 956:Libraries/lwip-1.4.0/core/tcp_in.c ****       pcb->snd_buf += pcb->acked;
 2874              		.loc 1 956 0
 2875 01fc 7B68     		ldr	r3, [r7, #4]
 2876 01fe B3F86E20 		ldrh	r2, [r3, #110]
 2877 0202 7B68     		ldr	r3, [r7, #4]
 2878 0204 B3F86C30 		ldrh	r3, [r3, #108]
 2879 0208 1344     		add	r3, r3, r2
 2880 020a 9AB2     		uxth	r2, r3
 2881 020c 7B68     		ldr	r3, [r7, #4]
 2882 020e A3F86E20 		strh	r2, [r3, #110]	@ movhi
 957:Libraries/lwip-1.4.0/core/tcp_in.c **** 
 958:Libraries/lwip-1.4.0/core/tcp_in.c ****       /* Reset the fast retransmit variables. */
 959:Libraries/lwip-1.4.0/core/tcp_in.c ****       pcb->dupacks = 0;
 2883              		.loc 1 959 0
 2884 0212 7B68     		ldr	r3, [r7, #4]
 2885 0214 0022     		movs	r2, #0
 2886 0216 83F85020 		strb	r2, [r3, #80]
 960:Libraries/lwip-1.4.0/core/tcp_in.c ****       pcb->lastack = ackno;
 2887              		.loc 1 960 0
 2888 021a 244B     		ldr	r3, .L252+8
 2889 021c 1A68     		ldr	r2, [r3]
 2890 021e 7B68     		ldr	r3, [r7, #4]
 2891 0220 DA64     		str	r2, [r3, #76]
 961:Libraries/lwip-1.4.0/core/tcp_in.c **** 
 962:Libraries/lwip-1.4.0/core/tcp_in.c ****       /* Update the congestion control variables (cwnd and
 963:Libraries/lwip-1.4.0/core/tcp_in.c ****          ssthresh). */
 964:Libraries/lwip-1.4.0/core/tcp_in.c ****       if (pcb->state >= ESTABLISHED) {
 2892              		.loc 1 964 0
 2893 0222 7B68     		ldr	r3, [r7, #4]
 2894 0224 1B7C     		ldrb	r3, [r3, #16]	@ zero_extendqisi2
 2895 0226 032B     		cmp	r3, #3
 2896 0228 40F28780 		bls	.L179
 965:Libraries/lwip-1.4.0/core/tcp_in.c ****         if (pcb->cwnd < pcb->ssthresh) {
 2897              		.loc 1 965 0
 2898 022c 7B68     		ldr	r3, [r7, #4]
 2899 022e B3F85220 		ldrh	r2, [r3, #82]
 2900 0232 7B68     		ldr	r3, [r7, #4]
 2901 0234 B3F85430 		ldrh	r3, [r3, #84]
 2902 0238 9A42     		cmp	r2, r3
 2903 023a 16D2     		bcs	.L177
 966:Libraries/lwip-1.4.0/core/tcp_in.c ****           if ((u16_t)(pcb->cwnd + pcb->mss) > pcb->cwnd) {
 2904              		.loc 1 966 0
 2905 023c 7B68     		ldr	r3, [r7, #4]
 2906 023e B3F85220 		ldrh	r2, [r3, #82]
 2907 0242 7B68     		ldr	r3, [r7, #4]
 2908 0244 1B8F     		ldrh	r3, [r3, #56]
 2909 0246 1344     		add	r3, r3, r2
 2910 0248 9AB2     		uxth	r2, r3
 2911 024a 7B68     		ldr	r3, [r7, #4]
 2912 024c B3F85230 		ldrh	r3, [r3, #82]
 2913 0250 9A42     		cmp	r2, r3
 2914 0252 72D9     		bls	.L179
 967:Libraries/lwip-1.4.0/core/tcp_in.c ****             pcb->cwnd += pcb->mss;
 2915              		.loc 1 967 0
 2916 0254 7B68     		ldr	r3, [r7, #4]
 2917 0256 B3F85220 		ldrh	r2, [r3, #82]
 2918 025a 7B68     		ldr	r3, [r7, #4]
 2919 025c 1B8F     		ldrh	r3, [r3, #56]
 2920 025e 1344     		add	r3, r3, r2
 2921 0260 9AB2     		uxth	r2, r3
 2922 0262 7B68     		ldr	r3, [r7, #4]
 2923 0264 A3F85220 		strh	r2, [r3, #82]	@ movhi
 2924 0268 67E0     		b	.L179
 2925              	.L177:
 2926              	.LBB3:
 968:Libraries/lwip-1.4.0/core/tcp_in.c ****           }
 969:Libraries/lwip-1.4.0/core/tcp_in.c ****           LWIP_DEBUGF(TCP_CWND_DEBUG, ("tcp_receive: slow start cwnd %"U16_F"\n", pcb->cwnd));
 970:Libraries/lwip-1.4.0/core/tcp_in.c ****         } else {
 971:Libraries/lwip-1.4.0/core/tcp_in.c ****           u16_t new_cwnd = (pcb->cwnd + pcb->mss * pcb->mss / pcb->cwnd);
 2927              		.loc 1 971 0
 2928 026a 7B68     		ldr	r3, [r7, #4]
 2929 026c B3F85220 		ldrh	r2, [r3, #82]
 2930 0270 7B68     		ldr	r3, [r7, #4]
 2931 0272 1B8F     		ldrh	r3, [r3, #56]
 2932 0274 1946     		mov	r1, r3
 2933 0276 7B68     		ldr	r3, [r7, #4]
 2934 0278 1B8F     		ldrh	r3, [r3, #56]
 2935 027a 03FB01F3 		mul	r3, r3, r1
 2936 027e 7968     		ldr	r1, [r7, #4]
 2937 0280 B1F85210 		ldrh	r1, [r1, #82]
 2938 0284 93FBF1F3 		sdiv	r3, r3, r1
 2939 0288 9BB2     		uxth	r3, r3
 2940 028a 1344     		add	r3, r3, r2
 2941 028c 7B82     		strh	r3, [r7, #18]	@ movhi
 972:Libraries/lwip-1.4.0/core/tcp_in.c ****           if (new_cwnd > pcb->cwnd) {
 2942              		.loc 1 972 0
 2943 028e 7B68     		ldr	r3, [r7, #4]
 2944 0290 B3F85230 		ldrh	r3, [r3, #82]
 2945 0294 7A8A     		ldrh	r2, [r7, #18]
 2946 0296 9A42     		cmp	r2, r3
 2947 0298 4FD9     		bls	.L179
 973:Libraries/lwip-1.4.0/core/tcp_in.c ****             pcb->cwnd = new_cwnd;
 2948              		.loc 1 973 0
 2949 029a 7B68     		ldr	r3, [r7, #4]
 2950 029c 7A8A     		ldrh	r2, [r7, #18]	@ movhi
 2951 029e A3F85220 		strh	r2, [r3, #82]	@ movhi
 2952              	.LBE3:
 974:Libraries/lwip-1.4.0/core/tcp_in.c ****           }
 975:Libraries/lwip-1.4.0/core/tcp_in.c ****           LWIP_DEBUGF(TCP_CWND_DEBUG, ("tcp_receive: congestion avoidance cwnd %"U16_F"\n", pcb->cw
 976:Libraries/lwip-1.4.0/core/tcp_in.c ****         }
 977:Libraries/lwip-1.4.0/core/tcp_in.c ****       }
 978:Libraries/lwip-1.4.0/core/tcp_in.c ****       LWIP_DEBUGF(TCP_INPUT_DEBUG, ("tcp_receive: ACK for %"U32_F", unacked->seqno %"U32_F":%"U32_F
 979:Libraries/lwip-1.4.0/core/tcp_in.c ****                                     ackno,
 980:Libraries/lwip-1.4.0/core/tcp_in.c ****                                     pcb->unacked != NULL?
 981:Libraries/lwip-1.4.0/core/tcp_in.c ****                                     ntohl(pcb->unacked->tcphdr->seqno): 0,
 982:Libraries/lwip-1.4.0/core/tcp_in.c ****                                     pcb->unacked != NULL?
 983:Libraries/lwip-1.4.0/core/tcp_in.c ****                                     ntohl(pcb->unacked->tcphdr->seqno) + TCP_TCPLEN(pcb->unacked): 
 984:Libraries/lwip-1.4.0/core/tcp_in.c **** 
 985:Libraries/lwip-1.4.0/core/tcp_in.c ****       /* Remove segment from the unacknowledged list if the incoming
 986:Libraries/lwip-1.4.0/core/tcp_in.c ****          ACK acknowlegdes them. */
 987:Libraries/lwip-1.4.0/core/tcp_in.c ****       while (pcb->unacked != NULL &&
 2953              		.loc 1 987 0
 2954 02a2 4AE0     		b	.L179
 2955              	.L253:
 2956              		.align	2
 2957              	.L252:
 2958 02a4 00000000 		.word	flags
 2959 02a8 00000000 		.word	seqno
 2960 02ac 00000000 		.word	ackno
 2961 02b0 00000000 		.word	tcphdr
 2962 02b4 00000000 		.word	tcplen
 2963              	.L182:
 988:Libraries/lwip-1.4.0/core/tcp_in.c ****              TCP_SEQ_LEQ(ntohl(pcb->unacked->tcphdr->seqno) +
 989:Libraries/lwip-1.4.0/core/tcp_in.c ****                          TCP_TCPLEN(pcb->unacked), ackno)) {
 990:Libraries/lwip-1.4.0/core/tcp_in.c ****         LWIP_DEBUGF(TCP_INPUT_DEBUG, ("tcp_receive: removing %"U32_F":%"U32_F" from pcb->unacked\n"
 991:Libraries/lwip-1.4.0/core/tcp_in.c ****                                       ntohl(pcb->unacked->tcphdr->seqno),
 992:Libraries/lwip-1.4.0/core/tcp_in.c ****                                       ntohl(pcb->unacked->tcphdr->seqno) +
 993:Libraries/lwip-1.4.0/core/tcp_in.c ****                                       TCP_TCPLEN(pcb->unacked)));
 994:Libraries/lwip-1.4.0/core/tcp_in.c **** 
 995:Libraries/lwip-1.4.0/core/tcp_in.c ****         next = pcb->unacked;
 2964              		.loc 1 995 0
 2965 02b8 7B68     		ldr	r3, [r7, #4]
 2966 02ba 9B6F     		ldr	r3, [r3, #120]
 2967 02bc FB62     		str	r3, [r7, #44]
 996:Libraries/lwip-1.4.0/core/tcp_in.c ****         pcb->unacked = pcb->unacked->next;
 2968              		.loc 1 996 0
 2969 02be 7B68     		ldr	r3, [r7, #4]
 2970 02c0 9B6F     		ldr	r3, [r3, #120]
 2971 02c2 1A68     		ldr	r2, [r3]
 2972 02c4 7B68     		ldr	r3, [r7, #4]
 2973 02c6 9A67     		str	r2, [r3, #120]
 997:Libraries/lwip-1.4.0/core/tcp_in.c **** 
 998:Libraries/lwip-1.4.0/core/tcp_in.c ****         LWIP_DEBUGF(TCP_QLEN_DEBUG, ("tcp_receive: queuelen %"U16_F" ... ", (u16_t)pcb->snd_queuele
 999:Libraries/lwip-1.4.0/core/tcp_in.c ****         LWIP_ASSERT("pcb->snd_queuelen >= pbuf_clen(next->p)", (pcb->snd_queuelen >= pbuf_clen(next
 2974              		.loc 1 999 0
 2975 02c8 FB6A     		ldr	r3, [r7, #44]
 2976 02ca 5B68     		ldr	r3, [r3, #4]
 2977 02cc 1846     		mov	r0, r3
 2978 02ce FFF7FEFF 		bl	pbuf_clen
1000:Libraries/lwip-1.4.0/core/tcp_in.c ****         /* Prevent ACK for FIN to generate a sent event */
1001:Libraries/lwip-1.4.0/core/tcp_in.c ****         if ((pcb->acked != 0) && ((TCPH_FLAGS(next->tcphdr) & TCP_FIN) != 0)) {
 2979              		.loc 1 1001 0
 2980 02d2 7B68     		ldr	r3, [r7, #4]
 2981 02d4 B3F86C30 		ldrh	r3, [r3, #108]
 2982 02d8 002B     		cmp	r3, #0
 2983 02da 13D0     		beq	.L180
 2984              		.loc 1 1001 0 is_stmt 0 discriminator 1
 2985 02dc FB6A     		ldr	r3, [r7, #44]
 2986 02de DB68     		ldr	r3, [r3, #12]
 2987 02e0 9B89     		ldrh	r3, [r3, #12]	@ unaligned
 2988 02e2 9BB2     		uxth	r3, r3
 2989 02e4 1846     		mov	r0, r3
 2990 02e6 FFF7FEFF 		bl	lwip_ntohs
 2991 02ea 0346     		mov	r3, r0
 2992 02ec 03F00103 		and	r3, r3, #1
 2993 02f0 002B     		cmp	r3, #0
 2994 02f2 07D0     		beq	.L180
1002:Libraries/lwip-1.4.0/core/tcp_in.c ****           pcb->acked--;
 2995              		.loc 1 1002 0 is_stmt 1
 2996 02f4 7B68     		ldr	r3, [r7, #4]
 2997 02f6 B3F86C30 		ldrh	r3, [r3, #108]
 2998 02fa 013B     		subs	r3, r3, #1
 2999 02fc 9AB2     		uxth	r2, r3
 3000 02fe 7B68     		ldr	r3, [r7, #4]
 3001 0300 A3F86C20 		strh	r2, [r3, #108]	@ movhi
 3002              	.L180:
1003:Libraries/lwip-1.4.0/core/tcp_in.c ****         }
1004:Libraries/lwip-1.4.0/core/tcp_in.c **** 
1005:Libraries/lwip-1.4.0/core/tcp_in.c ****         pcb->snd_queuelen -= pbuf_clen(next->p);
 3003              		.loc 1 1005 0
 3004 0304 FB6A     		ldr	r3, [r7, #44]
 3005 0306 5B68     		ldr	r3, [r3, #4]
 3006 0308 1846     		mov	r0, r3
 3007 030a FFF7FEFF 		bl	pbuf_clen
 3008 030e 0346     		mov	r3, r0
 3009 0310 1946     		mov	r1, r3
 3010 0312 7B68     		ldr	r3, [r7, #4]
 3011 0314 B3F87020 		ldrh	r2, [r3, #112]
 3012 0318 8BB2     		uxth	r3, r1
 3013 031a D31A     		subs	r3, r2, r3
 3014 031c 9AB2     		uxth	r2, r3
 3015 031e 7B68     		ldr	r3, [r7, #4]
 3016 0320 A3F87020 		strh	r2, [r3, #112]	@ movhi
1006:Libraries/lwip-1.4.0/core/tcp_in.c ****         tcp_seg_free(next);
 3017              		.loc 1 1006 0
 3018 0324 F86A     		ldr	r0, [r7, #44]
 3019 0326 FFF7FEFF 		bl	tcp_seg_free
1007:Libraries/lwip-1.4.0/core/tcp_in.c **** 
1008:Libraries/lwip-1.4.0/core/tcp_in.c ****         LWIP_DEBUGF(TCP_QLEN_DEBUG, ("%"U16_F" (after freeing unacked)\n", (u16_t)pcb->snd_queuelen
1009:Libraries/lwip-1.4.0/core/tcp_in.c ****         if (pcb->snd_queuelen != 0) {
 3020              		.loc 1 1009 0
 3021 032a 7B68     		ldr	r3, [r7, #4]
 3022 032c B3F87030 		ldrh	r3, [r3, #112]
 3023 0330 002B     		cmp	r3, #0
 3024 0332 02D0     		beq	.L179
1010:Libraries/lwip-1.4.0/core/tcp_in.c ****           LWIP_ASSERT("tcp_receive: valid queue length", pcb->unacked != NULL ||
 3025              		.loc 1 1010 0
 3026 0334 7B68     		ldr	r3, [r7, #4]
 3027 0336 9B6F     		ldr	r3, [r3, #120]
 3028 0338 002B     		cmp	r3, #0
 3029              	.L179:
 987:Libraries/lwip-1.4.0/core/tcp_in.c ****              TCP_SEQ_LEQ(ntohl(pcb->unacked->tcphdr->seqno) +
 3030              		.loc 1 987 0
 3031 033a 7B68     		ldr	r3, [r7, #4]
 3032 033c 9B6F     		ldr	r3, [r3, #120]
 3033 033e 002B     		cmp	r3, #0
 3034 0340 22D0     		beq	.L181
 988:Libraries/lwip-1.4.0/core/tcp_in.c ****                          TCP_TCPLEN(pcb->unacked), ackno)) {
 3035              		.loc 1 988 0 discriminator 1
 3036 0342 7B68     		ldr	r3, [r7, #4]
 3037 0344 9B6F     		ldr	r3, [r3, #120]
 3038 0346 DB68     		ldr	r3, [r3, #12]
 3039 0348 5B68     		ldr	r3, [r3, #4]	@ unaligned
 3040 034a 1846     		mov	r0, r3
 3041 034c FFF7FEFF 		bl	lwip_ntohl
 3042 0350 0446     		mov	r4, r0
 3043 0352 7B68     		ldr	r3, [r7, #4]
 3044 0354 9B6F     		ldr	r3, [r3, #120]
 3045 0356 1B89     		ldrh	r3, [r3, #8]
 3046 0358 1D46     		mov	r5, r3
 3047 035a 7B68     		ldr	r3, [r7, #4]
 3048 035c 9B6F     		ldr	r3, [r3, #120]
 3049 035e DB68     		ldr	r3, [r3, #12]
 3050 0360 9B89     		ldrh	r3, [r3, #12]	@ unaligned
 3051 0362 9BB2     		uxth	r3, r3
 3052 0364 1846     		mov	r0, r3
 3053 0366 FFF7FEFF 		bl	lwip_ntohs
 3054 036a 0346     		mov	r3, r0
 3055 036c 03F00303 		and	r3, r3, #3
 3056 0370 002B     		cmp	r3, #0
 3057 0372 14BF     		ite	ne
 3058 0374 0123     		movne	r3, #1
 3059 0376 0023     		moveq	r3, #0
 3060 0378 DBB2     		uxtb	r3, r3
 3061 037a 2B44     		add	r3, r3, r5
 3062 037c E218     		adds	r2, r4, r3
 3063 037e 994B     		ldr	r3, .L254
 3064 0380 1B68     		ldr	r3, [r3]
 3065 0382 D31A     		subs	r3, r2, r3
 987:Libraries/lwip-1.4.0/core/tcp_in.c ****              TCP_SEQ_LEQ(ntohl(pcb->unacked->tcphdr->seqno) +
 3066              		.loc 1 987 0 discriminator 1
 3067 0384 002B     		cmp	r3, #0
 3068 0386 97DD     		ble	.L182
 3069              	.L181:
1011:Libraries/lwip-1.4.0/core/tcp_in.c ****                       pcb->unsent != NULL);
1012:Libraries/lwip-1.4.0/core/tcp_in.c ****         }
1013:Libraries/lwip-1.4.0/core/tcp_in.c ****       }
1014:Libraries/lwip-1.4.0/core/tcp_in.c **** 
1015:Libraries/lwip-1.4.0/core/tcp_in.c ****       /* If there's nothing left to acknowledge, stop the retransmit
1016:Libraries/lwip-1.4.0/core/tcp_in.c ****          timer, otherwise reset it to start again */
1017:Libraries/lwip-1.4.0/core/tcp_in.c ****       if(pcb->unacked == NULL)
 3070              		.loc 1 1017 0
 3071 0388 7B68     		ldr	r3, [r7, #4]
 3072 038a 9B6F     		ldr	r3, [r3, #120]
 3073 038c 002B     		cmp	r3, #0
 3074 038e 04D1     		bne	.L183
1018:Libraries/lwip-1.4.0/core/tcp_in.c ****         pcb->rtime = -1;
 3075              		.loc 1 1018 0
 3076 0390 7B68     		ldr	r3, [r7, #4]
 3077 0392 4FF6FF72 		movw	r2, #65535
 3078 0396 DA86     		strh	r2, [r3, #54]	@ movhi
 3079 0398 02E0     		b	.L184
 3080              	.L183:
1019:Libraries/lwip-1.4.0/core/tcp_in.c ****       else
1020:Libraries/lwip-1.4.0/core/tcp_in.c ****         pcb->rtime = 0;
 3081              		.loc 1 1020 0
 3082 039a 7B68     		ldr	r3, [r7, #4]
 3083 039c 0022     		movs	r2, #0
 3084 039e DA86     		strh	r2, [r3, #54]	@ movhi
 3085              	.L184:
1021:Libraries/lwip-1.4.0/core/tcp_in.c **** 
1022:Libraries/lwip-1.4.0/core/tcp_in.c ****       pcb->polltmr = 0;
 3086              		.loc 1 1022 0
 3087 03a0 7B68     		ldr	r3, [r7, #4]
 3088 03a2 0022     		movs	r2, #0
 3089 03a4 83F83420 		strb	r2, [r3, #52]
 3090 03a8 03E0     		b	.L173
 3091              	.L174:
1023:Libraries/lwip-1.4.0/core/tcp_in.c ****     } else {
1024:Libraries/lwip-1.4.0/core/tcp_in.c ****       /* Fix bug bug #21582: out of sequence ACK, didn't really ack anything */
1025:Libraries/lwip-1.4.0/core/tcp_in.c ****       pcb->acked = 0;
 3092              		.loc 1 1025 0
 3093 03aa 7B68     		ldr	r3, [r7, #4]
 3094 03ac 0022     		movs	r2, #0
 3095 03ae A3F86C20 		strh	r2, [r3, #108]	@ movhi
 3096              	.L173:
1026:Libraries/lwip-1.4.0/core/tcp_in.c ****     }
1027:Libraries/lwip-1.4.0/core/tcp_in.c **** 
1028:Libraries/lwip-1.4.0/core/tcp_in.c ****     /* We go through the ->unsent list to see if any of the segments
1029:Libraries/lwip-1.4.0/core/tcp_in.c ****        on the list are acknowledged by the ACK. This may seem
1030:Libraries/lwip-1.4.0/core/tcp_in.c ****        strange since an "unsent" segment shouldn't be acked. The
1031:Libraries/lwip-1.4.0/core/tcp_in.c ****        rationale is that lwIP puts all outstanding segments on the
1032:Libraries/lwip-1.4.0/core/tcp_in.c ****        ->unsent list after a retransmission, so these segments may
1033:Libraries/lwip-1.4.0/core/tcp_in.c ****        in fact have been sent once. */
1034:Libraries/lwip-1.4.0/core/tcp_in.c ****     while (pcb->unsent != NULL &&
 3097              		.loc 1 1034 0 discriminator 1
 3098 03b2 40E0     		b	.L185
 3099              	.L188:
1035:Libraries/lwip-1.4.0/core/tcp_in.c ****            TCP_SEQ_BETWEEN(ackno, ntohl(pcb->unsent->tcphdr->seqno) + 
1036:Libraries/lwip-1.4.0/core/tcp_in.c ****                            TCP_TCPLEN(pcb->unsent), pcb->snd_nxt)) {
1037:Libraries/lwip-1.4.0/core/tcp_in.c ****       LWIP_DEBUGF(TCP_INPUT_DEBUG, ("tcp_receive: removing %"U32_F":%"U32_F" from pcb->unsent\n",
1038:Libraries/lwip-1.4.0/core/tcp_in.c ****                                     ntohl(pcb->unsent->tcphdr->seqno), ntohl(pcb->unsent->tcphdr->s
1039:Libraries/lwip-1.4.0/core/tcp_in.c ****                                     TCP_TCPLEN(pcb->unsent)));
1040:Libraries/lwip-1.4.0/core/tcp_in.c **** 
1041:Libraries/lwip-1.4.0/core/tcp_in.c ****       next = pcb->unsent;
 3100              		.loc 1 1041 0
 3101 03b4 7B68     		ldr	r3, [r7, #4]
 3102 03b6 5B6F     		ldr	r3, [r3, #116]
 3103 03b8 FB62     		str	r3, [r7, #44]
1042:Libraries/lwip-1.4.0/core/tcp_in.c ****       pcb->unsent = pcb->unsent->next;
 3104              		.loc 1 1042 0
 3105 03ba 7B68     		ldr	r3, [r7, #4]
 3106 03bc 5B6F     		ldr	r3, [r3, #116]
 3107 03be 1A68     		ldr	r2, [r3]
 3108 03c0 7B68     		ldr	r3, [r7, #4]
 3109 03c2 5A67     		str	r2, [r3, #116]
1043:Libraries/lwip-1.4.0/core/tcp_in.c ****       LWIP_DEBUGF(TCP_QLEN_DEBUG, ("tcp_receive: queuelen %"U16_F" ... ", (u16_t)pcb->snd_queuelen)
1044:Libraries/lwip-1.4.0/core/tcp_in.c ****       LWIP_ASSERT("pcb->snd_queuelen >= pbuf_clen(next->p)", (pcb->snd_queuelen >= pbuf_clen(next->
 3110              		.loc 1 1044 0
 3111 03c4 FB6A     		ldr	r3, [r7, #44]
 3112 03c6 5B68     		ldr	r3, [r3, #4]
 3113 03c8 1846     		mov	r0, r3
 3114 03ca FFF7FEFF 		bl	pbuf_clen
1045:Libraries/lwip-1.4.0/core/tcp_in.c ****       /* Prevent ACK for FIN to generate a sent event */
1046:Libraries/lwip-1.4.0/core/tcp_in.c ****       if ((pcb->acked != 0) && ((TCPH_FLAGS(next->tcphdr) & TCP_FIN) != 0)) {
 3115              		.loc 1 1046 0
 3116 03ce 7B68     		ldr	r3, [r7, #4]
 3117 03d0 B3F86C30 		ldrh	r3, [r3, #108]
 3118 03d4 002B     		cmp	r3, #0
 3119 03d6 13D0     		beq	.L186
 3120              		.loc 1 1046 0 is_stmt 0 discriminator 1
 3121 03d8 FB6A     		ldr	r3, [r7, #44]
 3122 03da DB68     		ldr	r3, [r3, #12]
 3123 03dc 9B89     		ldrh	r3, [r3, #12]	@ unaligned
 3124 03de 9BB2     		uxth	r3, r3
 3125 03e0 1846     		mov	r0, r3
 3126 03e2 FFF7FEFF 		bl	lwip_ntohs
 3127 03e6 0346     		mov	r3, r0
 3128 03e8 03F00103 		and	r3, r3, #1
 3129 03ec 002B     		cmp	r3, #0
 3130 03ee 07D0     		beq	.L186
1047:Libraries/lwip-1.4.0/core/tcp_in.c ****         pcb->acked--;
 3131              		.loc 1 1047 0 is_stmt 1
 3132 03f0 7B68     		ldr	r3, [r7, #4]
 3133 03f2 B3F86C30 		ldrh	r3, [r3, #108]
 3134 03f6 013B     		subs	r3, r3, #1
 3135 03f8 9AB2     		uxth	r2, r3
 3136 03fa 7B68     		ldr	r3, [r7, #4]
 3137 03fc A3F86C20 		strh	r2, [r3, #108]	@ movhi
 3138              	.L186:
1048:Libraries/lwip-1.4.0/core/tcp_in.c ****       }
1049:Libraries/lwip-1.4.0/core/tcp_in.c ****       pcb->snd_queuelen -= pbuf_clen(next->p);
 3139              		.loc 1 1049 0
 3140 0400 FB6A     		ldr	r3, [r7, #44]
 3141 0402 5B68     		ldr	r3, [r3, #4]
 3142 0404 1846     		mov	r0, r3
 3143 0406 FFF7FEFF 		bl	pbuf_clen
 3144 040a 0346     		mov	r3, r0
 3145 040c 1946     		mov	r1, r3
 3146 040e 7B68     		ldr	r3, [r7, #4]
 3147 0410 B3F87020 		ldrh	r2, [r3, #112]
 3148 0414 8BB2     		uxth	r3, r1
 3149 0416 D31A     		subs	r3, r2, r3
 3150 0418 9AB2     		uxth	r2, r3
 3151 041a 7B68     		ldr	r3, [r7, #4]
 3152 041c A3F87020 		strh	r2, [r3, #112]	@ movhi
1050:Libraries/lwip-1.4.0/core/tcp_in.c ****       tcp_seg_free(next);
 3153              		.loc 1 1050 0
 3154 0420 F86A     		ldr	r0, [r7, #44]
 3155 0422 FFF7FEFF 		bl	tcp_seg_free
1051:Libraries/lwip-1.4.0/core/tcp_in.c ****       LWIP_DEBUGF(TCP_QLEN_DEBUG, ("%"U16_F" (after freeing unsent)\n", (u16_t)pcb->snd_queuelen));
1052:Libraries/lwip-1.4.0/core/tcp_in.c ****       if (pcb->snd_queuelen != 0) {
 3156              		.loc 1 1052 0
 3157 0426 7B68     		ldr	r3, [r7, #4]
 3158 0428 B3F87030 		ldrh	r3, [r3, #112]
 3159 042c 002B     		cmp	r3, #0
 3160 042e 02D0     		beq	.L185
1053:Libraries/lwip-1.4.0/core/tcp_in.c ****         LWIP_ASSERT("tcp_receive: valid queue length",
 3161              		.loc 1 1053 0
 3162 0430 7B68     		ldr	r3, [r7, #4]
 3163 0432 9B6F     		ldr	r3, [r3, #120]
 3164 0434 002B     		cmp	r3, #0
 3165              	.L185:
1034:Libraries/lwip-1.4.0/core/tcp_in.c ****            TCP_SEQ_BETWEEN(ackno, ntohl(pcb->unsent->tcphdr->seqno) + 
 3166              		.loc 1 1034 0
 3167 0436 7B68     		ldr	r3, [r7, #4]
 3168 0438 5B6F     		ldr	r3, [r3, #116]
 3169 043a 002B     		cmp	r3, #0
 3170 043c 29D0     		beq	.L187
1035:Libraries/lwip-1.4.0/core/tcp_in.c ****                            TCP_TCPLEN(pcb->unsent), pcb->snd_nxt)) {
 3171              		.loc 1 1035 0 discriminator 1
 3172 043e 694B     		ldr	r3, .L254
 3173 0440 1C68     		ldr	r4, [r3]
 3174 0442 7B68     		ldr	r3, [r7, #4]
 3175 0444 5B6F     		ldr	r3, [r3, #116]
 3176 0446 DB68     		ldr	r3, [r3, #12]
 3177 0448 5B68     		ldr	r3, [r3, #4]	@ unaligned
 3178 044a 1846     		mov	r0, r3
 3179 044c FFF7FEFF 		bl	lwip_ntohl
 3180 0450 0546     		mov	r5, r0
 3181 0452 7B68     		ldr	r3, [r7, #4]
 3182 0454 5B6F     		ldr	r3, [r3, #116]
 3183 0456 1B89     		ldrh	r3, [r3, #8]
 3184 0458 1E46     		mov	r6, r3
 3185 045a 7B68     		ldr	r3, [r7, #4]
 3186 045c 5B6F     		ldr	r3, [r3, #116]
 3187 045e DB68     		ldr	r3, [r3, #12]
 3188 0460 9B89     		ldrh	r3, [r3, #12]	@ unaligned
 3189 0462 9BB2     		uxth	r3, r3
 3190 0464 1846     		mov	r0, r3
 3191 0466 FFF7FEFF 		bl	lwip_ntohs
 3192 046a 0346     		mov	r3, r0
 3193 046c 03F00303 		and	r3, r3, #3
 3194 0470 002B     		cmp	r3, #0
 3195 0472 14BF     		ite	ne
 3196 0474 0123     		movne	r3, #1
 3197 0476 0023     		moveq	r3, #0
 3198 0478 DBB2     		uxtb	r3, r3
 3199 047a 3344     		add	r3, r3, r6
 3200 047c 2B44     		add	r3, r3, r5
 3201 047e E31A     		subs	r3, r4, r3
1034:Libraries/lwip-1.4.0/core/tcp_in.c ****            TCP_SEQ_BETWEEN(ackno, ntohl(pcb->unsent->tcphdr->seqno) + 
 3202              		.loc 1 1034 0 discriminator 1
 3203 0480 002B     		cmp	r3, #0
 3204 0482 06DB     		blt	.L187
1035:Libraries/lwip-1.4.0/core/tcp_in.c ****                            TCP_TCPLEN(pcb->unsent), pcb->snd_nxt)) {
 3205              		.loc 1 1035 0
 3206 0484 574B     		ldr	r3, .L254
 3207 0486 1A68     		ldr	r2, [r3]
 3208 0488 7B68     		ldr	r3, [r7, #4]
 3209 048a 9B6D     		ldr	r3, [r3, #88]
 3210 048c D31A     		subs	r3, r2, r3
 3211 048e 002B     		cmp	r3, #0
 3212 0490 90DD     		ble	.L188
 3213              	.L187:
1054:Libraries/lwip-1.4.0/core/tcp_in.c ****           pcb->unacked != NULL || pcb->unsent != NULL);
1055:Libraries/lwip-1.4.0/core/tcp_in.c ****       }
1056:Libraries/lwip-1.4.0/core/tcp_in.c ****     }
1057:Libraries/lwip-1.4.0/core/tcp_in.c ****     /* End of ACK for new data processing. */
1058:Libraries/lwip-1.4.0/core/tcp_in.c **** 
1059:Libraries/lwip-1.4.0/core/tcp_in.c ****     LWIP_DEBUGF(TCP_RTO_DEBUG, ("tcp_receive: pcb->rttest %"U32_F" rtseq %"U32_F" ackno %"U32_F"\n"
1060:Libraries/lwip-1.4.0/core/tcp_in.c ****                                 pcb->rttest, pcb->rtseq, ackno));
1061:Libraries/lwip-1.4.0/core/tcp_in.c **** 
1062:Libraries/lwip-1.4.0/core/tcp_in.c ****     /* RTT estimation calculations. This is done by checking if the
1063:Libraries/lwip-1.4.0/core/tcp_in.c ****        incoming segment acknowledges the segment we use to take a
1064:Libraries/lwip-1.4.0/core/tcp_in.c ****        round-trip time measurement. */
1065:Libraries/lwip-1.4.0/core/tcp_in.c ****     if (pcb->rttest && TCP_SEQ_LT(pcb->rtseq, ackno)) {
 3214              		.loc 1 1065 0
 3215 0492 7B68     		ldr	r3, [r7, #4]
 3216 0494 DB6B     		ldr	r3, [r3, #60]
 3217 0496 002B     		cmp	r3, #0
 3218 0498 54D0     		beq	.L163
 3219              		.loc 1 1065 0 is_stmt 0 discriminator 1
 3220 049a 7B68     		ldr	r3, [r7, #4]
 3221 049c 1A6C     		ldr	r2, [r3, #64]
 3222 049e 514B     		ldr	r3, .L254
 3223 04a0 1B68     		ldr	r3, [r3]
 3224 04a2 D31A     		subs	r3, r2, r3
 3225 04a4 002B     		cmp	r3, #0
 3226 04a6 4DDA     		bge	.L163
1066:Libraries/lwip-1.4.0/core/tcp_in.c ****       /* diff between this shouldn't exceed 32K since this are tcp timer ticks
1067:Libraries/lwip-1.4.0/core/tcp_in.c ****          and a round-trip shouldn't be that long... */
1068:Libraries/lwip-1.4.0/core/tcp_in.c ****       m = (s16_t)(tcp_ticks - pcb->rttest);
 3227              		.loc 1 1068 0 is_stmt 1
 3228 04a8 4F4B     		ldr	r3, .L254+4
 3229 04aa 1B68     		ldr	r3, [r3]
 3230 04ac 9AB2     		uxth	r2, r3
 3231 04ae 7B68     		ldr	r3, [r7, #4]
 3232 04b0 DB6B     		ldr	r3, [r3, #60]
 3233 04b2 9BB2     		uxth	r3, r3
 3234 04b4 D31A     		subs	r3, r2, r3
 3235 04b6 9BB2     		uxth	r3, r3
 3236 04b8 FB83     		strh	r3, [r7, #30]	@ movhi
1069:Libraries/lwip-1.4.0/core/tcp_in.c **** 
1070:Libraries/lwip-1.4.0/core/tcp_in.c ****       LWIP_DEBUGF(TCP_RTO_DEBUG, ("tcp_receive: experienced rtt %"U16_F" ticks (%"U16_F" msec).\n",
1071:Libraries/lwip-1.4.0/core/tcp_in.c ****                                   m, m * TCP_SLOW_INTERVAL));
1072:Libraries/lwip-1.4.0/core/tcp_in.c **** 
1073:Libraries/lwip-1.4.0/core/tcp_in.c ****       /* This is taken directly from VJs original code in his paper */
1074:Libraries/lwip-1.4.0/core/tcp_in.c ****       m = m - (pcb->sa >> 3);
 3237              		.loc 1 1074 0
 3238 04ba FA8B     		ldrh	r2, [r7, #30]
 3239 04bc 7B68     		ldr	r3, [r7, #4]
 3240 04be B3F94430 		ldrsh	r3, [r3, #68]
 3241 04c2 DB10     		asrs	r3, r3, #3
 3242 04c4 1BB2     		sxth	r3, r3
 3243 04c6 9BB2     		uxth	r3, r3
 3244 04c8 D31A     		subs	r3, r2, r3
 3245 04ca 9BB2     		uxth	r3, r3
 3246 04cc FB83     		strh	r3, [r7, #30]	@ movhi
1075:Libraries/lwip-1.4.0/core/tcp_in.c ****       pcb->sa += m;
 3247              		.loc 1 1075 0
 3248 04ce 7B68     		ldr	r3, [r7, #4]
 3249 04d0 B3F94430 		ldrsh	r3, [r3, #68]
 3250 04d4 9AB2     		uxth	r2, r3
 3251 04d6 FB8B     		ldrh	r3, [r7, #30]
 3252 04d8 1344     		add	r3, r3, r2
 3253 04da 9BB2     		uxth	r3, r3
 3254 04dc 1AB2     		sxth	r2, r3
 3255 04de 7B68     		ldr	r3, [r7, #4]
 3256 04e0 A3F84420 		strh	r2, [r3, #68]	@ movhi
1076:Libraries/lwip-1.4.0/core/tcp_in.c ****       if (m < 0) {
 3257              		.loc 1 1076 0
 3258 04e4 B7F91E30 		ldrsh	r3, [r7, #30]
 3259 04e8 002B     		cmp	r3, #0
 3260 04ea 03DA     		bge	.L189
1077:Libraries/lwip-1.4.0/core/tcp_in.c ****         m = -m;
 3261              		.loc 1 1077 0
 3262 04ec FB8B     		ldrh	r3, [r7, #30]
 3263 04ee 5B42     		negs	r3, r3
 3264 04f0 9BB2     		uxth	r3, r3
 3265 04f2 FB83     		strh	r3, [r7, #30]	@ movhi
 3266              	.L189:
1078:Libraries/lwip-1.4.0/core/tcp_in.c ****       }
1079:Libraries/lwip-1.4.0/core/tcp_in.c ****       m = m - (pcb->sv >> 2);
 3267              		.loc 1 1079 0
 3268 04f4 FA8B     		ldrh	r2, [r7, #30]
 3269 04f6 7B68     		ldr	r3, [r7, #4]
 3270 04f8 B3F94630 		ldrsh	r3, [r3, #70]
 3271 04fc 9B10     		asrs	r3, r3, #2
 3272 04fe 1BB2     		sxth	r3, r3
 3273 0500 9BB2     		uxth	r3, r3
 3274 0502 D31A     		subs	r3, r2, r3
 3275 0504 9BB2     		uxth	r3, r3
 3276 0506 FB83     		strh	r3, [r7, #30]	@ movhi
1080:Libraries/lwip-1.4.0/core/tcp_in.c ****       pcb->sv += m;
 3277              		.loc 1 1080 0
 3278 0508 7B68     		ldr	r3, [r7, #4]
 3279 050a B3F94630 		ldrsh	r3, [r3, #70]
 3280 050e 9AB2     		uxth	r2, r3
 3281 0510 FB8B     		ldrh	r3, [r7, #30]
 3282 0512 1344     		add	r3, r3, r2
 3283 0514 9BB2     		uxth	r3, r3
 3284 0516 1AB2     		sxth	r2, r3
 3285 0518 7B68     		ldr	r3, [r7, #4]
 3286 051a A3F84620 		strh	r2, [r3, #70]	@ movhi
1081:Libraries/lwip-1.4.0/core/tcp_in.c ****       pcb->rto = (pcb->sa >> 3) + pcb->sv;
 3287              		.loc 1 1081 0
 3288 051e 7B68     		ldr	r3, [r7, #4]
 3289 0520 B3F94430 		ldrsh	r3, [r3, #68]
 3290 0524 DB10     		asrs	r3, r3, #3
 3291 0526 1BB2     		sxth	r3, r3
 3292 0528 9AB2     		uxth	r2, r3
 3293 052a 7B68     		ldr	r3, [r7, #4]
 3294 052c B3F94630 		ldrsh	r3, [r3, #70]
 3295 0530 9BB2     		uxth	r3, r3
 3296 0532 1344     		add	r3, r3, r2
 3297 0534 9BB2     		uxth	r3, r3
 3298 0536 1AB2     		sxth	r2, r3
 3299 0538 7B68     		ldr	r3, [r7, #4]
 3300 053a A3F84820 		strh	r2, [r3, #72]	@ movhi
1082:Libraries/lwip-1.4.0/core/tcp_in.c **** 
1083:Libraries/lwip-1.4.0/core/tcp_in.c ****       LWIP_DEBUGF(TCP_RTO_DEBUG, ("tcp_receive: RTO %"U16_F" (%"U16_F" milliseconds)\n",
1084:Libraries/lwip-1.4.0/core/tcp_in.c ****                                   pcb->rto, pcb->rto * TCP_SLOW_INTERVAL));
1085:Libraries/lwip-1.4.0/core/tcp_in.c **** 
1086:Libraries/lwip-1.4.0/core/tcp_in.c ****       pcb->rttest = 0;
 3301              		.loc 1 1086 0
 3302 053e 7B68     		ldr	r3, [r7, #4]
 3303 0540 0022     		movs	r2, #0
 3304 0542 DA63     		str	r2, [r3, #60]
 3305              	.L163:
1087:Libraries/lwip-1.4.0/core/tcp_in.c ****     }
1088:Libraries/lwip-1.4.0/core/tcp_in.c ****   }
1089:Libraries/lwip-1.4.0/core/tcp_in.c **** 
1090:Libraries/lwip-1.4.0/core/tcp_in.c ****   /* If the incoming segment contains data, we must process it
1091:Libraries/lwip-1.4.0/core/tcp_in.c ****      further. */
1092:Libraries/lwip-1.4.0/core/tcp_in.c ****   if (tcplen > 0) {
 3306              		.loc 1 1092 0
 3307 0544 294B     		ldr	r3, .L254+8
 3308 0546 1B88     		ldrh	r3, [r3]
 3309 0548 002B     		cmp	r3, #0
 3310 054a 00F04684 		beq	.L190
1093:Libraries/lwip-1.4.0/core/tcp_in.c ****     /* This code basically does three things:
1094:Libraries/lwip-1.4.0/core/tcp_in.c **** 
1095:Libraries/lwip-1.4.0/core/tcp_in.c ****     +) If the incoming segment contains data that is the next
1096:Libraries/lwip-1.4.0/core/tcp_in.c ****     in-sequence data, this data is passed to the application. This
1097:Libraries/lwip-1.4.0/core/tcp_in.c ****     might involve trimming the first edge of the data. The rcv_nxt
1098:Libraries/lwip-1.4.0/core/tcp_in.c ****     variable and the advertised window are adjusted.
1099:Libraries/lwip-1.4.0/core/tcp_in.c **** 
1100:Libraries/lwip-1.4.0/core/tcp_in.c ****     +) If the incoming segment has data that is above the next
1101:Libraries/lwip-1.4.0/core/tcp_in.c ****     sequence number expected (->rcv_nxt), the segment is placed on
1102:Libraries/lwip-1.4.0/core/tcp_in.c ****     the ->ooseq queue. This is done by finding the appropriate
1103:Libraries/lwip-1.4.0/core/tcp_in.c ****     place in the ->ooseq queue (which is ordered by sequence
1104:Libraries/lwip-1.4.0/core/tcp_in.c ****     number) and trim the segment in both ends if needed. An
1105:Libraries/lwip-1.4.0/core/tcp_in.c ****     immediate ACK is sent to indicate that we received an
1106:Libraries/lwip-1.4.0/core/tcp_in.c ****     out-of-sequence segment.
1107:Libraries/lwip-1.4.0/core/tcp_in.c **** 
1108:Libraries/lwip-1.4.0/core/tcp_in.c ****     +) Finally, we check if the first segment on the ->ooseq queue
1109:Libraries/lwip-1.4.0/core/tcp_in.c ****     now is in sequence (i.e., if rcv_nxt >= ooseq->seqno). If
1110:Libraries/lwip-1.4.0/core/tcp_in.c ****     rcv_nxt > ooseq->seqno, we must trim the first edge of the
1111:Libraries/lwip-1.4.0/core/tcp_in.c ****     segment on ->ooseq before we adjust rcv_nxt. The data in the
1112:Libraries/lwip-1.4.0/core/tcp_in.c ****     segments that are now on sequence are chained onto the
1113:Libraries/lwip-1.4.0/core/tcp_in.c ****     incoming segment so that we only need to call the application
1114:Libraries/lwip-1.4.0/core/tcp_in.c ****     once.
1115:Libraries/lwip-1.4.0/core/tcp_in.c ****     */
1116:Libraries/lwip-1.4.0/core/tcp_in.c **** 
1117:Libraries/lwip-1.4.0/core/tcp_in.c ****     /* First, we check if we must trim the first edge. We have to do
1118:Libraries/lwip-1.4.0/core/tcp_in.c ****        this if the sequence number of the incoming segment is less
1119:Libraries/lwip-1.4.0/core/tcp_in.c ****        than rcv_nxt, and the sequence number plus the length of the
1120:Libraries/lwip-1.4.0/core/tcp_in.c ****        segment is larger than rcv_nxt. */
1121:Libraries/lwip-1.4.0/core/tcp_in.c ****     /*    if (TCP_SEQ_LT(seqno, pcb->rcv_nxt)){
1122:Libraries/lwip-1.4.0/core/tcp_in.c ****           if (TCP_SEQ_LT(pcb->rcv_nxt, seqno + tcplen)) {*/
1123:Libraries/lwip-1.4.0/core/tcp_in.c ****     if (TCP_SEQ_BETWEEN(pcb->rcv_nxt, seqno + 1, seqno + tcplen - 1)){
 3311              		.loc 1 1123 0
 3312 054e 7B68     		ldr	r3, [r7, #4]
 3313 0550 5A6A     		ldr	r2, [r3, #36]
 3314 0552 274B     		ldr	r3, .L254+12
 3315 0554 1B68     		ldr	r3, [r3]
 3316 0556 D31A     		subs	r3, r2, r3
 3317 0558 013B     		subs	r3, r3, #1
 3318 055a 002B     		cmp	r3, #0
 3319 055c 6FDB     		blt	.L191
 3320              		.loc 1 1123 0 is_stmt 0 discriminator 1
 3321 055e 7B68     		ldr	r3, [r7, #4]
 3322 0560 5A6A     		ldr	r2, [r3, #36]
 3323 0562 224B     		ldr	r3, .L254+8
 3324 0564 1B88     		ldrh	r3, [r3]
 3325 0566 1946     		mov	r1, r3
 3326 0568 214B     		ldr	r3, .L254+12
 3327 056a 1B68     		ldr	r3, [r3]
 3328 056c 0B44     		add	r3, r3, r1
 3329 056e D31A     		subs	r3, r2, r3
 3330 0570 0133     		adds	r3, r3, #1
 3331 0572 002B     		cmp	r3, #0
 3332 0574 63DC     		bgt	.L191
1124:Libraries/lwip-1.4.0/core/tcp_in.c ****       /* Trimming the first edge is done by pushing the payload
1125:Libraries/lwip-1.4.0/core/tcp_in.c ****          pointer in the pbuf downwards. This is somewhat tricky since
1126:Libraries/lwip-1.4.0/core/tcp_in.c ****          we do not want to discard the full contents of the pbuf up to
1127:Libraries/lwip-1.4.0/core/tcp_in.c ****          the new starting point of the data since we have to keep the
1128:Libraries/lwip-1.4.0/core/tcp_in.c ****          TCP header which is present in the first pbuf in the chain.
1129:Libraries/lwip-1.4.0/core/tcp_in.c **** 
1130:Libraries/lwip-1.4.0/core/tcp_in.c ****          What is done is really quite a nasty hack: the first pbuf in
1131:Libraries/lwip-1.4.0/core/tcp_in.c ****          the pbuf chain is pointed to by inseg.p. Since we need to be
1132:Libraries/lwip-1.4.0/core/tcp_in.c ****          able to deallocate the whole pbuf, we cannot change this
1133:Libraries/lwip-1.4.0/core/tcp_in.c ****          inseg.p pointer to point to any of the later pbufs in the
1134:Libraries/lwip-1.4.0/core/tcp_in.c ****          chain. Instead, we point the ->payload pointer in the first
1135:Libraries/lwip-1.4.0/core/tcp_in.c ****          pbuf to data in one of the later pbufs. We also set the
1136:Libraries/lwip-1.4.0/core/tcp_in.c ****          inseg.data pointer to point to the right place. This way, the
1137:Libraries/lwip-1.4.0/core/tcp_in.c ****          ->p pointer will still point to the first pbuf, but the
1138:Libraries/lwip-1.4.0/core/tcp_in.c ****          ->p->payload pointer will point to data in another pbuf.
1139:Libraries/lwip-1.4.0/core/tcp_in.c **** 
1140:Libraries/lwip-1.4.0/core/tcp_in.c ****          After we are done with adjusting the pbuf pointers we must
1141:Libraries/lwip-1.4.0/core/tcp_in.c ****          adjust the ->data pointer in the seg and the segment
1142:Libraries/lwip-1.4.0/core/tcp_in.c ****          length.*/
1143:Libraries/lwip-1.4.0/core/tcp_in.c **** 
1144:Libraries/lwip-1.4.0/core/tcp_in.c ****       off = pcb->rcv_nxt - seqno;
 3333              		.loc 1 1144 0 is_stmt 1
 3334 0576 7B68     		ldr	r3, [r7, #4]
 3335 0578 5A6A     		ldr	r2, [r3, #36]
 3336 057a 1D4B     		ldr	r3, .L254+12
 3337 057c 1B68     		ldr	r3, [r3]
 3338 057e D31A     		subs	r3, r2, r3
 3339 0580 3B62     		str	r3, [r7, #32]
1145:Libraries/lwip-1.4.0/core/tcp_in.c ****       p = inseg.p;
 3340              		.loc 1 1145 0
 3341 0582 1C4B     		ldr	r3, .L254+16
 3342 0584 5B68     		ldr	r3, [r3, #4]
 3343 0586 7B62     		str	r3, [r7, #36]
1146:Libraries/lwip-1.4.0/core/tcp_in.c ****       LWIP_ASSERT("inseg.p != NULL", inseg.p);
1147:Libraries/lwip-1.4.0/core/tcp_in.c ****       LWIP_ASSERT("insane offset!", (off < 0x7fff));
1148:Libraries/lwip-1.4.0/core/tcp_in.c ****       if (inseg.p->len < off) {
 3344              		.loc 1 1148 0
 3345 0588 1A4B     		ldr	r3, .L254+16
 3346 058a 5B68     		ldr	r3, [r3, #4]
 3347 058c 5B89     		ldrh	r3, [r3, #10]
 3348 058e 1A46     		mov	r2, r3
 3349 0590 3B6A     		ldr	r3, [r7, #32]
 3350 0592 9A42     		cmp	r2, r3
 3351 0594 30DA     		bge	.L192
1149:Libraries/lwip-1.4.0/core/tcp_in.c ****         LWIP_ASSERT("pbuf too short!", (((s32_t)inseg.p->tot_len) >= off));
1150:Libraries/lwip-1.4.0/core/tcp_in.c ****         new_tot_len = (u16_t)(inseg.p->tot_len - off);
 3352              		.loc 1 1150 0
 3353 0596 174B     		ldr	r3, .L254+16
 3354 0598 5B68     		ldr	r3, [r3, #4]
 3355 059a 1A89     		ldrh	r2, [r3, #8]
 3356 059c 3B6A     		ldr	r3, [r7, #32]
 3357 059e 9BB2     		uxth	r3, r3
 3358 05a0 D31A     		subs	r3, r2, r3
 3359 05a2 3B82     		strh	r3, [r7, #16]	@ movhi
1151:Libraries/lwip-1.4.0/core/tcp_in.c ****         while (p->len < off) {
 3360              		.loc 1 1151 0
 3361 05a4 0EE0     		b	.L193
 3362              	.L194:
1152:Libraries/lwip-1.4.0/core/tcp_in.c ****           off -= p->len;
 3363              		.loc 1 1152 0
 3364 05a6 7B6A     		ldr	r3, [r7, #36]
 3365 05a8 5B89     		ldrh	r3, [r3, #10]
 3366 05aa 1A46     		mov	r2, r3
 3367 05ac 3B6A     		ldr	r3, [r7, #32]
 3368 05ae 9B1A     		subs	r3, r3, r2
 3369 05b0 3B62     		str	r3, [r7, #32]
1153:Libraries/lwip-1.4.0/core/tcp_in.c ****           /* KJM following line changed (with addition of new_tot_len var)
1154:Libraries/lwip-1.4.0/core/tcp_in.c ****              to fix bug #9076
1155:Libraries/lwip-1.4.0/core/tcp_in.c ****              inseg.p->tot_len -= p->len; */
1156:Libraries/lwip-1.4.0/core/tcp_in.c ****           p->tot_len = new_tot_len;
 3370              		.loc 1 1156 0
 3371 05b2 7B6A     		ldr	r3, [r7, #36]
 3372 05b4 3A8A     		ldrh	r2, [r7, #16]	@ movhi
 3373 05b6 1A81     		strh	r2, [r3, #8]	@ movhi
1157:Libraries/lwip-1.4.0/core/tcp_in.c ****           p->len = 0;
 3374              		.loc 1 1157 0
 3375 05b8 7B6A     		ldr	r3, [r7, #36]
 3376 05ba 0022     		movs	r2, #0
 3377 05bc 5A81     		strh	r2, [r3, #10]	@ movhi
1158:Libraries/lwip-1.4.0/core/tcp_in.c ****           p = p->next;
 3378              		.loc 1 1158 0
 3379 05be 7B6A     		ldr	r3, [r7, #36]
 3380 05c0 1B68     		ldr	r3, [r3]
 3381 05c2 7B62     		str	r3, [r7, #36]
 3382              	.L193:
1151:Libraries/lwip-1.4.0/core/tcp_in.c ****           off -= p->len;
 3383              		.loc 1 1151 0
 3384 05c4 7B6A     		ldr	r3, [r7, #36]
 3385 05c6 5B89     		ldrh	r3, [r3, #10]
 3386 05c8 1A46     		mov	r2, r3
 3387 05ca 3B6A     		ldr	r3, [r7, #32]
 3388 05cc 9A42     		cmp	r2, r3
 3389 05ce EADB     		blt	.L194
1159:Libraries/lwip-1.4.0/core/tcp_in.c ****         }
1160:Libraries/lwip-1.4.0/core/tcp_in.c ****         if(pbuf_header(p, (s16_t)-off)) {
 3390              		.loc 1 1160 0
 3391 05d0 3B6A     		ldr	r3, [r7, #32]
 3392 05d2 9BB2     		uxth	r3, r3
 3393 05d4 5B42     		negs	r3, r3
 3394 05d6 9BB2     		uxth	r3, r3
 3395 05d8 1BB2     		sxth	r3, r3
 3396 05da 1946     		mov	r1, r3
 3397 05dc 786A     		ldr	r0, [r7, #36]
 3398 05de FFF7FEFF 		bl	pbuf_header
 3399 05e2 14E0     		b	.L195
 3400              	.L255:
 3401              		.align	2
 3402              	.L254:
 3403 05e4 00000000 		.word	ackno
 3404 05e8 00000000 		.word	tcp_ticks
 3405 05ec 00000000 		.word	tcplen
 3406 05f0 00000000 		.word	seqno
 3407 05f4 00000000 		.word	inseg
 3408              	.L192:
1161:Libraries/lwip-1.4.0/core/tcp_in.c ****           /* Do we need to cope with this failing?  Assert for now */
1162:Libraries/lwip-1.4.0/core/tcp_in.c ****           LWIP_ASSERT("pbuf_header failed", 0);
1163:Libraries/lwip-1.4.0/core/tcp_in.c ****         }
1164:Libraries/lwip-1.4.0/core/tcp_in.c ****       } else {
1165:Libraries/lwip-1.4.0/core/tcp_in.c ****         if(pbuf_header(inseg.p, (s16_t)-off)) {
 3409              		.loc 1 1165 0
 3410 05f8 764B     		ldr	r3, .L256
 3411 05fa 5B68     		ldr	r3, [r3, #4]
 3412 05fc 3A6A     		ldr	r2, [r7, #32]
 3413 05fe 92B2     		uxth	r2, r2
 3414 0600 5242     		negs	r2, r2
 3415 0602 92B2     		uxth	r2, r2
 3416 0604 12B2     		sxth	r2, r2
 3417 0606 1146     		mov	r1, r2
 3418 0608 1846     		mov	r0, r3
 3419 060a FFF7FEFF 		bl	pbuf_header
 3420              	.L195:
1166:Libraries/lwip-1.4.0/core/tcp_in.c ****           /* Do we need to cope with this failing?  Assert for now */
1167:Libraries/lwip-1.4.0/core/tcp_in.c ****           LWIP_ASSERT("pbuf_header failed", 0);
1168:Libraries/lwip-1.4.0/core/tcp_in.c ****         }
1169:Libraries/lwip-1.4.0/core/tcp_in.c ****       }
1170:Libraries/lwip-1.4.0/core/tcp_in.c ****       inseg.len -= (u16_t)(pcb->rcv_nxt - seqno);
 3421              		.loc 1 1170 0
 3422 060e 714B     		ldr	r3, .L256
 3423 0610 1A89     		ldrh	r2, [r3, #8]
 3424 0612 714B     		ldr	r3, .L256+4
 3425 0614 1B68     		ldr	r3, [r3]
 3426 0616 99B2     		uxth	r1, r3
 3427 0618 7B68     		ldr	r3, [r7, #4]
 3428 061a 5B6A     		ldr	r3, [r3, #36]
 3429 061c 9BB2     		uxth	r3, r3
 3430 061e CB1A     		subs	r3, r1, r3
 3431 0620 9BB2     		uxth	r3, r3
 3432 0622 1344     		add	r3, r3, r2
 3433 0624 9AB2     		uxth	r2, r3
 3434 0626 6B4B     		ldr	r3, .L256
 3435 0628 1A81     		strh	r2, [r3, #8]	@ movhi
1171:Libraries/lwip-1.4.0/core/tcp_in.c ****       inseg.tcphdr->seqno = seqno = pcb->rcv_nxt;
 3436              		.loc 1 1171 0
 3437 062a 6A4B     		ldr	r3, .L256
 3438 062c DB68     		ldr	r3, [r3, #12]
 3439 062e 7A68     		ldr	r2, [r7, #4]
 3440 0630 526A     		ldr	r2, [r2, #36]
 3441 0632 6949     		ldr	r1, .L256+4
 3442 0634 0A60     		str	r2, [r1]
 3443 0636 684A     		ldr	r2, .L256+4
 3444 0638 1268     		ldr	r2, [r2]
 3445 063a 5A60     		str	r2, [r3, #4]	@ unaligned
 3446 063c 0FE0     		b	.L196
 3447              	.L191:
1172:Libraries/lwip-1.4.0/core/tcp_in.c ****     }
1173:Libraries/lwip-1.4.0/core/tcp_in.c ****     else {
1174:Libraries/lwip-1.4.0/core/tcp_in.c ****       if (TCP_SEQ_LT(seqno, pcb->rcv_nxt)){
 3448              		.loc 1 1174 0
 3449 063e 664B     		ldr	r3, .L256+4
 3450 0640 1A68     		ldr	r2, [r3]
 3451 0642 7B68     		ldr	r3, [r7, #4]
 3452 0644 5B6A     		ldr	r3, [r3, #36]
 3453 0646 D31A     		subs	r3, r2, r3
 3454 0648 002B     		cmp	r3, #0
 3455 064a 08DA     		bge	.L196
1175:Libraries/lwip-1.4.0/core/tcp_in.c ****         /* the whole segment is < rcv_nxt */
1176:Libraries/lwip-1.4.0/core/tcp_in.c ****         /* must be a duplicate of a packet that has already been correctly handled */
1177:Libraries/lwip-1.4.0/core/tcp_in.c **** 
1178:Libraries/lwip-1.4.0/core/tcp_in.c ****         LWIP_DEBUGF(TCP_INPUT_DEBUG, ("tcp_receive: duplicate seqno %"U32_F"\n", seqno));
1179:Libraries/lwip-1.4.0/core/tcp_in.c ****         tcp_ack_now(pcb);
 3456              		.loc 1 1179 0
 3457 064c 7B68     		ldr	r3, [r7, #4]
 3458 064e 93F82030 		ldrb	r3, [r3, #32]	@ zero_extendqisi2
 3459 0652 43F00203 		orr	r3, r3, #2
 3460 0656 DAB2     		uxtb	r2, r3
 3461 0658 7B68     		ldr	r3, [r7, #4]
 3462 065a 83F82020 		strb	r2, [r3, #32]
 3463              	.L196:
1180:Libraries/lwip-1.4.0/core/tcp_in.c ****       }
1181:Libraries/lwip-1.4.0/core/tcp_in.c ****     }
1182:Libraries/lwip-1.4.0/core/tcp_in.c **** 
1183:Libraries/lwip-1.4.0/core/tcp_in.c ****     /* The sequence number must be within the window (above rcv_nxt
1184:Libraries/lwip-1.4.0/core/tcp_in.c ****        and below rcv_nxt + rcv_wnd) in order to be further
1185:Libraries/lwip-1.4.0/core/tcp_in.c ****        processed. */
1186:Libraries/lwip-1.4.0/core/tcp_in.c ****     if (TCP_SEQ_BETWEEN(seqno, pcb->rcv_nxt, 
 3464              		.loc 1 1186 0
 3465 065e 5E4B     		ldr	r3, .L256+4
 3466 0660 1A68     		ldr	r2, [r3]
 3467 0662 7B68     		ldr	r3, [r7, #4]
 3468 0664 5B6A     		ldr	r3, [r3, #36]
 3469 0666 D31A     		subs	r3, r2, r3
 3470 0668 002B     		cmp	r3, #0
 3471 066a C0F2B283 		blt	.L197
 3472              		.loc 1 1186 0 is_stmt 0 discriminator 1
 3473 066e 5A4B     		ldr	r3, .L256+4
 3474 0670 1A68     		ldr	r2, [r3]
 3475 0672 7B68     		ldr	r3, [r7, #4]
 3476 0674 5B6A     		ldr	r3, [r3, #36]
 3477 0676 7968     		ldr	r1, [r7, #4]
 3478 0678 098D     		ldrh	r1, [r1, #40]
 3479 067a 0B44     		add	r3, r3, r1
 3480 067c D31A     		subs	r3, r2, r3
 3481 067e 0133     		adds	r3, r3, #1
 3482 0680 002B     		cmp	r3, #0
 3483 0682 00F3A683 		bgt	.L197
1187:Libraries/lwip-1.4.0/core/tcp_in.c ****                         pcb->rcv_nxt + pcb->rcv_wnd - 1)){
1188:Libraries/lwip-1.4.0/core/tcp_in.c ****       if (pcb->rcv_nxt == seqno) {
 3484              		.loc 1 1188 0 is_stmt 1
 3485 0686 7B68     		ldr	r3, [r7, #4]
 3486 0688 5A6A     		ldr	r2, [r3, #36]
 3487 068a 534B     		ldr	r3, .L256+4
 3488 068c 1B68     		ldr	r3, [r3]
 3489 068e 9A42     		cmp	r2, r3
 3490 0690 40F03B82 		bne	.L198
1189:Libraries/lwip-1.4.0/core/tcp_in.c ****         /* The incoming segment is the next in sequence. We check if
1190:Libraries/lwip-1.4.0/core/tcp_in.c ****            we have to trim the end of the segment and update rcv_nxt
1191:Libraries/lwip-1.4.0/core/tcp_in.c ****            and pass the data to the application. */
1192:Libraries/lwip-1.4.0/core/tcp_in.c ****         tcplen = TCP_TCPLEN(&inseg);
 3491              		.loc 1 1192 0
 3492 0694 4F4B     		ldr	r3, .L256
 3493 0696 1C89     		ldrh	r4, [r3, #8]
 3494 0698 4E4B     		ldr	r3, .L256
 3495 069a DB68     		ldr	r3, [r3, #12]
 3496 069c 9B89     		ldrh	r3, [r3, #12]	@ unaligned
 3497 069e 9BB2     		uxth	r3, r3
 3498 06a0 1846     		mov	r0, r3
 3499 06a2 FFF7FEFF 		bl	lwip_ntohs
 3500 06a6 0346     		mov	r3, r0
 3501 06a8 03F00303 		and	r3, r3, #3
 3502 06ac 002B     		cmp	r3, #0
 3503 06ae 14BF     		ite	ne
 3504 06b0 0123     		movne	r3, #1
 3505 06b2 0023     		moveq	r3, #0
 3506 06b4 DBB2     		uxtb	r3, r3
 3507 06b6 9BB2     		uxth	r3, r3
 3508 06b8 2344     		add	r3, r3, r4
 3509 06ba 9AB2     		uxth	r2, r3
 3510 06bc 474B     		ldr	r3, .L256+8
 3511 06be 1A80     		strh	r2, [r3]	@ movhi
1193:Libraries/lwip-1.4.0/core/tcp_in.c **** 
1194:Libraries/lwip-1.4.0/core/tcp_in.c ****         if (tcplen > pcb->rcv_wnd) {
 3512              		.loc 1 1194 0
 3513 06c0 7B68     		ldr	r3, [r7, #4]
 3514 06c2 1A8D     		ldrh	r2, [r3, #40]
 3515 06c4 454B     		ldr	r3, .L256+8
 3516 06c6 1B88     		ldrh	r3, [r3]
 3517 06c8 9A42     		cmp	r2, r3
 3518 06ca 5DD2     		bcs	.L199
1195:Libraries/lwip-1.4.0/core/tcp_in.c ****           LWIP_DEBUGF(TCP_INPUT_DEBUG, 
1196:Libraries/lwip-1.4.0/core/tcp_in.c ****                       ("tcp_receive: other end overran receive window"
1197:Libraries/lwip-1.4.0/core/tcp_in.c ****                        "seqno %"U32_F" len %"U16_F" right edge %"U32_F"\n",
1198:Libraries/lwip-1.4.0/core/tcp_in.c ****                        seqno, tcplen, pcb->rcv_nxt + pcb->rcv_wnd));
1199:Libraries/lwip-1.4.0/core/tcp_in.c ****           if (TCPH_FLAGS(inseg.tcphdr) & TCP_FIN) {
 3519              		.loc 1 1199 0
 3520 06cc 414B     		ldr	r3, .L256
 3521 06ce DB68     		ldr	r3, [r3, #12]
 3522 06d0 9B89     		ldrh	r3, [r3, #12]	@ unaligned
 3523 06d2 9BB2     		uxth	r3, r3
 3524 06d4 1846     		mov	r0, r3
 3525 06d6 FFF7FEFF 		bl	lwip_ntohs
 3526 06da 0346     		mov	r3, r0
 3527 06dc 03F00103 		and	r3, r3, #1
 3528 06e0 002B     		cmp	r3, #0
 3529 06e2 1DD0     		beq	.L200
1200:Libraries/lwip-1.4.0/core/tcp_in.c ****             /* Must remove the FIN from the header as we're trimming 
1201:Libraries/lwip-1.4.0/core/tcp_in.c ****              * that byte of sequence-space from the packet */
1202:Libraries/lwip-1.4.0/core/tcp_in.c ****             TCPH_FLAGS_SET(inseg.tcphdr, TCPH_FLAGS(inseg.tcphdr) &~ TCP_FIN);
 3530              		.loc 1 1202 0
 3531 06e4 3B4B     		ldr	r3, .L256
 3532 06e6 DC68     		ldr	r4, [r3, #12]
 3533 06e8 3A4B     		ldr	r3, .L256
 3534 06ea DB68     		ldr	r3, [r3, #12]
 3535 06ec 9B89     		ldrh	r3, [r3, #12]	@ unaligned
 3536 06ee 9BB2     		uxth	r3, r3
 3537 06f0 1BB2     		sxth	r3, r3
 3538 06f2 23F47C53 		bic	r3, r3, #16128
 3539 06f6 1DB2     		sxth	r5, r3
 3540 06f8 364B     		ldr	r3, .L256
 3541 06fa DB68     		ldr	r3, [r3, #12]
 3542 06fc 9B89     		ldrh	r3, [r3, #12]	@ unaligned
 3543 06fe 9BB2     		uxth	r3, r3
 3544 0700 1846     		mov	r0, r3
 3545 0702 FFF7FEFF 		bl	lwip_ntohs
 3546 0706 0346     		mov	r3, r0
 3547 0708 03F03E03 		and	r3, r3, #62
 3548 070c 9BB2     		uxth	r3, r3
 3549 070e 1846     		mov	r0, r3
 3550 0710 FFF7FEFF 		bl	lwip_htons
 3551 0714 0346     		mov	r3, r0
 3552 0716 1BB2     		sxth	r3, r3
 3553 0718 2B43     		orrs	r3, r3, r5
 3554 071a 1BB2     		sxth	r3, r3
 3555 071c 9BB2     		uxth	r3, r3
 3556 071e A381     		strh	r3, [r4, #12]	@ unaligned
 3557              	.L200:
1203:Libraries/lwip-1.4.0/core/tcp_in.c ****           }
1204:Libraries/lwip-1.4.0/core/tcp_in.c ****           /* Adjust length of segment to fit in the window. */
1205:Libraries/lwip-1.4.0/core/tcp_in.c ****           inseg.len = pcb->rcv_wnd;
 3558              		.loc 1 1205 0
 3559 0720 7B68     		ldr	r3, [r7, #4]
 3560 0722 1A8D     		ldrh	r2, [r3, #40]
 3561 0724 2B4B     		ldr	r3, .L256
 3562 0726 1A81     		strh	r2, [r3, #8]	@ movhi
1206:Libraries/lwip-1.4.0/core/tcp_in.c ****           if (TCPH_FLAGS(inseg.tcphdr) & TCP_SYN) {
 3563              		.loc 1 1206 0
 3564 0728 2A4B     		ldr	r3, .L256
 3565 072a DB68     		ldr	r3, [r3, #12]
 3566 072c 9B89     		ldrh	r3, [r3, #12]	@ unaligned
 3567 072e 9BB2     		uxth	r3, r3
 3568 0730 1846     		mov	r0, r3
 3569 0732 FFF7FEFF 		bl	lwip_ntohs
 3570 0736 0346     		mov	r3, r0
 3571 0738 03F00203 		and	r3, r3, #2
 3572 073c 002B     		cmp	r3, #0
 3573 073e 05D0     		beq	.L201
1207:Libraries/lwip-1.4.0/core/tcp_in.c ****             inseg.len -= 1;
 3574              		.loc 1 1207 0
 3575 0740 244B     		ldr	r3, .L256
 3576 0742 1B89     		ldrh	r3, [r3, #8]
 3577 0744 013B     		subs	r3, r3, #1
 3578 0746 9AB2     		uxth	r2, r3
 3579 0748 224B     		ldr	r3, .L256
 3580 074a 1A81     		strh	r2, [r3, #8]	@ movhi
 3581              	.L201:
1208:Libraries/lwip-1.4.0/core/tcp_in.c ****           }
1209:Libraries/lwip-1.4.0/core/tcp_in.c ****           pbuf_realloc(inseg.p, inseg.len);
 3582              		.loc 1 1209 0
 3583 074c 214B     		ldr	r3, .L256
 3584 074e 5A68     		ldr	r2, [r3, #4]
 3585 0750 204B     		ldr	r3, .L256
 3586 0752 1B89     		ldrh	r3, [r3, #8]
 3587 0754 1946     		mov	r1, r3
 3588 0756 1046     		mov	r0, r2
 3589 0758 FFF7FEFF 		bl	pbuf_realloc
1210:Libraries/lwip-1.4.0/core/tcp_in.c ****           tcplen = TCP_TCPLEN(&inseg);
 3590              		.loc 1 1210 0
 3591 075c 1D4B     		ldr	r3, .L256
 3592 075e 1C89     		ldrh	r4, [r3, #8]
 3593 0760 1C4B     		ldr	r3, .L256
 3594 0762 DB68     		ldr	r3, [r3, #12]
 3595 0764 9B89     		ldrh	r3, [r3, #12]	@ unaligned
 3596 0766 9BB2     		uxth	r3, r3
 3597 0768 1846     		mov	r0, r3
 3598 076a FFF7FEFF 		bl	lwip_ntohs
 3599 076e 0346     		mov	r3, r0
 3600 0770 03F00303 		and	r3, r3, #3
 3601 0774 002B     		cmp	r3, #0
 3602 0776 14BF     		ite	ne
 3603 0778 0123     		movne	r3, #1
 3604 077a 0023     		moveq	r3, #0
 3605 077c DBB2     		uxtb	r3, r3
 3606 077e 9BB2     		uxth	r3, r3
 3607 0780 2344     		add	r3, r3, r4
 3608 0782 9AB2     		uxth	r2, r3
 3609 0784 154B     		ldr	r3, .L256+8
 3610 0786 1A80     		strh	r2, [r3]	@ movhi
 3611              	.L199:
1211:Libraries/lwip-1.4.0/core/tcp_in.c ****           LWIP_ASSERT("tcp_receive: segment not trimmed correctly to rcv_wnd\n",
1212:Libraries/lwip-1.4.0/core/tcp_in.c ****                       (seqno + tcplen) == (pcb->rcv_nxt + pcb->rcv_wnd));
1213:Libraries/lwip-1.4.0/core/tcp_in.c ****         }
1214:Libraries/lwip-1.4.0/core/tcp_in.c **** #if TCP_QUEUE_OOSEQ
1215:Libraries/lwip-1.4.0/core/tcp_in.c ****         /* Received in-sequence data, adjust ooseq data if:
1216:Libraries/lwip-1.4.0/core/tcp_in.c ****            - FIN has been received or
1217:Libraries/lwip-1.4.0/core/tcp_in.c ****            - inseq overlaps with ooseq */
1218:Libraries/lwip-1.4.0/core/tcp_in.c ****         if (pcb->ooseq != NULL) {
 3612              		.loc 1 1218 0
 3613 0788 7B68     		ldr	r3, [r7, #4]
 3614 078a DB6F     		ldr	r3, [r3, #124]
 3615 078c 002B     		cmp	r3, #0
 3616 078e 00F0C980 		beq	.L202
1219:Libraries/lwip-1.4.0/core/tcp_in.c ****           if (TCPH_FLAGS(inseg.tcphdr) & TCP_FIN) {
 3617              		.loc 1 1219 0
 3618 0792 104B     		ldr	r3, .L256
 3619 0794 DB68     		ldr	r3, [r3, #12]
 3620 0796 9B89     		ldrh	r3, [r3, #12]	@ unaligned
 3621 0798 9BB2     		uxth	r3, r3
 3622 079a 1846     		mov	r0, r3
 3623 079c FFF7FEFF 		bl	lwip_ntohs
 3624 07a0 0346     		mov	r3, r0
 3625 07a2 03F00103 		and	r3, r3, #1
 3626 07a6 002B     		cmp	r3, #0
 3627 07a8 10D0     		beq	.L203
1220:Libraries/lwip-1.4.0/core/tcp_in.c ****             LWIP_DEBUGF(TCP_INPUT_DEBUG, 
1221:Libraries/lwip-1.4.0/core/tcp_in.c ****                         ("tcp_receive: received in-order FIN, binning ooseq queue\n"));
1222:Libraries/lwip-1.4.0/core/tcp_in.c ****             /* Received in-order FIN means anything that was received
1223:Libraries/lwip-1.4.0/core/tcp_in.c ****              * out of order must now have been received in-order, so
1224:Libraries/lwip-1.4.0/core/tcp_in.c ****              * bin the ooseq queue */
1225:Libraries/lwip-1.4.0/core/tcp_in.c ****             while (pcb->ooseq != NULL) {
 3628              		.loc 1 1225 0
 3629 07aa 0AE0     		b	.L204
 3630              	.L205:
 3631              	.LBB4:
1226:Libraries/lwip-1.4.0/core/tcp_in.c ****               struct tcp_seg *old_ooseq = pcb->ooseq;
 3632              		.loc 1 1226 0
 3633 07ac 7B68     		ldr	r3, [r7, #4]
 3634 07ae DB6F     		ldr	r3, [r3, #124]
 3635 07b0 FB60     		str	r3, [r7, #12]
1227:Libraries/lwip-1.4.0/core/tcp_in.c ****               pcb->ooseq = pcb->ooseq->next;
 3636              		.loc 1 1227 0
 3637 07b2 7B68     		ldr	r3, [r7, #4]
 3638 07b4 DB6F     		ldr	r3, [r3, #124]
 3639 07b6 1A68     		ldr	r2, [r3]
 3640 07b8 7B68     		ldr	r3, [r7, #4]
 3641 07ba DA67     		str	r2, [r3, #124]
1228:Libraries/lwip-1.4.0/core/tcp_in.c ****               tcp_seg_free(old_ooseq);
 3642              		.loc 1 1228 0
 3643 07bc F868     		ldr	r0, [r7, #12]
 3644 07be FFF7FEFF 		bl	tcp_seg_free
 3645              	.L204:
 3646              	.LBE4:
1225:Libraries/lwip-1.4.0/core/tcp_in.c ****               struct tcp_seg *old_ooseq = pcb->ooseq;
 3647              		.loc 1 1225 0
 3648 07c2 7B68     		ldr	r3, [r7, #4]
 3649 07c4 DB6F     		ldr	r3, [r3, #124]
 3650 07c6 002B     		cmp	r3, #0
 3651 07c8 F0D1     		bne	.L205
 3652 07ca ABE0     		b	.L202
 3653              	.L203:
1229:Libraries/lwip-1.4.0/core/tcp_in.c ****             }
1230:Libraries/lwip-1.4.0/core/tcp_in.c ****           }
1231:Libraries/lwip-1.4.0/core/tcp_in.c ****           else {
1232:Libraries/lwip-1.4.0/core/tcp_in.c ****             next = pcb->ooseq;
 3654              		.loc 1 1232 0
 3655 07cc 7B68     		ldr	r3, [r7, #4]
 3656 07ce DB6F     		ldr	r3, [r3, #124]
 3657 07d0 FB62     		str	r3, [r7, #44]
1233:Libraries/lwip-1.4.0/core/tcp_in.c ****             /* Remove all segments on ooseq that are covered by inseg already.
1234:Libraries/lwip-1.4.0/core/tcp_in.c ****              * FIN is copied from ooseq to inseg if present. */
1235:Libraries/lwip-1.4.0/core/tcp_in.c ****             while (next &&
 3658              		.loc 1 1235 0
 3659 07d2 48E0     		b	.L206
 3660              	.L257:
 3661              		.align	2
 3662              	.L256:
 3663 07d4 00000000 		.word	inseg
 3664 07d8 00000000 		.word	seqno
 3665 07dc 00000000 		.word	tcplen
 3666              	.L209:
1236:Libraries/lwip-1.4.0/core/tcp_in.c ****                    TCP_SEQ_GEQ(seqno + tcplen,
1237:Libraries/lwip-1.4.0/core/tcp_in.c ****                                next->tcphdr->seqno + next->len)) {
1238:Libraries/lwip-1.4.0/core/tcp_in.c ****               /* inseg cannot have FIN here (already processed above) */
1239:Libraries/lwip-1.4.0/core/tcp_in.c ****               if (TCPH_FLAGS(next->tcphdr) & TCP_FIN &&
 3667              		.loc 1 1239 0
 3668 07e0 FB6A     		ldr	r3, [r7, #44]
 3669 07e2 DB68     		ldr	r3, [r3, #12]
 3670 07e4 9B89     		ldrh	r3, [r3, #12]	@ unaligned
 3671 07e6 9BB2     		uxth	r3, r3
 3672 07e8 1846     		mov	r0, r3
 3673 07ea FFF7FEFF 		bl	lwip_ntohs
 3674 07ee 0346     		mov	r3, r0
 3675 07f0 03F00103 		and	r3, r3, #1
 3676 07f4 002B     		cmp	r3, #0
 3677 07f6 2ED0     		beq	.L207
1240:Libraries/lwip-1.4.0/core/tcp_in.c ****                   (TCPH_FLAGS(inseg.tcphdr) & TCP_SYN) == 0) {
 3678              		.loc 1 1240 0 discriminator 1
 3679 07f8 924B     		ldr	r3, .L258
 3680 07fa DB68     		ldr	r3, [r3, #12]
 3681 07fc 9B89     		ldrh	r3, [r3, #12]	@ unaligned
 3682 07fe 9BB2     		uxth	r3, r3
 3683 0800 1846     		mov	r0, r3
 3684 0802 FFF7FEFF 		bl	lwip_ntohs
 3685 0806 0346     		mov	r3, r0
 3686 0808 03F00203 		and	r3, r3, #2
1239:Libraries/lwip-1.4.0/core/tcp_in.c ****                   (TCPH_FLAGS(inseg.tcphdr) & TCP_SYN) == 0) {
 3687              		.loc 1 1239 0 discriminator 1
 3688 080c 002B     		cmp	r3, #0
 3689 080e 22D1     		bne	.L207
1241:Libraries/lwip-1.4.0/core/tcp_in.c ****                 TCPH_SET_FLAG(inseg.tcphdr, TCP_FIN);
 3690              		.loc 1 1241 0
 3691 0810 8C4B     		ldr	r3, .L258
 3692 0812 DC68     		ldr	r4, [r3, #12]
 3693 0814 8B4B     		ldr	r3, .L258
 3694 0816 DB68     		ldr	r3, [r3, #12]
 3695 0818 9B89     		ldrh	r3, [r3, #12]	@ unaligned
 3696 081a 9DB2     		uxth	r5, r3
 3697 081c 0120     		movs	r0, #1
 3698 081e FFF7FEFF 		bl	lwip_htons
 3699 0822 0346     		mov	r3, r0
 3700 0824 2B43     		orrs	r3, r3, r5
 3701 0826 9BB2     		uxth	r3, r3
 3702 0828 A381     		strh	r3, [r4, #12]	@ unaligned
1242:Libraries/lwip-1.4.0/core/tcp_in.c ****                 tcplen = TCP_TCPLEN(&inseg);
 3703              		.loc 1 1242 0
 3704 082a 864B     		ldr	r3, .L258
 3705 082c 1C89     		ldrh	r4, [r3, #8]
 3706 082e 854B     		ldr	r3, .L258
 3707 0830 DB68     		ldr	r3, [r3, #12]
 3708 0832 9B89     		ldrh	r3, [r3, #12]	@ unaligned
 3709 0834 9BB2     		uxth	r3, r3
 3710 0836 1846     		mov	r0, r3
 3711 0838 FFF7FEFF 		bl	lwip_ntohs
 3712 083c 0346     		mov	r3, r0
 3713 083e 03F00303 		and	r3, r3, #3
 3714 0842 002B     		cmp	r3, #0
 3715 0844 14BF     		ite	ne
 3716 0846 0123     		movne	r3, #1
 3717 0848 0023     		moveq	r3, #0
 3718 084a DBB2     		uxtb	r3, r3
 3719 084c 9BB2     		uxth	r3, r3
 3720 084e 2344     		add	r3, r3, r4
 3721 0850 9AB2     		uxth	r2, r3
 3722 0852 7D4B     		ldr	r3, .L258+4
 3723 0854 1A80     		strh	r2, [r3]	@ movhi
 3724              	.L207:
1243:Libraries/lwip-1.4.0/core/tcp_in.c ****               }
1244:Libraries/lwip-1.4.0/core/tcp_in.c ****               prev = next;
 3725              		.loc 1 1244 0
 3726 0856 FB6A     		ldr	r3, [r7, #44]
 3727 0858 BB62     		str	r3, [r7, #40]
1245:Libraries/lwip-1.4.0/core/tcp_in.c ****               next = next->next;
 3728              		.loc 1 1245 0
 3729 085a FB6A     		ldr	r3, [r7, #44]
 3730 085c 1B68     		ldr	r3, [r3]
 3731 085e FB62     		str	r3, [r7, #44]
1246:Libraries/lwip-1.4.0/core/tcp_in.c ****               tcp_seg_free(prev);
 3732              		.loc 1 1246 0
 3733 0860 B86A     		ldr	r0, [r7, #40]
 3734 0862 FFF7FEFF 		bl	tcp_seg_free
 3735              	.L206:
1235:Libraries/lwip-1.4.0/core/tcp_in.c ****                    TCP_SEQ_GEQ(seqno + tcplen,
 3736              		.loc 1 1235 0
 3737 0866 FB6A     		ldr	r3, [r7, #44]
 3738 0868 002B     		cmp	r3, #0
 3739 086a 0ED0     		beq	.L208
1236:Libraries/lwip-1.4.0/core/tcp_in.c ****                                next->tcphdr->seqno + next->len)) {
 3740              		.loc 1 1236 0 discriminator 1
 3741 086c 764B     		ldr	r3, .L258+4
 3742 086e 1B88     		ldrh	r3, [r3]
 3743 0870 1A46     		mov	r2, r3
 3744 0872 764B     		ldr	r3, .L258+8
 3745 0874 1B68     		ldr	r3, [r3]
 3746 0876 1A44     		add	r2, r2, r3
 3747 0878 FB6A     		ldr	r3, [r7, #44]
 3748 087a DB68     		ldr	r3, [r3, #12]
 3749 087c 5B68     		ldr	r3, [r3, #4]	@ unaligned
 3750 087e F96A     		ldr	r1, [r7, #44]
 3751 0880 0989     		ldrh	r1, [r1, #8]
 3752 0882 0B44     		add	r3, r3, r1
 3753 0884 D31A     		subs	r3, r2, r3
1235:Libraries/lwip-1.4.0/core/tcp_in.c ****                    TCP_SEQ_GEQ(seqno + tcplen,
 3754              		.loc 1 1235 0 discriminator 1
 3755 0886 002B     		cmp	r3, #0
 3756 0888 AADA     		bge	.L209
 3757              	.L208:
1247:Libraries/lwip-1.4.0/core/tcp_in.c ****             }
1248:Libraries/lwip-1.4.0/core/tcp_in.c ****             /* Now trim right side of inseg if it overlaps with the first
1249:Libraries/lwip-1.4.0/core/tcp_in.c ****              * segment on ooseq */
1250:Libraries/lwip-1.4.0/core/tcp_in.c ****             if (next &&
 3758              		.loc 1 1250 0
 3759 088a FB6A     		ldr	r3, [r7, #44]
 3760 088c 002B     		cmp	r3, #0
 3761 088e 46D0     		beq	.L210
1251:Libraries/lwip-1.4.0/core/tcp_in.c ****                 TCP_SEQ_GT(seqno + tcplen,
 3762              		.loc 1 1251 0 discriminator 1
 3763 0890 6D4B     		ldr	r3, .L258+4
 3764 0892 1B88     		ldrh	r3, [r3]
 3765 0894 1A46     		mov	r2, r3
 3766 0896 6D4B     		ldr	r3, .L258+8
 3767 0898 1B68     		ldr	r3, [r3]
 3768 089a 1A44     		add	r2, r2, r3
 3769 089c FB6A     		ldr	r3, [r7, #44]
 3770 089e DB68     		ldr	r3, [r3, #12]
 3771 08a0 5B68     		ldr	r3, [r3, #4]	@ unaligned
 3772 08a2 D31A     		subs	r3, r2, r3
1250:Libraries/lwip-1.4.0/core/tcp_in.c ****                 TCP_SEQ_GT(seqno + tcplen,
 3773              		.loc 1 1250 0 discriminator 1
 3774 08a4 002B     		cmp	r3, #0
 3775 08a6 3ADD     		ble	.L210
1252:Libraries/lwip-1.4.0/core/tcp_in.c ****                            next->tcphdr->seqno)) {
1253:Libraries/lwip-1.4.0/core/tcp_in.c ****               /* inseg cannot have FIN here (already processed above) */
1254:Libraries/lwip-1.4.0/core/tcp_in.c ****               inseg.len = (u16_t)(next->tcphdr->seqno - seqno);
 3776              		.loc 1 1254 0
 3777 08a8 FB6A     		ldr	r3, [r7, #44]
 3778 08aa DB68     		ldr	r3, [r3, #12]
 3779 08ac 5B68     		ldr	r3, [r3, #4]	@ unaligned
 3780 08ae 9AB2     		uxth	r2, r3
 3781 08b0 664B     		ldr	r3, .L258+8
 3782 08b2 1B68     		ldr	r3, [r3]
 3783 08b4 9BB2     		uxth	r3, r3
 3784 08b6 D31A     		subs	r3, r2, r3
 3785 08b8 9AB2     		uxth	r2, r3
 3786 08ba 624B     		ldr	r3, .L258
 3787 08bc 1A81     		strh	r2, [r3, #8]	@ movhi
1255:Libraries/lwip-1.4.0/core/tcp_in.c ****               if (TCPH_FLAGS(inseg.tcphdr) & TCP_SYN) {
 3788              		.loc 1 1255 0
 3789 08be 614B     		ldr	r3, .L258
 3790 08c0 DB68     		ldr	r3, [r3, #12]
 3791 08c2 9B89     		ldrh	r3, [r3, #12]	@ unaligned
 3792 08c4 9BB2     		uxth	r3, r3
 3793 08c6 1846     		mov	r0, r3
 3794 08c8 FFF7FEFF 		bl	lwip_ntohs
 3795 08cc 0346     		mov	r3, r0
 3796 08ce 03F00203 		and	r3, r3, #2
 3797 08d2 002B     		cmp	r3, #0
 3798 08d4 05D0     		beq	.L211
1256:Libraries/lwip-1.4.0/core/tcp_in.c ****                 inseg.len -= 1;
 3799              		.loc 1 1256 0
 3800 08d6 5B4B     		ldr	r3, .L258
 3801 08d8 1B89     		ldrh	r3, [r3, #8]
 3802 08da 013B     		subs	r3, r3, #1
 3803 08dc 9AB2     		uxth	r2, r3
 3804 08de 594B     		ldr	r3, .L258
 3805 08e0 1A81     		strh	r2, [r3, #8]	@ movhi
 3806              	.L211:
1257:Libraries/lwip-1.4.0/core/tcp_in.c ****               }
1258:Libraries/lwip-1.4.0/core/tcp_in.c ****               pbuf_realloc(inseg.p, inseg.len);
 3807              		.loc 1 1258 0
 3808 08e2 584B     		ldr	r3, .L258
 3809 08e4 5A68     		ldr	r2, [r3, #4]
 3810 08e6 574B     		ldr	r3, .L258
 3811 08e8 1B89     		ldrh	r3, [r3, #8]
 3812 08ea 1946     		mov	r1, r3
 3813 08ec 1046     		mov	r0, r2
 3814 08ee FFF7FEFF 		bl	pbuf_realloc
1259:Libraries/lwip-1.4.0/core/tcp_in.c ****               tcplen = TCP_TCPLEN(&inseg);
 3815              		.loc 1 1259 0
 3816 08f2 544B     		ldr	r3, .L258
 3817 08f4 1C89     		ldrh	r4, [r3, #8]
 3818 08f6 534B     		ldr	r3, .L258
 3819 08f8 DB68     		ldr	r3, [r3, #12]
 3820 08fa 9B89     		ldrh	r3, [r3, #12]	@ unaligned
 3821 08fc 9BB2     		uxth	r3, r3
 3822 08fe 1846     		mov	r0, r3
 3823 0900 FFF7FEFF 		bl	lwip_ntohs
 3824 0904 0346     		mov	r3, r0
 3825 0906 03F00303 		and	r3, r3, #3
 3826 090a 002B     		cmp	r3, #0
 3827 090c 14BF     		ite	ne
 3828 090e 0123     		movne	r3, #1
 3829 0910 0023     		moveq	r3, #0
 3830 0912 DBB2     		uxtb	r3, r3
 3831 0914 9BB2     		uxth	r3, r3
 3832 0916 2344     		add	r3, r3, r4
 3833 0918 9AB2     		uxth	r2, r3
 3834 091a 4B4B     		ldr	r3, .L258+4
 3835 091c 1A80     		strh	r2, [r3]	@ movhi
 3836              	.L210:
1260:Libraries/lwip-1.4.0/core/tcp_in.c ****               LWIP_ASSERT("tcp_receive: segment not trimmed correctly to ooseq queue\n",
1261:Libraries/lwip-1.4.0/core/tcp_in.c ****                           (seqno + tcplen) == next->tcphdr->seqno);
1262:Libraries/lwip-1.4.0/core/tcp_in.c ****             }
1263:Libraries/lwip-1.4.0/core/tcp_in.c ****             pcb->ooseq = next;
 3837              		.loc 1 1263 0
 3838 091e 7B68     		ldr	r3, [r7, #4]
 3839 0920 FA6A     		ldr	r2, [r7, #44]
 3840 0922 DA67     		str	r2, [r3, #124]
 3841              	.L202:
1264:Libraries/lwip-1.4.0/core/tcp_in.c ****           }
1265:Libraries/lwip-1.4.0/core/tcp_in.c ****         }
1266:Libraries/lwip-1.4.0/core/tcp_in.c **** #endif /* TCP_QUEUE_OOSEQ */
1267:Libraries/lwip-1.4.0/core/tcp_in.c **** 
1268:Libraries/lwip-1.4.0/core/tcp_in.c ****         pcb->rcv_nxt = seqno + tcplen;
 3842              		.loc 1 1268 0
 3843 0924 484B     		ldr	r3, .L258+4
 3844 0926 1B88     		ldrh	r3, [r3]
 3845 0928 1A46     		mov	r2, r3
 3846 092a 484B     		ldr	r3, .L258+8
 3847 092c 1B68     		ldr	r3, [r3]
 3848 092e 1A44     		add	r2, r2, r3
 3849 0930 7B68     		ldr	r3, [r7, #4]
 3850 0932 5A62     		str	r2, [r3, #36]
1269:Libraries/lwip-1.4.0/core/tcp_in.c **** 
1270:Libraries/lwip-1.4.0/core/tcp_in.c ****         /* Update the receiver's (our) window. */
1271:Libraries/lwip-1.4.0/core/tcp_in.c ****         LWIP_ASSERT("tcp_receive: tcplen > rcv_wnd\n", pcb->rcv_wnd >= tcplen);
1272:Libraries/lwip-1.4.0/core/tcp_in.c ****         pcb->rcv_wnd -= tcplen;
 3851              		.loc 1 1272 0
 3852 0934 7B68     		ldr	r3, [r7, #4]
 3853 0936 1A8D     		ldrh	r2, [r3, #40]
 3854 0938 434B     		ldr	r3, .L258+4
 3855 093a 1B88     		ldrh	r3, [r3]
 3856 093c D31A     		subs	r3, r2, r3
 3857 093e 9AB2     		uxth	r2, r3
 3858 0940 7B68     		ldr	r3, [r7, #4]
 3859 0942 1A85     		strh	r2, [r3, #40]	@ movhi
1273:Libraries/lwip-1.4.0/core/tcp_in.c **** 
1274:Libraries/lwip-1.4.0/core/tcp_in.c ****         tcp_update_rcv_ann_wnd(pcb);
 3860              		.loc 1 1274 0
 3861 0944 7868     		ldr	r0, [r7, #4]
 3862 0946 FFF7FEFF 		bl	tcp_update_rcv_ann_wnd
1275:Libraries/lwip-1.4.0/core/tcp_in.c **** 
1276:Libraries/lwip-1.4.0/core/tcp_in.c ****         /* If there is data in the segment, we make preparations to
1277:Libraries/lwip-1.4.0/core/tcp_in.c ****            pass this up to the application. The ->recv_data variable
1278:Libraries/lwip-1.4.0/core/tcp_in.c ****            is used for holding the pbuf that goes to the
1279:Libraries/lwip-1.4.0/core/tcp_in.c ****            application. The code for reassembling out-of-sequence data
1280:Libraries/lwip-1.4.0/core/tcp_in.c ****            chains its data on this pbuf as well.
1281:Libraries/lwip-1.4.0/core/tcp_in.c **** 
1282:Libraries/lwip-1.4.0/core/tcp_in.c ****            If the segment was a FIN, we set the TF_GOT_FIN flag that will
1283:Libraries/lwip-1.4.0/core/tcp_in.c ****            be used to indicate to the application that the remote side has
1284:Libraries/lwip-1.4.0/core/tcp_in.c ****            closed its end of the connection. */
1285:Libraries/lwip-1.4.0/core/tcp_in.c ****         if (inseg.p->tot_len > 0) {
 3863              		.loc 1 1285 0
 3864 094a 3E4B     		ldr	r3, .L258
 3865 094c 5B68     		ldr	r3, [r3, #4]
 3866 094e 1B89     		ldrh	r3, [r3, #8]
 3867 0950 002B     		cmp	r3, #0
 3868 0952 06D0     		beq	.L212
1286:Libraries/lwip-1.4.0/core/tcp_in.c ****           recv_data = inseg.p;
 3869              		.loc 1 1286 0
 3870 0954 3B4B     		ldr	r3, .L258
 3871 0956 5B68     		ldr	r3, [r3, #4]
 3872 0958 3D4A     		ldr	r2, .L258+12
 3873 095a 1360     		str	r3, [r2]
1287:Libraries/lwip-1.4.0/core/tcp_in.c ****           /* Since this pbuf now is the responsibility of the
1288:Libraries/lwip-1.4.0/core/tcp_in.c ****              application, we delete our reference to it so that we won't
1289:Libraries/lwip-1.4.0/core/tcp_in.c ****              (mistakingly) deallocate it. */
1290:Libraries/lwip-1.4.0/core/tcp_in.c ****           inseg.p = NULL;
 3874              		.loc 1 1290 0
 3875 095c 394B     		ldr	r3, .L258
 3876 095e 0022     		movs	r2, #0
 3877 0960 5A60     		str	r2, [r3, #4]
 3878              	.L212:
1291:Libraries/lwip-1.4.0/core/tcp_in.c ****         }
1292:Libraries/lwip-1.4.0/core/tcp_in.c ****         if (TCPH_FLAGS(inseg.tcphdr) & TCP_FIN) {
 3879              		.loc 1 1292 0
 3880 0962 384B     		ldr	r3, .L258
 3881 0964 DB68     		ldr	r3, [r3, #12]
 3882 0966 9B89     		ldrh	r3, [r3, #12]	@ unaligned
 3883 0968 9BB2     		uxth	r3, r3
 3884 096a 1846     		mov	r0, r3
 3885 096c FFF7FEFF 		bl	lwip_ntohs
 3886 0970 0346     		mov	r3, r0
 3887 0972 03F00103 		and	r3, r3, #1
 3888 0976 002B     		cmp	r3, #0
 3889 0978 00F09680 		beq	.L214
1293:Libraries/lwip-1.4.0/core/tcp_in.c ****           LWIP_DEBUGF(TCP_INPUT_DEBUG, ("tcp_receive: received FIN.\n"));
1294:Libraries/lwip-1.4.0/core/tcp_in.c ****           recv_flags |= TF_GOT_FIN;
 3890              		.loc 1 1294 0
 3891 097c 354B     		ldr	r3, .L258+16
 3892 097e 1B78     		ldrb	r3, [r3]	@ zero_extendqisi2
 3893 0980 43F02003 		orr	r3, r3, #32
 3894 0984 DAB2     		uxtb	r2, r3
 3895 0986 334B     		ldr	r3, .L258+16
 3896 0988 1A70     		strb	r2, [r3]
1295:Libraries/lwip-1.4.0/core/tcp_in.c ****         }
1296:Libraries/lwip-1.4.0/core/tcp_in.c **** 
1297:Libraries/lwip-1.4.0/core/tcp_in.c **** #if TCP_QUEUE_OOSEQ
1298:Libraries/lwip-1.4.0/core/tcp_in.c ****         /* We now check if we have segments on the ->ooseq queue that
1299:Libraries/lwip-1.4.0/core/tcp_in.c ****            are now in sequence. */
1300:Libraries/lwip-1.4.0/core/tcp_in.c ****         while (pcb->ooseq != NULL &&
 3897              		.loc 1 1300 0
 3898 098a 8DE0     		b	.L214
 3899              	.L220:
1301:Libraries/lwip-1.4.0/core/tcp_in.c ****                pcb->ooseq->tcphdr->seqno == pcb->rcv_nxt) {
1302:Libraries/lwip-1.4.0/core/tcp_in.c **** 
1303:Libraries/lwip-1.4.0/core/tcp_in.c ****           cseg = pcb->ooseq;
 3900              		.loc 1 1303 0
 3901 098c 7B68     		ldr	r3, [r7, #4]
 3902 098e DB6F     		ldr	r3, [r3, #124]
 3903 0990 BB60     		str	r3, [r7, #8]
1304:Libraries/lwip-1.4.0/core/tcp_in.c ****           seqno = pcb->ooseq->tcphdr->seqno;
 3904              		.loc 1 1304 0
 3905 0992 7B68     		ldr	r3, [r7, #4]
 3906 0994 DB6F     		ldr	r3, [r3, #124]
 3907 0996 DB68     		ldr	r3, [r3, #12]
 3908 0998 5B68     		ldr	r3, [r3, #4]	@ unaligned
 3909 099a 2C4A     		ldr	r2, .L258+8
 3910 099c 1360     		str	r3, [r2]
1305:Libraries/lwip-1.4.0/core/tcp_in.c **** 
1306:Libraries/lwip-1.4.0/core/tcp_in.c ****           pcb->rcv_nxt += TCP_TCPLEN(cseg);
 3911              		.loc 1 1306 0
 3912 099e BB68     		ldr	r3, [r7, #8]
 3913 09a0 1B89     		ldrh	r3, [r3, #8]
 3914 09a2 1C46     		mov	r4, r3
 3915 09a4 BB68     		ldr	r3, [r7, #8]
 3916 09a6 DB68     		ldr	r3, [r3, #12]
 3917 09a8 9B89     		ldrh	r3, [r3, #12]	@ unaligned
 3918 09aa 9BB2     		uxth	r3, r3
 3919 09ac 1846     		mov	r0, r3
 3920 09ae FFF7FEFF 		bl	lwip_ntohs
 3921 09b2 0346     		mov	r3, r0
 3922 09b4 03F00303 		and	r3, r3, #3
 3923 09b8 002B     		cmp	r3, #0
 3924 09ba 14BF     		ite	ne
 3925 09bc 0123     		movne	r3, #1
 3926 09be 0023     		moveq	r3, #0
 3927 09c0 DBB2     		uxtb	r3, r3
 3928 09c2 E218     		adds	r2, r4, r3
 3929 09c4 7B68     		ldr	r3, [r7, #4]
 3930 09c6 5B6A     		ldr	r3, [r3, #36]
 3931 09c8 1A44     		add	r2, r2, r3
 3932 09ca 7B68     		ldr	r3, [r7, #4]
 3933 09cc 5A62     		str	r2, [r3, #36]
1307:Libraries/lwip-1.4.0/core/tcp_in.c ****           LWIP_ASSERT("tcp_receive: ooseq tcplen > rcv_wnd\n",
 3934              		.loc 1 1307 0
 3935 09ce BB68     		ldr	r3, [r7, #8]
 3936 09d0 DB68     		ldr	r3, [r3, #12]
 3937 09d2 9B89     		ldrh	r3, [r3, #12]	@ unaligned
 3938 09d4 9BB2     		uxth	r3, r3
 3939 09d6 1846     		mov	r0, r3
 3940 09d8 FFF7FEFF 		bl	lwip_ntohs
 3941 09dc 0346     		mov	r3, r0
 3942 09de 03F00303 		and	r3, r3, #3
 3943 09e2 002B     		cmp	r3, #0
1308:Libraries/lwip-1.4.0/core/tcp_in.c ****                       pcb->rcv_wnd >= TCP_TCPLEN(cseg));
1309:Libraries/lwip-1.4.0/core/tcp_in.c ****           pcb->rcv_wnd -= TCP_TCPLEN(cseg);
 3944              		.loc 1 1309 0
 3945 09e4 BB68     		ldr	r3, [r7, #8]
 3946 09e6 1B89     		ldrh	r3, [r3, #8]
 3947 09e8 1C46     		mov	r4, r3
 3948 09ea BB68     		ldr	r3, [r7, #8]
 3949 09ec DB68     		ldr	r3, [r3, #12]
 3950 09ee 9B89     		ldrh	r3, [r3, #12]	@ unaligned
 3951 09f0 9BB2     		uxth	r3, r3
 3952 09f2 1846     		mov	r0, r3
 3953 09f4 FFF7FEFF 		bl	lwip_ntohs
 3954 09f8 0346     		mov	r3, r0
 3955 09fa 03F00303 		and	r3, r3, #3
 3956 09fe 002B     		cmp	r3, #0
 3957 0a00 14BF     		ite	ne
 3958 0a02 0123     		movne	r3, #1
 3959 0a04 0023     		moveq	r3, #0
 3960 0a06 DBB2     		uxtb	r3, r3
 3961 0a08 E118     		adds	r1, r4, r3
 3962 0a0a 7B68     		ldr	r3, [r7, #4]
 3963 0a0c 1A8D     		ldrh	r2, [r3, #40]
 3964 0a0e 8BB2     		uxth	r3, r1
 3965 0a10 D31A     		subs	r3, r2, r3
 3966 0a12 9AB2     		uxth	r2, r3
 3967 0a14 7B68     		ldr	r3, [r7, #4]
 3968 0a16 1A85     		strh	r2, [r3, #40]	@ movhi
1310:Libraries/lwip-1.4.0/core/tcp_in.c **** 
1311:Libraries/lwip-1.4.0/core/tcp_in.c ****           tcp_update_rcv_ann_wnd(pcb);
 3969              		.loc 1 1311 0
 3970 0a18 7868     		ldr	r0, [r7, #4]
 3971 0a1a FFF7FEFF 		bl	tcp_update_rcv_ann_wnd
1312:Libraries/lwip-1.4.0/core/tcp_in.c **** 
1313:Libraries/lwip-1.4.0/core/tcp_in.c ****           if (cseg->p->tot_len > 0) {
 3972              		.loc 1 1313 0
 3973 0a1e BB68     		ldr	r3, [r7, #8]
 3974 0a20 5B68     		ldr	r3, [r3, #4]
 3975 0a22 1B89     		ldrh	r3, [r3, #8]
 3976 0a24 002B     		cmp	r3, #0
 3977 0a26 1ED0     		beq	.L215
1314:Libraries/lwip-1.4.0/core/tcp_in.c ****             /* Chain this pbuf onto the pbuf that we will pass to
1315:Libraries/lwip-1.4.0/core/tcp_in.c ****                the application. */
1316:Libraries/lwip-1.4.0/core/tcp_in.c ****             if (recv_data) {
 3978              		.loc 1 1316 0
 3979 0a28 094B     		ldr	r3, .L258+12
 3980 0a2a 1B68     		ldr	r3, [r3]
 3981 0a2c 002B     		cmp	r3, #0
 3982 0a2e 13D0     		beq	.L216
1317:Libraries/lwip-1.4.0/core/tcp_in.c ****               pbuf_cat(recv_data, cseg->p);
 3983              		.loc 1 1317 0
 3984 0a30 074B     		ldr	r3, .L258+12
 3985 0a32 1A68     		ldr	r2, [r3]
 3986 0a34 BB68     		ldr	r3, [r7, #8]
 3987 0a36 5B68     		ldr	r3, [r3, #4]
 3988 0a38 1946     		mov	r1, r3
 3989 0a3a 1046     		mov	r0, r2
 3990 0a3c FFF7FEFF 		bl	pbuf_cat
 3991 0a40 0EE0     		b	.L217
 3992              	.L259:
 3993 0a42 00BF     		.align	2
 3994              	.L258:
 3995 0a44 00000000 		.word	inseg
 3996 0a48 00000000 		.word	tcplen
 3997 0a4c 00000000 		.word	seqno
 3998 0a50 00000000 		.word	recv_data
 3999 0a54 00000000 		.word	recv_flags
 4000              	.L216:
1318:Libraries/lwip-1.4.0/core/tcp_in.c ****             } else {
1319:Libraries/lwip-1.4.0/core/tcp_in.c ****               recv_data = cseg->p;
 4001              		.loc 1 1319 0
 4002 0a58 BB68     		ldr	r3, [r7, #8]
 4003 0a5a 5B68     		ldr	r3, [r3, #4]
 4004 0a5c 754A     		ldr	r2, .L260
 4005 0a5e 1360     		str	r3, [r2]
 4006              	.L217:
1320:Libraries/lwip-1.4.0/core/tcp_in.c ****             }
1321:Libraries/lwip-1.4.0/core/tcp_in.c ****             cseg->p = NULL;
 4007              		.loc 1 1321 0
 4008 0a60 BB68     		ldr	r3, [r7, #8]
 4009 0a62 0022     		movs	r2, #0
 4010 0a64 5A60     		str	r2, [r3, #4]
 4011              	.L215:
1322:Libraries/lwip-1.4.0/core/tcp_in.c ****           }
1323:Libraries/lwip-1.4.0/core/tcp_in.c ****           if (TCPH_FLAGS(cseg->tcphdr) & TCP_FIN) {
 4012              		.loc 1 1323 0
 4013 0a66 BB68     		ldr	r3, [r7, #8]
 4014 0a68 DB68     		ldr	r3, [r3, #12]
 4015 0a6a 9B89     		ldrh	r3, [r3, #12]	@ unaligned
 4016 0a6c 9BB2     		uxth	r3, r3
 4017 0a6e 1846     		mov	r0, r3
 4018 0a70 FFF7FEFF 		bl	lwip_ntohs
 4019 0a74 0346     		mov	r3, r0
 4020 0a76 03F00103 		and	r3, r3, #1
 4021 0a7a 002B     		cmp	r3, #0
 4022 0a7c 0DD0     		beq	.L218
1324:Libraries/lwip-1.4.0/core/tcp_in.c ****             LWIP_DEBUGF(TCP_INPUT_DEBUG, ("tcp_receive: dequeued FIN.\n"));
1325:Libraries/lwip-1.4.0/core/tcp_in.c ****             recv_flags |= TF_GOT_FIN;
 4023              		.loc 1 1325 0
 4024 0a7e 6E4B     		ldr	r3, .L260+4
 4025 0a80 1B78     		ldrb	r3, [r3]	@ zero_extendqisi2
 4026 0a82 43F02003 		orr	r3, r3, #32
 4027 0a86 DAB2     		uxtb	r2, r3
 4028 0a88 6B4B     		ldr	r3, .L260+4
 4029 0a8a 1A70     		strb	r2, [r3]
1326:Libraries/lwip-1.4.0/core/tcp_in.c ****             if (pcb->state == ESTABLISHED) { /* force passive close or we can move to active close 
 4030              		.loc 1 1326 0
 4031 0a8c 7B68     		ldr	r3, [r7, #4]
 4032 0a8e 1B7C     		ldrb	r3, [r3, #16]	@ zero_extendqisi2
 4033 0a90 042B     		cmp	r3, #4
 4034 0a92 02D1     		bne	.L218
1327:Libraries/lwip-1.4.0/core/tcp_in.c ****               pcb->state = CLOSE_WAIT;
 4035              		.loc 1 1327 0
 4036 0a94 7B68     		ldr	r3, [r7, #4]
 4037 0a96 0722     		movs	r2, #7
 4038 0a98 1A74     		strb	r2, [r3, #16]
 4039              	.L218:
1328:Libraries/lwip-1.4.0/core/tcp_in.c ****             } 
1329:Libraries/lwip-1.4.0/core/tcp_in.c ****           }
1330:Libraries/lwip-1.4.0/core/tcp_in.c **** 
1331:Libraries/lwip-1.4.0/core/tcp_in.c ****           pcb->ooseq = cseg->next;
 4040              		.loc 1 1331 0
 4041 0a9a BB68     		ldr	r3, [r7, #8]
 4042 0a9c 1A68     		ldr	r2, [r3]
 4043 0a9e 7B68     		ldr	r3, [r7, #4]
 4044 0aa0 DA67     		str	r2, [r3, #124]
1332:Libraries/lwip-1.4.0/core/tcp_in.c ****           tcp_seg_free(cseg);
 4045              		.loc 1 1332 0
 4046 0aa2 B868     		ldr	r0, [r7, #8]
 4047 0aa4 FFF7FEFF 		bl	tcp_seg_free
 4048              	.L214:
1300:Libraries/lwip-1.4.0/core/tcp_in.c ****                pcb->ooseq->tcphdr->seqno == pcb->rcv_nxt) {
 4049              		.loc 1 1300 0
 4050 0aa8 7B68     		ldr	r3, [r7, #4]
 4051 0aaa DB6F     		ldr	r3, [r3, #124]
 4052 0aac 002B     		cmp	r3, #0
 4053 0aae 08D0     		beq	.L219
1301:Libraries/lwip-1.4.0/core/tcp_in.c **** 
 4054              		.loc 1 1301 0 discriminator 1
 4055 0ab0 7B68     		ldr	r3, [r7, #4]
 4056 0ab2 DB6F     		ldr	r3, [r3, #124]
 4057 0ab4 DB68     		ldr	r3, [r3, #12]
 4058 0ab6 5A68     		ldr	r2, [r3, #4]	@ unaligned
 4059 0ab8 7B68     		ldr	r3, [r7, #4]
 4060 0aba 5B6A     		ldr	r3, [r3, #36]
1300:Libraries/lwip-1.4.0/core/tcp_in.c ****                pcb->ooseq->tcphdr->seqno == pcb->rcv_nxt) {
 4061              		.loc 1 1300 0 discriminator 1
 4062 0abc 9A42     		cmp	r2, r3
 4063 0abe 3FF465AF 		beq	.L220
 4064              	.L219:
1333:Libraries/lwip-1.4.0/core/tcp_in.c ****         }
1334:Libraries/lwip-1.4.0/core/tcp_in.c **** #endif /* TCP_QUEUE_OOSEQ */
1335:Libraries/lwip-1.4.0/core/tcp_in.c **** 
1336:Libraries/lwip-1.4.0/core/tcp_in.c **** 
1337:Libraries/lwip-1.4.0/core/tcp_in.c ****         /* Acknowledge the segment(s). */
1338:Libraries/lwip-1.4.0/core/tcp_in.c ****         tcp_ack(pcb);
 4065              		.loc 1 1338 0
 4066 0ac2 7B68     		ldr	r3, [r7, #4]
 4067 0ac4 93F82030 		ldrb	r3, [r3, #32]	@ zero_extendqisi2
 4068 0ac8 03F00103 		and	r3, r3, #1
 4069 0acc 002B     		cmp	r3, #0
 4070 0ace 12D0     		beq	.L221
 4071              		.loc 1 1338 0 is_stmt 0 discriminator 1
 4072 0ad0 7B68     		ldr	r3, [r7, #4]
 4073 0ad2 93F82030 		ldrb	r3, [r3, #32]	@ zero_extendqisi2
 4074 0ad6 23F00103 		bic	r3, r3, #1
 4075 0ada DAB2     		uxtb	r2, r3
 4076 0adc 7B68     		ldr	r3, [r7, #4]
 4077 0ade 83F82020 		strb	r2, [r3, #32]
 4078 0ae2 7B68     		ldr	r3, [r7, #4]
 4079 0ae4 93F82030 		ldrb	r3, [r3, #32]	@ zero_extendqisi2
 4080 0ae8 43F00203 		orr	r3, r3, #2
 4081 0aec DAB2     		uxtb	r2, r3
 4082 0aee 7B68     		ldr	r3, [r7, #4]
 4083 0af0 83F82020 		strb	r2, [r3, #32]
1188:Libraries/lwip-1.4.0/core/tcp_in.c ****         /* The incoming segment is the next in sequence. We check if
 4084              		.loc 1 1188 0 is_stmt 1 discriminator 1
 4085 0af4 8DE1     		b	.L243
 4086              	.L221:
 4087              		.loc 1 1338 0 discriminator 2
 4088 0af6 7B68     		ldr	r3, [r7, #4]
 4089 0af8 93F82030 		ldrb	r3, [r3, #32]	@ zero_extendqisi2
 4090 0afc 43F00103 		orr	r3, r3, #1
 4091 0b00 DAB2     		uxtb	r2, r3
 4092 0b02 7B68     		ldr	r3, [r7, #4]
 4093 0b04 83F82020 		strb	r2, [r3, #32]
1188:Libraries/lwip-1.4.0/core/tcp_in.c ****         /* The incoming segment is the next in sequence. We check if
 4094              		.loc 1 1188 0 discriminator 2
 4095 0b08 83E1     		b	.L243
 4096              	.L198:
1339:Libraries/lwip-1.4.0/core/tcp_in.c **** 
1340:Libraries/lwip-1.4.0/core/tcp_in.c ****       } else {
1341:Libraries/lwip-1.4.0/core/tcp_in.c ****         /* We get here if the incoming segment is out-of-sequence. */
1342:Libraries/lwip-1.4.0/core/tcp_in.c ****         tcp_send_empty_ack(pcb);
 4097              		.loc 1 1342 0
 4098 0b0a 7868     		ldr	r0, [r7, #4]
 4099 0b0c FFF7FEFF 		bl	tcp_send_empty_ack
1343:Libraries/lwip-1.4.0/core/tcp_in.c **** #if TCP_QUEUE_OOSEQ
1344:Libraries/lwip-1.4.0/core/tcp_in.c ****         /* We queue the segment on the ->ooseq queue. */
1345:Libraries/lwip-1.4.0/core/tcp_in.c ****         if (pcb->ooseq == NULL) {
 4100              		.loc 1 1345 0
 4101 0b10 7B68     		ldr	r3, [r7, #4]
 4102 0b12 DB6F     		ldr	r3, [r3, #124]
 4103 0b14 002B     		cmp	r3, #0
 4104 0b16 06D1     		bne	.L224
1346:Libraries/lwip-1.4.0/core/tcp_in.c ****           pcb->ooseq = tcp_seg_copy(&inseg);
 4105              		.loc 1 1346 0
 4106 0b18 4848     		ldr	r0, .L260+8
 4107 0b1a FFF7FEFF 		bl	tcp_seg_copy
 4108 0b1e 0246     		mov	r2, r0
 4109 0b20 7B68     		ldr	r3, [r7, #4]
 4110 0b22 DA67     		str	r2, [r3, #124]
1188:Libraries/lwip-1.4.0/core/tcp_in.c ****         /* The incoming segment is the next in sequence. We check if
 4111              		.loc 1 1188 0
 4112 0b24 75E1     		b	.L243
 4113              	.L224:
1347:Libraries/lwip-1.4.0/core/tcp_in.c ****         } else {
1348:Libraries/lwip-1.4.0/core/tcp_in.c ****           /* If the queue is not empty, we walk through the queue and
1349:Libraries/lwip-1.4.0/core/tcp_in.c ****              try to find a place where the sequence number of the
1350:Libraries/lwip-1.4.0/core/tcp_in.c ****              incoming segment is between the sequence numbers of the
1351:Libraries/lwip-1.4.0/core/tcp_in.c ****              previous and the next segment on the ->ooseq queue. That is
1352:Libraries/lwip-1.4.0/core/tcp_in.c ****              the place where we put the incoming segment. If needed, we
1353:Libraries/lwip-1.4.0/core/tcp_in.c ****              trim the second edges of the previous and the incoming
1354:Libraries/lwip-1.4.0/core/tcp_in.c ****              segment so that it will fit into the sequence.
1355:Libraries/lwip-1.4.0/core/tcp_in.c **** 
1356:Libraries/lwip-1.4.0/core/tcp_in.c ****              If the incoming segment has the same sequence number as a
1357:Libraries/lwip-1.4.0/core/tcp_in.c ****              segment on the ->ooseq queue, we discard the segment that
1358:Libraries/lwip-1.4.0/core/tcp_in.c ****              contains less data. */
1359:Libraries/lwip-1.4.0/core/tcp_in.c **** 
1360:Libraries/lwip-1.4.0/core/tcp_in.c ****           prev = NULL;
 4114              		.loc 1 1360 0
 4115 0b26 0023     		movs	r3, #0
 4116 0b28 BB62     		str	r3, [r7, #40]
1361:Libraries/lwip-1.4.0/core/tcp_in.c ****           for(next = pcb->ooseq; next != NULL; next = next->next) {
 4117              		.loc 1 1361 0
 4118 0b2a 7B68     		ldr	r3, [r7, #4]
 4119 0b2c DB6F     		ldr	r3, [r3, #124]
 4120 0b2e FB62     		str	r3, [r7, #44]
 4121 0b30 3EE1     		b	.L225
 4122              	.L241:
1362:Libraries/lwip-1.4.0/core/tcp_in.c ****             if (seqno == next->tcphdr->seqno) {
 4123              		.loc 1 1362 0
 4124 0b32 FB6A     		ldr	r3, [r7, #44]
 4125 0b34 DB68     		ldr	r3, [r3, #12]
 4126 0b36 5A68     		ldr	r2, [r3, #4]	@ unaligned
 4127 0b38 414B     		ldr	r3, .L260+12
 4128 0b3a 1B68     		ldr	r3, [r3]
 4129 0b3c 9A42     		cmp	r2, r3
 4130 0b3e 1DD1     		bne	.L226
1363:Libraries/lwip-1.4.0/core/tcp_in.c ****               /* The sequence number of the incoming segment is the
1364:Libraries/lwip-1.4.0/core/tcp_in.c ****                  same as the sequence number of the segment on
1365:Libraries/lwip-1.4.0/core/tcp_in.c ****                  ->ooseq. We check the lengths to see which one to
1366:Libraries/lwip-1.4.0/core/tcp_in.c ****                  discard. */
1367:Libraries/lwip-1.4.0/core/tcp_in.c ****               if (inseg.len > next->len) {
 4131              		.loc 1 1367 0
 4132 0b40 3E4B     		ldr	r3, .L260+8
 4133 0b42 1A89     		ldrh	r2, [r3, #8]
 4134 0b44 FB6A     		ldr	r3, [r7, #44]
 4135 0b46 1B89     		ldrh	r3, [r3, #8]
 4136 0b48 9A42     		cmp	r2, r3
 4137 0b4a 40F23681 		bls	.L245
1368:Libraries/lwip-1.4.0/core/tcp_in.c ****                 /* The incoming segment is larger than the old
1369:Libraries/lwip-1.4.0/core/tcp_in.c ****                    segment. We replace some segments with the new
1370:Libraries/lwip-1.4.0/core/tcp_in.c ****                    one. */
1371:Libraries/lwip-1.4.0/core/tcp_in.c ****                 cseg = tcp_seg_copy(&inseg);
 4138              		.loc 1 1371 0
 4139 0b4e 3B48     		ldr	r0, .L260+8
 4140 0b50 FFF7FEFF 		bl	tcp_seg_copy
 4141 0b54 B860     		str	r0, [r7, #8]
1372:Libraries/lwip-1.4.0/core/tcp_in.c ****                 if (cseg != NULL) {
 4142              		.loc 1 1372 0
 4143 0b56 BB68     		ldr	r3, [r7, #8]
 4144 0b58 002B     		cmp	r3, #0
 4145 0b5a 00F03081 		beq	.L246
1373:Libraries/lwip-1.4.0/core/tcp_in.c ****                   if (prev != NULL) {
 4146              		.loc 1 1373 0
 4147 0b5e BB6A     		ldr	r3, [r7, #40]
 4148 0b60 002B     		cmp	r3, #0
 4149 0b62 03D0     		beq	.L229
1374:Libraries/lwip-1.4.0/core/tcp_in.c ****                     prev->next = cseg;
 4150              		.loc 1 1374 0
 4151 0b64 BB6A     		ldr	r3, [r7, #40]
 4152 0b66 BA68     		ldr	r2, [r7, #8]
 4153 0b68 1A60     		str	r2, [r3]
 4154 0b6a 02E0     		b	.L230
 4155              	.L229:
1375:Libraries/lwip-1.4.0/core/tcp_in.c ****                   } else {
1376:Libraries/lwip-1.4.0/core/tcp_in.c ****                     pcb->ooseq = cseg;
 4156              		.loc 1 1376 0
 4157 0b6c 7B68     		ldr	r3, [r7, #4]
 4158 0b6e BA68     		ldr	r2, [r7, #8]
 4159 0b70 DA67     		str	r2, [r3, #124]
 4160              	.L230:
1377:Libraries/lwip-1.4.0/core/tcp_in.c ****                   }
1378:Libraries/lwip-1.4.0/core/tcp_in.c ****                   tcp_oos_insert_segment(cseg, next);
 4161              		.loc 1 1378 0
 4162 0b72 F96A     		ldr	r1, [r7, #44]
 4163 0b74 B868     		ldr	r0, [r7, #8]
 4164 0b76 FFF7FEFF 		bl	tcp_oos_insert_segment
1379:Libraries/lwip-1.4.0/core/tcp_in.c ****                 }
1380:Libraries/lwip-1.4.0/core/tcp_in.c ****                 break;
 4165              		.loc 1 1380 0
 4166 0b7a 20E1     		b	.L246
 4167              	.L226:
1381:Libraries/lwip-1.4.0/core/tcp_in.c ****               } else {
1382:Libraries/lwip-1.4.0/core/tcp_in.c ****                 /* Either the lenghts are the same or the incoming
1383:Libraries/lwip-1.4.0/core/tcp_in.c ****                    segment was smaller than the old one; in either
1384:Libraries/lwip-1.4.0/core/tcp_in.c ****                    case, we ditch the incoming segment. */
1385:Libraries/lwip-1.4.0/core/tcp_in.c ****                 break;
1386:Libraries/lwip-1.4.0/core/tcp_in.c ****               }
1387:Libraries/lwip-1.4.0/core/tcp_in.c ****             } else {
1388:Libraries/lwip-1.4.0/core/tcp_in.c ****               if (prev == NULL) {
 4168              		.loc 1 1388 0
 4169 0b7c BB6A     		ldr	r3, [r7, #40]
 4170 0b7e 002B     		cmp	r3, #0
 4171 0b80 17D1     		bne	.L231
1389:Libraries/lwip-1.4.0/core/tcp_in.c ****                 if (TCP_SEQ_LT(seqno, next->tcphdr->seqno)) {
 4172              		.loc 1 1389 0
 4173 0b82 2F4B     		ldr	r3, .L260+12
 4174 0b84 1A68     		ldr	r2, [r3]
 4175 0b86 FB6A     		ldr	r3, [r7, #44]
 4176 0b88 DB68     		ldr	r3, [r3, #12]
 4177 0b8a 5B68     		ldr	r3, [r3, #4]	@ unaligned
 4178 0b8c D31A     		subs	r3, r2, r3
 4179 0b8e 002B     		cmp	r3, #0
 4180 0b90 58DA     		bge	.L232
1390:Libraries/lwip-1.4.0/core/tcp_in.c ****                   /* The sequence number of the incoming segment is lower
1391:Libraries/lwip-1.4.0/core/tcp_in.c ****                      than the sequence number of the first segment on the
1392:Libraries/lwip-1.4.0/core/tcp_in.c ****                      queue. We put the incoming segment first on the
1393:Libraries/lwip-1.4.0/core/tcp_in.c ****                      queue. */
1394:Libraries/lwip-1.4.0/core/tcp_in.c ****                   cseg = tcp_seg_copy(&inseg);
 4181              		.loc 1 1394 0
 4182 0b92 2A48     		ldr	r0, .L260+8
 4183 0b94 FFF7FEFF 		bl	tcp_seg_copy
 4184 0b98 B860     		str	r0, [r7, #8]
1395:Libraries/lwip-1.4.0/core/tcp_in.c ****                   if (cseg != NULL) {
 4185              		.loc 1 1395 0
 4186 0b9a BB68     		ldr	r3, [r7, #8]
 4187 0b9c 002B     		cmp	r3, #0
 4188 0b9e 00F01081 		beq	.L247
1396:Libraries/lwip-1.4.0/core/tcp_in.c ****                     pcb->ooseq = cseg;
 4189              		.loc 1 1396 0
 4190 0ba2 7B68     		ldr	r3, [r7, #4]
 4191 0ba4 BA68     		ldr	r2, [r7, #8]
 4192 0ba6 DA67     		str	r2, [r3, #124]
1397:Libraries/lwip-1.4.0/core/tcp_in.c ****                     tcp_oos_insert_segment(cseg, next);
 4193              		.loc 1 1397 0
 4194 0ba8 F96A     		ldr	r1, [r7, #44]
 4195 0baa B868     		ldr	r0, [r7, #8]
 4196 0bac FFF7FEFF 		bl	tcp_oos_insert_segment
1398:Libraries/lwip-1.4.0/core/tcp_in.c ****                   }
1399:Libraries/lwip-1.4.0/core/tcp_in.c ****                   break;
 4197              		.loc 1 1399 0
 4198 0bb0 07E1     		b	.L247
 4199              	.L231:
1400:Libraries/lwip-1.4.0/core/tcp_in.c ****                 }
1401:Libraries/lwip-1.4.0/core/tcp_in.c ****               } else {
1402:Libraries/lwip-1.4.0/core/tcp_in.c ****                 /*if (TCP_SEQ_LT(prev->tcphdr->seqno, seqno) &&
1403:Libraries/lwip-1.4.0/core/tcp_in.c ****                   TCP_SEQ_LT(seqno, next->tcphdr->seqno)) {*/
1404:Libraries/lwip-1.4.0/core/tcp_in.c ****                 if (TCP_SEQ_BETWEEN(seqno, prev->tcphdr->seqno+1, next->tcphdr->seqno-1)) {
 4200              		.loc 1 1404 0
 4201 0bb2 234B     		ldr	r3, .L260+12
 4202 0bb4 1A68     		ldr	r2, [r3]
 4203 0bb6 BB6A     		ldr	r3, [r7, #40]
 4204 0bb8 DB68     		ldr	r3, [r3, #12]
 4205 0bba 5B68     		ldr	r3, [r3, #4]	@ unaligned
 4206 0bbc D31A     		subs	r3, r2, r3
 4207 0bbe 013B     		subs	r3, r3, #1
 4208 0bc0 002B     		cmp	r3, #0
 4209 0bc2 3FDB     		blt	.L232
 4210              		.loc 1 1404 0 is_stmt 0 discriminator 1
 4211 0bc4 1E4B     		ldr	r3, .L260+12
 4212 0bc6 1A68     		ldr	r2, [r3]
 4213 0bc8 FB6A     		ldr	r3, [r7, #44]
 4214 0bca DB68     		ldr	r3, [r3, #12]
 4215 0bcc 5B68     		ldr	r3, [r3, #4]	@ unaligned
 4216 0bce D31A     		subs	r3, r2, r3
 4217 0bd0 0133     		adds	r3, r3, #1
 4218 0bd2 002B     		cmp	r3, #0
 4219 0bd4 36DC     		bgt	.L232
1405:Libraries/lwip-1.4.0/core/tcp_in.c ****                   /* The sequence number of the incoming segment is in
1406:Libraries/lwip-1.4.0/core/tcp_in.c ****                      between the sequence numbers of the previous and
1407:Libraries/lwip-1.4.0/core/tcp_in.c ****                      the next segment on ->ooseq. We trim trim the previous
1408:Libraries/lwip-1.4.0/core/tcp_in.c ****                      segment, delete next segments that included in received segment
1409:Libraries/lwip-1.4.0/core/tcp_in.c ****                      and trim received, if needed. */
1410:Libraries/lwip-1.4.0/core/tcp_in.c ****                   cseg = tcp_seg_copy(&inseg);
 4220              		.loc 1 1410 0 is_stmt 1
 4221 0bd6 1948     		ldr	r0, .L260+8
 4222 0bd8 FFF7FEFF 		bl	tcp_seg_copy
 4223 0bdc B860     		str	r0, [r7, #8]
1411:Libraries/lwip-1.4.0/core/tcp_in.c ****                   if (cseg != NULL) {
 4224              		.loc 1 1411 0
 4225 0bde BB68     		ldr	r3, [r7, #8]
 4226 0be0 002B     		cmp	r3, #0
 4227 0be2 00F0F080 		beq	.L248
1412:Libraries/lwip-1.4.0/core/tcp_in.c ****                     if (TCP_SEQ_GT(prev->tcphdr->seqno + prev->len, seqno)) {
 4228              		.loc 1 1412 0
 4229 0be6 BB6A     		ldr	r3, [r7, #40]
 4230 0be8 DB68     		ldr	r3, [r3, #12]
 4231 0bea 5B68     		ldr	r3, [r3, #4]	@ unaligned
 4232 0bec BA6A     		ldr	r2, [r7, #40]
 4233 0bee 1289     		ldrh	r2, [r2, #8]
 4234 0bf0 1A44     		add	r2, r2, r3
 4235 0bf2 134B     		ldr	r3, .L260+12
 4236 0bf4 1B68     		ldr	r3, [r3]
 4237 0bf6 D31A     		subs	r3, r2, r3
 4238 0bf8 002B     		cmp	r3, #0
 4239 0bfa 12DD     		ble	.L235
1413:Libraries/lwip-1.4.0/core/tcp_in.c ****                       /* We need to trim the prev segment. */
1414:Libraries/lwip-1.4.0/core/tcp_in.c ****                       prev->len = (u16_t)(seqno - prev->tcphdr->seqno);
 4240              		.loc 1 1414 0
 4241 0bfc 104B     		ldr	r3, .L260+12
 4242 0bfe 1B68     		ldr	r3, [r3]
 4243 0c00 9AB2     		uxth	r2, r3
 4244 0c02 BB6A     		ldr	r3, [r7, #40]
 4245 0c04 DB68     		ldr	r3, [r3, #12]
 4246 0c06 5B68     		ldr	r3, [r3, #4]	@ unaligned
 4247 0c08 9BB2     		uxth	r3, r3
 4248 0c0a D31A     		subs	r3, r2, r3
 4249 0c0c 9AB2     		uxth	r2, r3
 4250 0c0e BB6A     		ldr	r3, [r7, #40]
 4251 0c10 1A81     		strh	r2, [r3, #8]	@ movhi
1415:Libraries/lwip-1.4.0/core/tcp_in.c ****                       pbuf_realloc(prev->p, prev->len);
 4252              		.loc 1 1415 0
 4253 0c12 BB6A     		ldr	r3, [r7, #40]
 4254 0c14 5A68     		ldr	r2, [r3, #4]
 4255 0c16 BB6A     		ldr	r3, [r7, #40]
 4256 0c18 1B89     		ldrh	r3, [r3, #8]
 4257 0c1a 1946     		mov	r1, r3
 4258 0c1c 1046     		mov	r0, r2
 4259 0c1e FFF7FEFF 		bl	pbuf_realloc
 4260              	.L235:
1416:Libraries/lwip-1.4.0/core/tcp_in.c ****                     }
1417:Libraries/lwip-1.4.0/core/tcp_in.c ****                     prev->next = cseg;
 4261              		.loc 1 1417 0
 4262 0c22 BB6A     		ldr	r3, [r7, #40]
 4263 0c24 BA68     		ldr	r2, [r7, #8]
 4264 0c26 1A60     		str	r2, [r3]
1418:Libraries/lwip-1.4.0/core/tcp_in.c ****                     tcp_oos_insert_segment(cseg, next);
 4265              		.loc 1 1418 0
 4266 0c28 F96A     		ldr	r1, [r7, #44]
 4267 0c2a B868     		ldr	r0, [r7, #8]
 4268 0c2c FFF7FEFF 		bl	tcp_oos_insert_segment
1419:Libraries/lwip-1.4.0/core/tcp_in.c ****                   }
1420:Libraries/lwip-1.4.0/core/tcp_in.c ****                   break;
 4269              		.loc 1 1420 0
 4270 0c30 C9E0     		b	.L248
 4271              	.L261:
 4272 0c32 00BF     		.align	2
 4273              	.L260:
 4274 0c34 00000000 		.word	recv_data
 4275 0c38 00000000 		.word	recv_flags
 4276 0c3c 00000000 		.word	inseg
 4277 0c40 00000000 		.word	seqno
 4278              	.L232:
1421:Libraries/lwip-1.4.0/core/tcp_in.c ****                 }
1422:Libraries/lwip-1.4.0/core/tcp_in.c ****               }
1423:Libraries/lwip-1.4.0/core/tcp_in.c ****               /* If the "next" segment is the last segment on the
1424:Libraries/lwip-1.4.0/core/tcp_in.c ****                  ooseq queue, we add the incoming segment to the end
1425:Libraries/lwip-1.4.0/core/tcp_in.c ****                  of the list. */
1426:Libraries/lwip-1.4.0/core/tcp_in.c ****               if (next->next == NULL &&
 4279              		.loc 1 1426 0
 4280 0c44 FB6A     		ldr	r3, [r7, #44]
 4281 0c46 1B68     		ldr	r3, [r3]
 4282 0c48 002B     		cmp	r3, #0
 4283 0c4a 40F0AC80 		bne	.L236
1427:Libraries/lwip-1.4.0/core/tcp_in.c ****                   TCP_SEQ_GT(seqno, next->tcphdr->seqno)) {
 4284              		.loc 1 1427 0 discriminator 1
 4285 0c4e 734B     		ldr	r3, .L262
 4286 0c50 1A68     		ldr	r2, [r3]
 4287 0c52 FB6A     		ldr	r3, [r7, #44]
 4288 0c54 DB68     		ldr	r3, [r3, #12]
 4289 0c56 5B68     		ldr	r3, [r3, #4]	@ unaligned
 4290 0c58 D31A     		subs	r3, r2, r3
1426:Libraries/lwip-1.4.0/core/tcp_in.c ****                   TCP_SEQ_GT(seqno, next->tcphdr->seqno)) {
 4291              		.loc 1 1426 0 discriminator 1
 4292 0c5a 002B     		cmp	r3, #0
 4293 0c5c 40F3A380 		ble	.L236
1428:Libraries/lwip-1.4.0/core/tcp_in.c ****                 if (TCPH_FLAGS(next->tcphdr) & TCP_FIN) {
 4294              		.loc 1 1428 0
 4295 0c60 FB6A     		ldr	r3, [r7, #44]
 4296 0c62 DB68     		ldr	r3, [r3, #12]
 4297 0c64 9B89     		ldrh	r3, [r3, #12]	@ unaligned
 4298 0c66 9BB2     		uxth	r3, r3
 4299 0c68 1846     		mov	r0, r3
 4300 0c6a FFF7FEFF 		bl	lwip_ntohs
 4301 0c6e 0346     		mov	r3, r0
 4302 0c70 03F00103 		and	r3, r3, #1
 4303 0c74 002B     		cmp	r3, #0
 4304 0c76 40F0A880 		bne	.L249
1429:Libraries/lwip-1.4.0/core/tcp_in.c ****                   /* segment "next" already contains all data */
1430:Libraries/lwip-1.4.0/core/tcp_in.c ****                   break;
1431:Libraries/lwip-1.4.0/core/tcp_in.c ****                 }
1432:Libraries/lwip-1.4.0/core/tcp_in.c ****                 next->next = tcp_seg_copy(&inseg);
 4305              		.loc 1 1432 0
 4306 0c7a 6948     		ldr	r0, .L262+4
 4307 0c7c FFF7FEFF 		bl	tcp_seg_copy
 4308 0c80 0246     		mov	r2, r0
 4309 0c82 FB6A     		ldr	r3, [r7, #44]
 4310 0c84 1A60     		str	r2, [r3]
1433:Libraries/lwip-1.4.0/core/tcp_in.c ****                 if (next->next != NULL) {
 4311              		.loc 1 1433 0
 4312 0c86 FB6A     		ldr	r3, [r7, #44]
 4313 0c88 1B68     		ldr	r3, [r3]
 4314 0c8a 002B     		cmp	r3, #0
 4315 0c8c 00F09F80 		beq	.L250
1434:Libraries/lwip-1.4.0/core/tcp_in.c ****                   if (TCP_SEQ_GT(next->tcphdr->seqno + next->len, seqno)) {
 4316              		.loc 1 1434 0
 4317 0c90 FB6A     		ldr	r3, [r7, #44]
 4318 0c92 DB68     		ldr	r3, [r3, #12]
 4319 0c94 5B68     		ldr	r3, [r3, #4]	@ unaligned
 4320 0c96 FA6A     		ldr	r2, [r7, #44]
 4321 0c98 1289     		ldrh	r2, [r2, #8]
 4322 0c9a 1A44     		add	r2, r2, r3
 4323 0c9c 5F4B     		ldr	r3, .L262
 4324 0c9e 1B68     		ldr	r3, [r3]
 4325 0ca0 D31A     		subs	r3, r2, r3
 4326 0ca2 002B     		cmp	r3, #0
 4327 0ca4 12DD     		ble	.L239
1435:Libraries/lwip-1.4.0/core/tcp_in.c ****                     /* We need to trim the last segment. */
1436:Libraries/lwip-1.4.0/core/tcp_in.c ****                     next->len = (u16_t)(seqno - next->tcphdr->seqno);
 4328              		.loc 1 1436 0
 4329 0ca6 5D4B     		ldr	r3, .L262
 4330 0ca8 1B68     		ldr	r3, [r3]
 4331 0caa 9AB2     		uxth	r2, r3
 4332 0cac FB6A     		ldr	r3, [r7, #44]
 4333 0cae DB68     		ldr	r3, [r3, #12]
 4334 0cb0 5B68     		ldr	r3, [r3, #4]	@ unaligned
 4335 0cb2 9BB2     		uxth	r3, r3
 4336 0cb4 D31A     		subs	r3, r2, r3
 4337 0cb6 9AB2     		uxth	r2, r3
 4338 0cb8 FB6A     		ldr	r3, [r7, #44]
 4339 0cba 1A81     		strh	r2, [r3, #8]	@ movhi
1437:Libraries/lwip-1.4.0/core/tcp_in.c ****                     pbuf_realloc(next->p, next->len);
 4340              		.loc 1 1437 0
 4341 0cbc FB6A     		ldr	r3, [r7, #44]
 4342 0cbe 5A68     		ldr	r2, [r3, #4]
 4343 0cc0 FB6A     		ldr	r3, [r7, #44]
 4344 0cc2 1B89     		ldrh	r3, [r3, #8]
 4345 0cc4 1946     		mov	r1, r3
 4346 0cc6 1046     		mov	r0, r2
 4347 0cc8 FFF7FEFF 		bl	pbuf_realloc
 4348              	.L239:
1438:Libraries/lwip-1.4.0/core/tcp_in.c ****                   }
1439:Libraries/lwip-1.4.0/core/tcp_in.c ****                   /* check if the remote side overruns our receive window */
1440:Libraries/lwip-1.4.0/core/tcp_in.c ****                   if ((u32_t)tcplen + seqno > pcb->rcv_nxt + (u32_t)pcb->rcv_wnd) {
 4349              		.loc 1 1440 0
 4350 0ccc 554B     		ldr	r3, .L262+8
 4351 0cce 1B88     		ldrh	r3, [r3]
 4352 0cd0 1A46     		mov	r2, r3
 4353 0cd2 524B     		ldr	r3, .L262
 4354 0cd4 1B68     		ldr	r3, [r3]
 4355 0cd6 1A44     		add	r2, r2, r3
 4356 0cd8 7B68     		ldr	r3, [r7, #4]
 4357 0cda 5B6A     		ldr	r3, [r3, #36]
 4358 0cdc 7968     		ldr	r1, [r7, #4]
 4359 0cde 098D     		ldrh	r1, [r1, #40]
 4360 0ce0 0B44     		add	r3, r3, r1
 4361 0ce2 9A42     		cmp	r2, r3
 4362 0ce4 73D9     		bls	.L250
1441:Libraries/lwip-1.4.0/core/tcp_in.c ****                     LWIP_DEBUGF(TCP_INPUT_DEBUG, 
1442:Libraries/lwip-1.4.0/core/tcp_in.c ****                                 ("tcp_receive: other end overran receive window"
1443:Libraries/lwip-1.4.0/core/tcp_in.c ****                                  "seqno %"U32_F" len %"U16_F" right edge %"U32_F"\n",
1444:Libraries/lwip-1.4.0/core/tcp_in.c ****                                  seqno, tcplen, pcb->rcv_nxt + pcb->rcv_wnd));
1445:Libraries/lwip-1.4.0/core/tcp_in.c ****                     if (TCPH_FLAGS(next->next->tcphdr) & TCP_FIN) {
 4363              		.loc 1 1445 0
 4364 0ce6 FB6A     		ldr	r3, [r7, #44]
 4365 0ce8 1B68     		ldr	r3, [r3]
 4366 0cea DB68     		ldr	r3, [r3, #12]
 4367 0cec 9B89     		ldrh	r3, [r3, #12]	@ unaligned
 4368 0cee 9BB2     		uxth	r3, r3
 4369 0cf0 1846     		mov	r0, r3
 4370 0cf2 FFF7FEFF 		bl	lwip_ntohs
 4371 0cf6 0346     		mov	r3, r0
 4372 0cf8 03F00103 		and	r3, r3, #1
 4373 0cfc 002B     		cmp	r3, #0
 4374 0cfe 20D0     		beq	.L240
1446:Libraries/lwip-1.4.0/core/tcp_in.c ****                       /* Must remove the FIN from the header as we're trimming 
1447:Libraries/lwip-1.4.0/core/tcp_in.c ****                        * that byte of sequence-space from the packet */
1448:Libraries/lwip-1.4.0/core/tcp_in.c ****                       TCPH_FLAGS_SET(next->next->tcphdr, TCPH_FLAGS(next->next->tcphdr) &~ TCP_FIN)
 4375              		.loc 1 1448 0
 4376 0d00 FB6A     		ldr	r3, [r7, #44]
 4377 0d02 1B68     		ldr	r3, [r3]
 4378 0d04 DC68     		ldr	r4, [r3, #12]
 4379 0d06 FB6A     		ldr	r3, [r7, #44]
 4380 0d08 1B68     		ldr	r3, [r3]
 4381 0d0a DB68     		ldr	r3, [r3, #12]
 4382 0d0c 9B89     		ldrh	r3, [r3, #12]	@ unaligned
 4383 0d0e 9BB2     		uxth	r3, r3
 4384 0d10 1BB2     		sxth	r3, r3
 4385 0d12 23F47C53 		bic	r3, r3, #16128
 4386 0d16 1DB2     		sxth	r5, r3
 4387 0d18 FB6A     		ldr	r3, [r7, #44]
 4388 0d1a 1B68     		ldr	r3, [r3]
 4389 0d1c DB68     		ldr	r3, [r3, #12]
 4390 0d1e 9B89     		ldrh	r3, [r3, #12]	@ unaligned
 4391 0d20 9BB2     		uxth	r3, r3
 4392 0d22 1846     		mov	r0, r3
 4393 0d24 FFF7FEFF 		bl	lwip_ntohs
 4394 0d28 0346     		mov	r3, r0
 4395 0d2a 03F03E03 		and	r3, r3, #62
 4396 0d2e 9BB2     		uxth	r3, r3
 4397 0d30 1846     		mov	r0, r3
 4398 0d32 FFF7FEFF 		bl	lwip_htons
 4399 0d36 0346     		mov	r3, r0
 4400 0d38 1BB2     		sxth	r3, r3
 4401 0d3a 2B43     		orrs	r3, r3, r5
 4402 0d3c 1BB2     		sxth	r3, r3
 4403 0d3e 9BB2     		uxth	r3, r3
 4404 0d40 A381     		strh	r3, [r4, #12]	@ unaligned
 4405              	.L240:
1449:Libraries/lwip-1.4.0/core/tcp_in.c ****                     }
1450:Libraries/lwip-1.4.0/core/tcp_in.c ****                     /* Adjust length of segment to fit in the window. */
1451:Libraries/lwip-1.4.0/core/tcp_in.c ****                     next->next->len = pcb->rcv_nxt + pcb->rcv_wnd - seqno;
 4406              		.loc 1 1451 0
 4407 0d42 FB6A     		ldr	r3, [r7, #44]
 4408 0d44 1B68     		ldr	r3, [r3]
 4409 0d46 7A68     		ldr	r2, [r7, #4]
 4410 0d48 526A     		ldr	r2, [r2, #36]
 4411 0d4a 91B2     		uxth	r1, r2
 4412 0d4c 7A68     		ldr	r2, [r7, #4]
 4413 0d4e 128D     		ldrh	r2, [r2, #40]
 4414 0d50 0A44     		add	r2, r2, r1
 4415 0d52 91B2     		uxth	r1, r2
 4416 0d54 314A     		ldr	r2, .L262
 4417 0d56 1268     		ldr	r2, [r2]
 4418 0d58 92B2     		uxth	r2, r2
 4419 0d5a 8A1A     		subs	r2, r1, r2
 4420 0d5c 92B2     		uxth	r2, r2
 4421 0d5e 1A81     		strh	r2, [r3, #8]	@ movhi
1452:Libraries/lwip-1.4.0/core/tcp_in.c ****                     pbuf_realloc(next->next->p, next->next->len);
 4422              		.loc 1 1452 0
 4423 0d60 FB6A     		ldr	r3, [r7, #44]
 4424 0d62 1B68     		ldr	r3, [r3]
 4425 0d64 5A68     		ldr	r2, [r3, #4]
 4426 0d66 FB6A     		ldr	r3, [r7, #44]
 4427 0d68 1B68     		ldr	r3, [r3]
 4428 0d6a 1B89     		ldrh	r3, [r3, #8]
 4429 0d6c 1946     		mov	r1, r3
 4430 0d6e 1046     		mov	r0, r2
 4431 0d70 FFF7FEFF 		bl	pbuf_realloc
1453:Libraries/lwip-1.4.0/core/tcp_in.c ****                     tcplen = TCP_TCPLEN(next->next);
 4432              		.loc 1 1453 0
 4433 0d74 FB6A     		ldr	r3, [r7, #44]
 4434 0d76 1B68     		ldr	r3, [r3]
 4435 0d78 1C89     		ldrh	r4, [r3, #8]
 4436 0d7a FB6A     		ldr	r3, [r7, #44]
 4437 0d7c 1B68     		ldr	r3, [r3]
 4438 0d7e DB68     		ldr	r3, [r3, #12]
 4439 0d80 9B89     		ldrh	r3, [r3, #12]	@ unaligned
 4440 0d82 9BB2     		uxth	r3, r3
 4441 0d84 1846     		mov	r0, r3
 4442 0d86 FFF7FEFF 		bl	lwip_ntohs
 4443 0d8a 0346     		mov	r3, r0
 4444 0d8c 03F00303 		and	r3, r3, #3
 4445 0d90 002B     		cmp	r3, #0
 4446 0d92 14BF     		ite	ne
 4447 0d94 0123     		movne	r3, #1
 4448 0d96 0023     		moveq	r3, #0
 4449 0d98 DBB2     		uxtb	r3, r3
 4450 0d9a 9BB2     		uxth	r3, r3
 4451 0d9c 2344     		add	r3, r3, r4
 4452 0d9e 9AB2     		uxth	r2, r3
 4453 0da0 204B     		ldr	r3, .L262+8
 4454 0da2 1A80     		strh	r2, [r3]	@ movhi
1454:Libraries/lwip-1.4.0/core/tcp_in.c ****                     LWIP_ASSERT("tcp_receive: segment not trimmed correctly to rcv_wnd\n",
1455:Libraries/lwip-1.4.0/core/tcp_in.c ****                                 (seqno + tcplen) == (pcb->rcv_nxt + pcb->rcv_wnd));
1456:Libraries/lwip-1.4.0/core/tcp_in.c ****                   }
1457:Libraries/lwip-1.4.0/core/tcp_in.c ****                 }
1458:Libraries/lwip-1.4.0/core/tcp_in.c ****                 break;
 4455              		.loc 1 1458 0
 4456 0da4 13E0     		b	.L250
 4457              	.L236:
1459:Libraries/lwip-1.4.0/core/tcp_in.c ****               }
1460:Libraries/lwip-1.4.0/core/tcp_in.c ****             }
1461:Libraries/lwip-1.4.0/core/tcp_in.c ****             prev = next;
 4458              		.loc 1 1461 0 discriminator 2
 4459 0da6 FB6A     		ldr	r3, [r7, #44]
 4460 0da8 BB62     		str	r3, [r7, #40]
1361:Libraries/lwip-1.4.0/core/tcp_in.c ****             if (seqno == next->tcphdr->seqno) {
 4461              		.loc 1 1361 0 discriminator 2
 4462 0daa FB6A     		ldr	r3, [r7, #44]
 4463 0dac 1B68     		ldr	r3, [r3]
 4464 0dae FB62     		str	r3, [r7, #44]
 4465              	.L225:
1361:Libraries/lwip-1.4.0/core/tcp_in.c ****             if (seqno == next->tcphdr->seqno) {
 4466              		.loc 1 1361 0 is_stmt 0 discriminator 1
 4467 0db0 FB6A     		ldr	r3, [r7, #44]
 4468 0db2 002B     		cmp	r3, #0
 4469 0db4 7FF4BDAE 		bne	.L241
1188:Libraries/lwip-1.4.0/core/tcp_in.c ****         /* The incoming segment is the next in sequence. We check if
 4470              		.loc 1 1188 0 is_stmt 1
 4471 0db8 2BE0     		b	.L243
 4472              	.L245:
1385:Libraries/lwip-1.4.0/core/tcp_in.c ****               }
 4473              		.loc 1 1385 0
 4474 0dba 00BF     		nop
 4475 0dbc 29E0     		b	.L243
 4476              	.L246:
1380:Libraries/lwip-1.4.0/core/tcp_in.c ****               } else {
 4477              		.loc 1 1380 0
 4478 0dbe 00BF     		nop
 4479 0dc0 27E0     		b	.L243
 4480              	.L247:
1399:Libraries/lwip-1.4.0/core/tcp_in.c ****                 }
 4481              		.loc 1 1399 0
 4482 0dc2 00BF     		nop
 4483 0dc4 25E0     		b	.L243
 4484              	.L248:
1420:Libraries/lwip-1.4.0/core/tcp_in.c ****                 }
 4485              		.loc 1 1420 0
 4486 0dc6 00BF     		nop
 4487 0dc8 23E0     		b	.L243
 4488              	.L249:
1430:Libraries/lwip-1.4.0/core/tcp_in.c ****                 }
 4489              		.loc 1 1430 0
 4490 0dca 00BF     		nop
 4491 0dcc 21E0     		b	.L243
 4492              	.L250:
1458:Libraries/lwip-1.4.0/core/tcp_in.c ****               }
 4493              		.loc 1 1458 0
 4494 0dce 00BF     		nop
1188:Libraries/lwip-1.4.0/core/tcp_in.c ****         /* The incoming segment is the next in sequence. We check if
 4495              		.loc 1 1188 0
 4496 0dd0 1FE0     		b	.L243
 4497              	.L197:
1462:Libraries/lwip-1.4.0/core/tcp_in.c ****           }
1463:Libraries/lwip-1.4.0/core/tcp_in.c ****         }
1464:Libraries/lwip-1.4.0/core/tcp_in.c **** #endif /* TCP_QUEUE_OOSEQ */
1465:Libraries/lwip-1.4.0/core/tcp_in.c **** 
1466:Libraries/lwip-1.4.0/core/tcp_in.c ****       }
1467:Libraries/lwip-1.4.0/core/tcp_in.c ****     } else {
1468:Libraries/lwip-1.4.0/core/tcp_in.c ****       /* The incoming segment is not withing the window. */
1469:Libraries/lwip-1.4.0/core/tcp_in.c ****       tcp_send_empty_ack(pcb);
 4498              		.loc 1 1469 0
 4499 0dd2 7868     		ldr	r0, [r7, #4]
 4500 0dd4 FFF7FEFF 		bl	tcp_send_empty_ack
1470:Libraries/lwip-1.4.0/core/tcp_in.c ****     }
1471:Libraries/lwip-1.4.0/core/tcp_in.c ****   } else {
1472:Libraries/lwip-1.4.0/core/tcp_in.c ****     /* Segments with length 0 is taken care of here. Segments that
1473:Libraries/lwip-1.4.0/core/tcp_in.c ****        fall out of the window are ACKed. */
1474:Libraries/lwip-1.4.0/core/tcp_in.c ****     /*if (TCP_SEQ_GT(pcb->rcv_nxt, seqno) ||
1475:Libraries/lwip-1.4.0/core/tcp_in.c ****       TCP_SEQ_GEQ(seqno, pcb->rcv_nxt + pcb->rcv_wnd)) {*/
1476:Libraries/lwip-1.4.0/core/tcp_in.c ****     if(!TCP_SEQ_BETWEEN(seqno, pcb->rcv_nxt, pcb->rcv_nxt + pcb->rcv_wnd-1)){
1477:Libraries/lwip-1.4.0/core/tcp_in.c ****       tcp_ack_now(pcb);
1478:Libraries/lwip-1.4.0/core/tcp_in.c ****     }
1479:Libraries/lwip-1.4.0/core/tcp_in.c ****   }
1480:Libraries/lwip-1.4.0/core/tcp_in.c **** }
 4501              		.loc 1 1480 0
 4502 0dd8 1BE0     		b	.L251
 4503              	.L190:
1476:Libraries/lwip-1.4.0/core/tcp_in.c ****       tcp_ack_now(pcb);
 4504              		.loc 1 1476 0
 4505 0dda 104B     		ldr	r3, .L262
 4506 0ddc 1A68     		ldr	r2, [r3]
 4507 0dde 7B68     		ldr	r3, [r7, #4]
 4508 0de0 5B6A     		ldr	r3, [r3, #36]
 4509 0de2 D31A     		subs	r3, r2, r3
 4510 0de4 002B     		cmp	r3, #0
 4511 0de6 0ADB     		blt	.L244
1476:Libraries/lwip-1.4.0/core/tcp_in.c ****       tcp_ack_now(pcb);
 4512              		.loc 1 1476 0 is_stmt 0 discriminator 1
 4513 0de8 0C4B     		ldr	r3, .L262
 4514 0dea 1A68     		ldr	r2, [r3]
 4515 0dec 7B68     		ldr	r3, [r7, #4]
 4516 0dee 5B6A     		ldr	r3, [r3, #36]
 4517 0df0 7968     		ldr	r1, [r7, #4]
 4518 0df2 098D     		ldrh	r1, [r1, #40]
 4519 0df4 0B44     		add	r3, r3, r1
 4520 0df6 D31A     		subs	r3, r2, r3
 4521 0df8 0133     		adds	r3, r3, #1
 4522 0dfa 002B     		cmp	r3, #0
 4523 0dfc 09DD     		ble	.L251
 4524              	.L244:
1477:Libraries/lwip-1.4.0/core/tcp_in.c ****     }
 4525              		.loc 1 1477 0 is_stmt 1
 4526 0dfe 7B68     		ldr	r3, [r7, #4]
 4527 0e00 93F82030 		ldrb	r3, [r3, #32]	@ zero_extendqisi2
 4528 0e04 43F00203 		orr	r3, r3, #2
 4529 0e08 DAB2     		uxtb	r2, r3
 4530 0e0a 7B68     		ldr	r3, [r7, #4]
 4531 0e0c 83F82020 		strb	r2, [r3, #32]
 4532              		.loc 1 1480 0
 4533 0e10 FFE7     		b	.L251
 4534              	.L243:
 4535              	.L251:
 4536 0e12 00BF     		nop
 4537 0e14 3437     		adds	r7, r7, #52
 4538              		.cfi_def_cfa_offset 20
 4539 0e16 BD46     		mov	sp, r7
 4540              		.cfi_def_cfa_register 13
 4541              		@ sp needed
 4542 0e18 F0BD     		pop	{r4, r5, r6, r7, pc}
 4543              	.L263:
 4544 0e1a 00BF     		.align	2
 4545              	.L262:
 4546 0e1c 00000000 		.word	seqno
 4547 0e20 00000000 		.word	inseg
 4548 0e24 00000000 		.word	tcplen
 4549              		.cfi_endproc
 4550              	.LFE22:
 4552              		.section	.text.tcp_parseopt,"ax",%progbits
 4553              		.align	2
 4554              		.thumb
 4555              		.thumb_func
 4557              	tcp_parseopt:
 4558              	.LFB23:
1481:Libraries/lwip-1.4.0/core/tcp_in.c **** 
1482:Libraries/lwip-1.4.0/core/tcp_in.c **** /**
1483:Libraries/lwip-1.4.0/core/tcp_in.c ****  * Parses the options contained in the incoming segment. 
1484:Libraries/lwip-1.4.0/core/tcp_in.c ****  *
1485:Libraries/lwip-1.4.0/core/tcp_in.c ****  * Called from tcp_listen_input() and tcp_process().
1486:Libraries/lwip-1.4.0/core/tcp_in.c ****  * Currently, only the MSS option is supported!
1487:Libraries/lwip-1.4.0/core/tcp_in.c ****  *
1488:Libraries/lwip-1.4.0/core/tcp_in.c ****  * @param pcb the tcp_pcb for which a segment arrived
1489:Libraries/lwip-1.4.0/core/tcp_in.c ****  */
1490:Libraries/lwip-1.4.0/core/tcp_in.c **** static void
1491:Libraries/lwip-1.4.0/core/tcp_in.c **** tcp_parseopt(struct tcp_pcb *pcb)
1492:Libraries/lwip-1.4.0/core/tcp_in.c **** {
 4559              		.loc 1 1492 0
 4560              		.cfi_startproc
 4561              		@ args = 0, pretend = 0, frame = 24
 4562              		@ frame_needed = 1, uses_anonymous_args = 0
 4563 0000 80B5     		push	{r7, lr}
 4564              		.cfi_def_cfa_offset 8
 4565              		.cfi_offset 7, -8
 4566              		.cfi_offset 14, -4
 4567 0002 86B0     		sub	sp, sp, #24
 4568              		.cfi_def_cfa_offset 32
 4569 0004 00AF     		add	r7, sp, #0
 4570              		.cfi_def_cfa_register 7
 4571 0006 7860     		str	r0, [r7, #4]
1493:Libraries/lwip-1.4.0/core/tcp_in.c ****   u16_t c, max_c;
1494:Libraries/lwip-1.4.0/core/tcp_in.c ****   u16_t mss;
1495:Libraries/lwip-1.4.0/core/tcp_in.c ****   u8_t *opts, opt;
1496:Libraries/lwip-1.4.0/core/tcp_in.c **** #if LWIP_TCP_TIMESTAMPS
1497:Libraries/lwip-1.4.0/core/tcp_in.c ****   u32_t tsval;
1498:Libraries/lwip-1.4.0/core/tcp_in.c **** #endif
1499:Libraries/lwip-1.4.0/core/tcp_in.c **** 
1500:Libraries/lwip-1.4.0/core/tcp_in.c ****   opts = (u8_t *)tcphdr + TCP_HLEN;
 4572              		.loc 1 1500 0
 4573 0008 3D4B     		ldr	r3, .L281
 4574 000a 1B68     		ldr	r3, [r3]
 4575 000c 1433     		adds	r3, r3, #20
 4576 000e 3B61     		str	r3, [r7, #16]
1501:Libraries/lwip-1.4.0/core/tcp_in.c **** 
1502:Libraries/lwip-1.4.0/core/tcp_in.c ****   /* Parse the TCP MSS option, if present. */
1503:Libraries/lwip-1.4.0/core/tcp_in.c ****   if(TCPH_HDRLEN(tcphdr) > 0x5) {
 4577              		.loc 1 1503 0
 4578 0010 3B4B     		ldr	r3, .L281
 4579 0012 1B68     		ldr	r3, [r3]
 4580 0014 9B89     		ldrh	r3, [r3, #12]	@ unaligned
 4581 0016 9BB2     		uxth	r3, r3
 4582 0018 1846     		mov	r0, r3
 4583 001a FFF7FEFF 		bl	lwip_ntohs
 4584 001e 0346     		mov	r3, r0
 4585 0020 1B0B     		lsrs	r3, r3, #12
 4586 0022 9BB2     		uxth	r3, r3
 4587 0024 052B     		cmp	r3, #5
 4588 0026 68D9     		bls	.L264
1504:Libraries/lwip-1.4.0/core/tcp_in.c ****     max_c = (TCPH_HDRLEN(tcphdr) - 5) << 2;
 4589              		.loc 1 1504 0
 4590 0028 354B     		ldr	r3, .L281
 4591 002a 1B68     		ldr	r3, [r3]
 4592 002c 9B89     		ldrh	r3, [r3, #12]	@ unaligned
 4593 002e 9BB2     		uxth	r3, r3
 4594 0030 1846     		mov	r0, r3
 4595 0032 FFF7FEFF 		bl	lwip_ntohs
 4596 0036 0346     		mov	r3, r0
 4597 0038 1B0B     		lsrs	r3, r3, #12
 4598 003a 9BB2     		uxth	r3, r3
 4599 003c 053B     		subs	r3, r3, #5
 4600 003e 9BB2     		uxth	r3, r3
 4601 0040 9B00     		lsls	r3, r3, #2
 4602 0042 FB81     		strh	r3, [r7, #14]	@ movhi
1505:Libraries/lwip-1.4.0/core/tcp_in.c ****     for (c = 0; c < max_c; ) {
 4603              		.loc 1 1505 0
 4604 0044 0023     		movs	r3, #0
 4605 0046 FB82     		strh	r3, [r7, #22]	@ movhi
 4606 0048 4DE0     		b	.L266
 4607              	.L276:
1506:Libraries/lwip-1.4.0/core/tcp_in.c ****       opt = opts[c];
 4608              		.loc 1 1506 0
 4609 004a FB8A     		ldrh	r3, [r7, #22]
 4610 004c 3A69     		ldr	r2, [r7, #16]
 4611 004e 1344     		add	r3, r3, r2
 4612 0050 1B78     		ldrb	r3, [r3]
 4613 0052 7B73     		strb	r3, [r7, #13]
1507:Libraries/lwip-1.4.0/core/tcp_in.c ****       switch (opt) {
 4614              		.loc 1 1507 0
 4615 0054 7B7B     		ldrb	r3, [r7, #13]	@ zero_extendqisi2
 4616 0056 012B     		cmp	r3, #1
 4617 0058 04D0     		beq	.L268
 4618 005a 022B     		cmp	r3, #2
 4619 005c 06D0     		beq	.L269
 4620 005e 002B     		cmp	r3, #0
 4621 0060 46D0     		beq	.L278
 4622 0062 30E0     		b	.L277
 4623              	.L268:
1508:Libraries/lwip-1.4.0/core/tcp_in.c ****       case 0x00:
1509:Libraries/lwip-1.4.0/core/tcp_in.c ****         /* End of options. */
1510:Libraries/lwip-1.4.0/core/tcp_in.c ****         LWIP_DEBUGF(TCP_INPUT_DEBUG, ("tcp_parseopt: EOL\n"));
1511:Libraries/lwip-1.4.0/core/tcp_in.c ****         return;
1512:Libraries/lwip-1.4.0/core/tcp_in.c ****       case 0x01:
1513:Libraries/lwip-1.4.0/core/tcp_in.c ****         /* NOP option. */
1514:Libraries/lwip-1.4.0/core/tcp_in.c ****         ++c;
 4624              		.loc 1 1514 0
 4625 0064 FB8A     		ldrh	r3, [r7, #22]	@ movhi
 4626 0066 0133     		adds	r3, r3, #1
 4627 0068 FB82     		strh	r3, [r7, #22]	@ movhi
1515:Libraries/lwip-1.4.0/core/tcp_in.c ****         LWIP_DEBUGF(TCP_INPUT_DEBUG, ("tcp_parseopt: NOP\n"));
1516:Libraries/lwip-1.4.0/core/tcp_in.c ****         break;
 4628              		.loc 1 1516 0
 4629 006a 3CE0     		b	.L266
 4630              	.L269:
1517:Libraries/lwip-1.4.0/core/tcp_in.c ****       case 0x02:
1518:Libraries/lwip-1.4.0/core/tcp_in.c ****         LWIP_DEBUGF(TCP_INPUT_DEBUG, ("tcp_parseopt: MSS\n"));
1519:Libraries/lwip-1.4.0/core/tcp_in.c ****         if (opts[c + 1] != 0x04 || c + 0x04 > max_c) {
 4631              		.loc 1 1519 0
 4632 006c FB8A     		ldrh	r3, [r7, #22]
 4633 006e 0133     		adds	r3, r3, #1
 4634 0070 3A69     		ldr	r2, [r7, #16]
 4635 0072 1344     		add	r3, r3, r2
 4636 0074 1B78     		ldrb	r3, [r3]	@ zero_extendqisi2
 4637 0076 042B     		cmp	r3, #4
 4638 0078 3CD1     		bne	.L279
 4639              		.loc 1 1519 0 is_stmt 0 discriminator 1
 4640 007a FB8A     		ldrh	r3, [r7, #22]
 4641 007c 1A1D     		adds	r2, r3, #4
 4642 007e FB89     		ldrh	r3, [r7, #14]
 4643 0080 9A42     		cmp	r2, r3
 4644 0082 37DC     		bgt	.L279
1520:Libraries/lwip-1.4.0/core/tcp_in.c ****           /* Bad length */
1521:Libraries/lwip-1.4.0/core/tcp_in.c ****           LWIP_DEBUGF(TCP_INPUT_DEBUG, ("tcp_parseopt: bad length\n"));
1522:Libraries/lwip-1.4.0/core/tcp_in.c ****           return;
1523:Libraries/lwip-1.4.0/core/tcp_in.c ****         }
1524:Libraries/lwip-1.4.0/core/tcp_in.c ****         /* An MSS option with the right option length. */
1525:Libraries/lwip-1.4.0/core/tcp_in.c ****         mss = (opts[c + 2] << 8) | opts[c + 3];
 4645              		.loc 1 1525 0 is_stmt 1
 4646 0084 FB8A     		ldrh	r3, [r7, #22]
 4647 0086 0233     		adds	r3, r3, #2
 4648 0088 3A69     		ldr	r2, [r7, #16]
 4649 008a 1344     		add	r3, r3, r2
 4650 008c 1B78     		ldrb	r3, [r3]	@ zero_extendqisi2
 4651 008e 1B02     		lsls	r3, r3, #8
 4652 0090 1AB2     		sxth	r2, r3
 4653 0092 FB8A     		ldrh	r3, [r7, #22]
 4654 0094 0333     		adds	r3, r3, #3
 4655 0096 3969     		ldr	r1, [r7, #16]
 4656 0098 0B44     		add	r3, r3, r1
 4657 009a 1B78     		ldrb	r3, [r3]	@ zero_extendqisi2
 4658 009c 1BB2     		sxth	r3, r3
 4659 009e 1343     		orrs	r3, r3, r2
 4660 00a0 1BB2     		sxth	r3, r3
 4661 00a2 7B81     		strh	r3, [r7, #10]	@ movhi
1526:Libraries/lwip-1.4.0/core/tcp_in.c ****         /* Limit the mss to the configured TCP_MSS and prevent division by zero */
1527:Libraries/lwip-1.4.0/core/tcp_in.c ****         pcb->mss = ((mss > TCP_MSS) || (mss == 0)) ? TCP_MSS : mss;
 4662              		.loc 1 1527 0
 4663 00a4 7B89     		ldrh	r3, [r7, #10]
 4664 00a6 B3F5067F 		cmp	r3, #536
 4665 00aa 04D8     		bhi	.L273
 4666              		.loc 1 1527 0 is_stmt 0 discriminator 1
 4667 00ac 7B89     		ldrh	r3, [r7, #10]
 4668 00ae 002B     		cmp	r3, #0
 4669 00b0 01D0     		beq	.L273
 4670              		.loc 1 1527 0 discriminator 3
 4671 00b2 7A89     		ldrh	r2, [r7, #10]
 4672 00b4 01E0     		b	.L274
 4673              	.L273:
 4674              		.loc 1 1527 0 discriminator 4
 4675 00b6 4FF40672 		mov	r2, #536
 4676              	.L274:
 4677              		.loc 1 1527 0 discriminator 6
 4678 00ba 7B68     		ldr	r3, [r7, #4]
 4679 00bc 1A87     		strh	r2, [r3, #56]	@ movhi
1528:Libraries/lwip-1.4.0/core/tcp_in.c ****         /* Advance to next option */
1529:Libraries/lwip-1.4.0/core/tcp_in.c ****         c += 0x04;
 4680              		.loc 1 1529 0 is_stmt 1 discriminator 6
 4681 00be FB8A     		ldrh	r3, [r7, #22]	@ movhi
 4682 00c0 0433     		adds	r3, r3, #4
 4683 00c2 FB82     		strh	r3, [r7, #22]	@ movhi
1530:Libraries/lwip-1.4.0/core/tcp_in.c ****         break;
 4684              		.loc 1 1530 0 discriminator 6
 4685 00c4 0FE0     		b	.L266
 4686              	.L277:
1531:Libraries/lwip-1.4.0/core/tcp_in.c **** #if LWIP_TCP_TIMESTAMPS
1532:Libraries/lwip-1.4.0/core/tcp_in.c ****       case 0x08:
1533:Libraries/lwip-1.4.0/core/tcp_in.c ****         LWIP_DEBUGF(TCP_INPUT_DEBUG, ("tcp_parseopt: TS\n"));
1534:Libraries/lwip-1.4.0/core/tcp_in.c ****         if (opts[c + 1] != 0x0A || c + 0x0A > max_c) {
1535:Libraries/lwip-1.4.0/core/tcp_in.c ****           /* Bad length */
1536:Libraries/lwip-1.4.0/core/tcp_in.c ****           LWIP_DEBUGF(TCP_INPUT_DEBUG, ("tcp_parseopt: bad length\n"));
1537:Libraries/lwip-1.4.0/core/tcp_in.c ****           return;
1538:Libraries/lwip-1.4.0/core/tcp_in.c ****         }
1539:Libraries/lwip-1.4.0/core/tcp_in.c ****         /* TCP timestamp option with valid length */
1540:Libraries/lwip-1.4.0/core/tcp_in.c ****         tsval = (opts[c+2]) | (opts[c+3] << 8) | 
1541:Libraries/lwip-1.4.0/core/tcp_in.c ****           (opts[c+4] << 16) | (opts[c+5] << 24);
1542:Libraries/lwip-1.4.0/core/tcp_in.c ****         if (flags & TCP_SYN) {
1543:Libraries/lwip-1.4.0/core/tcp_in.c ****           pcb->ts_recent = ntohl(tsval);
1544:Libraries/lwip-1.4.0/core/tcp_in.c ****           pcb->flags |= TF_TIMESTAMP;
1545:Libraries/lwip-1.4.0/core/tcp_in.c ****         } else if (TCP_SEQ_BETWEEN(pcb->ts_lastacksent, seqno, seqno+tcplen)) {
1546:Libraries/lwip-1.4.0/core/tcp_in.c ****           pcb->ts_recent = ntohl(tsval);
1547:Libraries/lwip-1.4.0/core/tcp_in.c ****         }
1548:Libraries/lwip-1.4.0/core/tcp_in.c ****         /* Advance to next option */
1549:Libraries/lwip-1.4.0/core/tcp_in.c ****         c += 0x0A;
1550:Libraries/lwip-1.4.0/core/tcp_in.c ****         break;
1551:Libraries/lwip-1.4.0/core/tcp_in.c **** #endif
1552:Libraries/lwip-1.4.0/core/tcp_in.c ****       default:
1553:Libraries/lwip-1.4.0/core/tcp_in.c ****         LWIP_DEBUGF(TCP_INPUT_DEBUG, ("tcp_parseopt: other\n"));
1554:Libraries/lwip-1.4.0/core/tcp_in.c ****         if (opts[c + 1] == 0) {
 4687              		.loc 1 1554 0
 4688 00c6 FB8A     		ldrh	r3, [r7, #22]
 4689 00c8 0133     		adds	r3, r3, #1
 4690 00ca 3A69     		ldr	r2, [r7, #16]
 4691 00cc 1344     		add	r3, r3, r2
 4692 00ce 1B78     		ldrb	r3, [r3]	@ zero_extendqisi2
 4693 00d0 002B     		cmp	r3, #0
 4694 00d2 11D0     		beq	.L280
1555:Libraries/lwip-1.4.0/core/tcp_in.c ****           LWIP_DEBUGF(TCP_INPUT_DEBUG, ("tcp_parseopt: bad length\n"));
1556:Libraries/lwip-1.4.0/core/tcp_in.c ****           /* If the length field is zero, the options are malformed
1557:Libraries/lwip-1.4.0/core/tcp_in.c ****              and we don't process them further. */
1558:Libraries/lwip-1.4.0/core/tcp_in.c ****           return;
1559:Libraries/lwip-1.4.0/core/tcp_in.c ****         }
1560:Libraries/lwip-1.4.0/core/tcp_in.c ****         /* All other options have a length field, so that we easily
1561:Libraries/lwip-1.4.0/core/tcp_in.c ****            can skip past them. */
1562:Libraries/lwip-1.4.0/core/tcp_in.c ****         c += opts[c + 1];
 4695              		.loc 1 1562 0
 4696 00d4 FB8A     		ldrh	r3, [r7, #22]
 4697 00d6 0133     		adds	r3, r3, #1
 4698 00d8 3A69     		ldr	r2, [r7, #16]
 4699 00da 1344     		add	r3, r3, r2
 4700 00dc 1B78     		ldrb	r3, [r3]	@ zero_extendqisi2
 4701 00de 9AB2     		uxth	r2, r3
 4702 00e0 FB8A     		ldrh	r3, [r7, #22]	@ movhi
 4703 00e2 1344     		add	r3, r3, r2
 4704 00e4 FB82     		strh	r3, [r7, #22]	@ movhi
 4705              	.L266:
1505:Libraries/lwip-1.4.0/core/tcp_in.c ****       opt = opts[c];
 4706              		.loc 1 1505 0 discriminator 1
 4707 00e6 FA8A     		ldrh	r2, [r7, #22]
 4708 00e8 FB89     		ldrh	r3, [r7, #14]
 4709 00ea 9A42     		cmp	r2, r3
 4710 00ec ADD3     		bcc	.L276
 4711 00ee 04E0     		b	.L264
 4712              	.L278:
1511:Libraries/lwip-1.4.0/core/tcp_in.c ****       case 0x01:
 4713              		.loc 1 1511 0
 4714 00f0 00BF     		nop
 4715 00f2 02E0     		b	.L264
 4716              	.L279:
1522:Libraries/lwip-1.4.0/core/tcp_in.c ****         }
 4717              		.loc 1 1522 0
 4718 00f4 00BF     		nop
 4719 00f6 00E0     		b	.L264
 4720              	.L280:
1558:Libraries/lwip-1.4.0/core/tcp_in.c ****         }
 4721              		.loc 1 1558 0
 4722 00f8 00BF     		nop
 4723              	.L264:
1563:Libraries/lwip-1.4.0/core/tcp_in.c ****       }
1564:Libraries/lwip-1.4.0/core/tcp_in.c ****     }
1565:Libraries/lwip-1.4.0/core/tcp_in.c ****   }
1566:Libraries/lwip-1.4.0/core/tcp_in.c **** }
 4724              		.loc 1 1566 0
 4725 00fa 1837     		adds	r7, r7, #24
 4726              		.cfi_def_cfa_offset 8
 4727 00fc BD46     		mov	sp, r7
 4728              		.cfi_def_cfa_register 13
 4729              		@ sp needed
 4730 00fe 80BD     		pop	{r7, pc}
 4731              	.L282:
 4732              		.align	2
 4733              	.L281:
 4734 0100 00000000 		.word	tcphdr
 4735              		.cfi_endproc
 4736              	.LFE23:
 4738              		.text
 4739              	.Letext0:
 4740              		.file 2 "c:\\program files (x86)\\gnu tools arm embedded\\5.4 2016q2\\arm-none-eabi\\include\\mach
 4741              		.file 3 "c:\\program files (x86)\\gnu tools arm embedded\\5.4 2016q2\\arm-none-eabi\\include\\sys\
 4742              		.file 4 "./Libraries/lwip-1.4.0/arch/cc.h"
 4743              		.file 5 "./Libraries/lwip-1.4.0/include/lwip/mem.h"
 4744              		.file 6 "./Libraries/lwip-1.4.0/include/lwip/err.h"
 4745              		.file 7 "./Libraries/lwip-1.4.0/include/lwip/pbuf.h"
 4746              		.file 8 "./Libraries/lwip-1.4.0/include/ipv4/lwip/ip_addr.h"
 4747              		.file 9 "./Libraries/lwip-1.4.0/include/lwip/netif.h"
 4748              		.file 10 "./Libraries/lwip-1.4.0/include/ipv4/lwip/ip.h"
 4749              		.file 11 "./Libraries/lwip-1.4.0/include/lwip/tcp.h"
 4750              		.file 12 "./Libraries/lwip-1.4.0/include/lwip/tcp_impl.h"
 4751              		.file 13 "./Libraries/lwip-1.4.0/include/lwip/stats.h"
 4752              		.file 14 "./Libraries/lwip-1.4.0/include/lwip/memp.h"
DEFINED SYMBOLS
                            *ABS*:00000000 tcp_in.c
C:\Users\KHUSHA~1\AppData\Local\Temp\ccR6Awah.s:20     .bss.inseg:00000000 $d
C:\Users\KHUSHA~1\AppData\Local\Temp\ccR6Awah.s:23     .bss.inseg:00000000 inseg
C:\Users\KHUSHA~1\AppData\Local\Temp\ccR6Awah.s:26     .bss.tcphdr:00000000 $d
C:\Users\KHUSHA~1\AppData\Local\Temp\ccR6Awah.s:29     .bss.tcphdr:00000000 tcphdr
C:\Users\KHUSHA~1\AppData\Local\Temp\ccR6Awah.s:32     .bss.iphdr:00000000 $d
C:\Users\KHUSHA~1\AppData\Local\Temp\ccR6Awah.s:35     .bss.iphdr:00000000 iphdr
C:\Users\KHUSHA~1\AppData\Local\Temp\ccR6Awah.s:38     .bss.seqno:00000000 $d
C:\Users\KHUSHA~1\AppData\Local\Temp\ccR6Awah.s:41     .bss.seqno:00000000 seqno
C:\Users\KHUSHA~1\AppData\Local\Temp\ccR6Awah.s:44     .bss.ackno:00000000 $d
C:\Users\KHUSHA~1\AppData\Local\Temp\ccR6Awah.s:47     .bss.ackno:00000000 ackno
C:\Users\KHUSHA~1\AppData\Local\Temp\ccR6Awah.s:52     .bss.flags:00000000 flags
C:\Users\KHUSHA~1\AppData\Local\Temp\ccR6Awah.s:53     .bss.flags:00000000 $d
C:\Users\KHUSHA~1\AppData\Local\Temp\ccR6Awah.s:55     .bss.tcplen:00000000 $d
C:\Users\KHUSHA~1\AppData\Local\Temp\ccR6Awah.s:58     .bss.tcplen:00000000 tcplen
C:\Users\KHUSHA~1\AppData\Local\Temp\ccR6Awah.s:63     .bss.recv_flags:00000000 recv_flags
C:\Users\KHUSHA~1\AppData\Local\Temp\ccR6Awah.s:64     .bss.recv_flags:00000000 $d
C:\Users\KHUSHA~1\AppData\Local\Temp\ccR6Awah.s:66     .bss.recv_data:00000000 $d
C:\Users\KHUSHA~1\AppData\Local\Temp\ccR6Awah.s:69     .bss.recv_data:00000000 recv_data
                            *COM*:00000004 tcp_input_pcb
C:\Users\KHUSHA~1\AppData\Local\Temp\ccR6Awah.s:73     .text.tcp_input:00000000 $t
C:\Users\KHUSHA~1\AppData\Local\Temp\ccR6Awah.s:78     .text.tcp_input:00000000 tcp_input
C:\Users\KHUSHA~1\AppData\Local\Temp\ccR6Awah.s:444    .text.tcp_input:000002a0 $d
C:\Users\KHUSHA~1\AppData\Local\Temp\ccR6Awah.s:456    .text.tcp_input:000002c8 $t
C:\Users\KHUSHA~1\AppData\Local\Temp\ccR6Awah.s:1299   .text.tcp_timewait_input:00000000 tcp_timewait_input
C:\Users\KHUSHA~1\AppData\Local\Temp\ccR6Awah.s:1072   .text.tcp_listen_input:00000000 tcp_listen_input
C:\Users\KHUSHA~1\AppData\Local\Temp\ccR6Awah.s:1439   .text.tcp_process:00000000 tcp_process
C:\Users\KHUSHA~1\AppData\Local\Temp\ccR6Awah.s:827    .text.tcp_input:00000530 $d
C:\Users\KHUSHA~1\AppData\Local\Temp\ccR6Awah.s:841    .text.tcp_input:00000560 $t
C:\Users\KHUSHA~1\AppData\Local\Temp\ccR6Awah.s:1052   .text.tcp_input:000006c4 $d
C:\Users\KHUSHA~1\AppData\Local\Temp\ccR6Awah.s:1068   .text.tcp_listen_input:00000000 $t
C:\Users\KHUSHA~1\AppData\Local\Temp\ccR6Awah.s:4557   .text.tcp_parseopt:00000000 tcp_parseopt
C:\Users\KHUSHA~1\AppData\Local\Temp\ccR6Awah.s:1282   .text.tcp_listen_input:00000158 $d
C:\Users\KHUSHA~1\AppData\Local\Temp\ccR6Awah.s:1295   .text.tcp_timewait_input:00000000 $t
C:\Users\KHUSHA~1\AppData\Local\Temp\ccR6Awah.s:1423   .text.tcp_timewait_input:000000b8 $d
C:\Users\KHUSHA~1\AppData\Local\Temp\ccR6Awah.s:1435   .text.tcp_process:00000000 $t
C:\Users\KHUSHA~1\AppData\Local\Temp\ccR6Awah.s:1588   .text.tcp_process:000000f4 $d
C:\Users\KHUSHA~1\AppData\Local\Temp\ccR6Awah.s:1596   .text.tcp_process:00000114 $t
C:\Users\KHUSHA~1\AppData\Local\Temp\ccR6Awah.s:1818   .text.tcp_process:000002a4 $d
C:\Users\KHUSHA~1\AppData\Local\Temp\ccR6Awah.s:1829   .text.tcp_process:000002c8 $t
C:\Users\KHUSHA~1\AppData\Local\Temp\ccR6Awah.s:2596   .text.tcp_receive:00000000 tcp_receive
C:\Users\KHUSHA~1\AppData\Local\Temp\ccR6Awah.s:2198   .text.tcp_process:0000054c $d
C:\Users\KHUSHA~1\AppData\Local\Temp\ccR6Awah.s:2211   .text.tcp_process:00000578 $t
C:\Users\KHUSHA~1\AppData\Local\Temp\ccR6Awah.s:2424   .text.tcp_process:000006b0 $d
C:\Users\KHUSHA~1\AppData\Local\Temp\ccR6Awah.s:2434   .text.tcp_oos_insert_segment:00000000 $t
C:\Users\KHUSHA~1\AppData\Local\Temp\ccR6Awah.s:2438   .text.tcp_oos_insert_segment:00000000 tcp_oos_insert_segment
C:\Users\KHUSHA~1\AppData\Local\Temp\ccR6Awah.s:2587   .text.tcp_oos_insert_segment:000000e8 $d
C:\Users\KHUSHA~1\AppData\Local\Temp\ccR6Awah.s:2592   .text.tcp_receive:00000000 $t
C:\Users\KHUSHA~1\AppData\Local\Temp\ccR6Awah.s:2958   .text.tcp_receive:000002a4 $d
C:\Users\KHUSHA~1\AppData\Local\Temp\ccR6Awah.s:2965   .text.tcp_receive:000002b8 $t
C:\Users\KHUSHA~1\AppData\Local\Temp\ccR6Awah.s:3403   .text.tcp_receive:000005e4 $d
C:\Users\KHUSHA~1\AppData\Local\Temp\ccR6Awah.s:3410   .text.tcp_receive:000005f8 $t
C:\Users\KHUSHA~1\AppData\Local\Temp\ccR6Awah.s:3663   .text.tcp_receive:000007d4 $d
C:\Users\KHUSHA~1\AppData\Local\Temp\ccR6Awah.s:3668   .text.tcp_receive:000007e0 $t
C:\Users\KHUSHA~1\AppData\Local\Temp\ccR6Awah.s:3995   .text.tcp_receive:00000a44 $d
C:\Users\KHUSHA~1\AppData\Local\Temp\ccR6Awah.s:4002   .text.tcp_receive:00000a58 $t
C:\Users\KHUSHA~1\AppData\Local\Temp\ccR6Awah.s:4274   .text.tcp_receive:00000c34 $d
C:\Users\KHUSHA~1\AppData\Local\Temp\ccR6Awah.s:4280   .text.tcp_receive:00000c44 $t
C:\Users\KHUSHA~1\AppData\Local\Temp\ccR6Awah.s:4546   .text.tcp_receive:00000e1c $d
C:\Users\KHUSHA~1\AppData\Local\Temp\ccR6Awah.s:4553   .text.tcp_parseopt:00000000 $t
C:\Users\KHUSHA~1\AppData\Local\Temp\ccR6Awah.s:4734   .text.tcp_parseopt:00000100 $d
                     .debug_frame:00000010 $d

UNDEFINED SYMBOLS
lwip_ntohs
pbuf_header
pbuf_free
ip4_addr_isbroadcast
inet_chksum_pseudo
lwip_ntohl
lwip_stats
current_iphdr_dest
current_iphdr_src
tcp_active_pcbs
tcp_recv_null
tcp_pcb_remove
memp_free
tcp_abort
tcp_tw_pcbs
tcp_listen_pcbs
tcp_output
tcp_rst
tcp_alloc
tcp_timer_needed
tcp_eff_send_mss
tcp_enqueue_flags
tcp_abandon
tcp_ticks
tcp_seg_free
tcp_rexmit
tcp_pcb_purge
tcp_tmp_pcb
tcp_segs_free
lwip_htons
pbuf_realloc
tcp_rexmit_fast
pbuf_clen
tcp_update_rcv_ann_wnd
pbuf_cat
tcp_send_empty_ack
tcp_seg_copy
